TN:
SF:/home/fares/Desktop/NeuroClues/build/_deps/googletest-src/googletest/include/gtest/gtest-assertion-result.h
FN:155,161,_ZN7testing15AssertionResultC2ISiEERKT_PNSt9enable_ifIXntsrSt14is_convertibleIS2_S0_E5valueEvE4typeE
FN:155,161,_ZN7testing15AssertionResultC2IbEERKT_PNSt9enable_ifIXntsrSt14is_convertibleIS2_S0_E5valueEvE4typeE
FN:174,174,_ZNK7testing15AssertionResultcvbEv
FN:183,185,_ZNK7testing15AssertionResult7messageEv
FN:187,187,_ZNK7testing15AssertionResult15failure_messageEv
FN:191,194,_ZN7testing15AssertionResultlsIA12_cEERS0_RKT_
FN:191,194,_ZN7testing15AssertionResultlsIA3_cEERS0_RKT_
FN:191,194,_ZN7testing15AssertionResultlsIA5_cEERS0_RKT_
FN:191,194,_ZN7testing15AssertionResultlsINSt7__cxx1112basic_stringIcSt11char_traitsIcESaIcEEEEERS0_RKT_
FN:191,194,_ZN7testing15AssertionResultlsIPKcEERS0_RKT_
FN:206,209,_ZN7testing15AssertionResult13AppendMessageERKNS_7MessageE
FNDA:2,_ZN7testing15AssertionResultC2ISiEERKT_PNSt9enable_ifIXntsrSt14is_convertibleIS2_S0_E5valueEvE4typeE
FNDA:65,_ZN7testing15AssertionResultC2IbEERKT_PNSt9enable_ifIXntsrSt14is_convertibleIS2_S0_E5valueEvE4typeE
FNDA:67,_ZNK7testing15AssertionResultcvbEv
FNDA:0,_ZNK7testing15AssertionResult7messageEv
FNDA:0,_ZNK7testing15AssertionResult15failure_messageEv
FNDA:0,_ZN7testing15AssertionResultlsIA12_cEERS0_RKT_
FNDA:0,_ZN7testing15AssertionResultlsIA3_cEERS0_RKT_
FNDA:0,_ZN7testing15AssertionResultlsIA5_cEERS0_RKT_
FNDA:0,_ZN7testing15AssertionResultlsINSt7__cxx1112basic_stringIcSt11char_traitsIcESaIcEEEEERS0_RKT_
FNDA:0,_ZN7testing15AssertionResultlsIPKcEERS0_RKT_
FNDA:0,_ZN7testing15AssertionResult13AppendMessageERKNS_7MessageE
FNF:11
FNH:3
DA:155,67
DA:161,67
DA:174,67
DA:183,0
DA:184,0
DA:187,0
DA:191,0
DA:192,0
DA:193,0
DA:206,0
DA:207,0
DA:208,0
DA:209,0
LF:13
LH:3
end_of_record
TN:
SF:/home/fares/Desktop/NeuroClues/build/_deps/googletest-src/googletest/include/gtest/gtest-message.h
FN:114,132,_ZN7testing7MessagelsIA12_cEERS0_RKT_
FN:114,132,_ZN7testing7MessagelsIA3_cEERS0_RKT_
FN:114,132,_ZN7testing7MessagelsIA5_cEERS0_RKT_
FN:114,132,_ZN7testing7MessagelsINSt7__cxx1112basic_stringIcSt11char_traitsIcESaIcEEEEERS0_RKT_
FN:148,155,_ZN7testing7MessagelsIKcEERS0_RKPT_
FNDA:0,_ZN7testing7MessagelsIA12_cEERS0_RKT_
FNDA:0,_ZN7testing7MessagelsIA3_cEERS0_RKT_
FNDA:0,_ZN7testing7MessagelsIA5_cEERS0_RKT_
FNDA:0,_ZN7testing7MessagelsINSt7__cxx1112basic_stringIcSt11char_traitsIcESaIcEEEEERS0_RKT_
FNDA:42,_ZN7testing7MessagelsIKcEERS0_RKPT_
FNF:5
FNH:1
DA:114,0
DA:130,0
DA:131,0
DA:148,42
DA:149,42
DA:150,0
DA:152,42
DA:154,42
LF:8
LH:4
end_of_record
TN:
SF:/home/fares/Desktop/NeuroClues/build/_deps/googletest-src/googletest/include/gtest/gtest-printers.h
FN:1035,1039,_ZN7testing13PrintToStringIN8nlohmann16json_abi_v3_11_310basic_jsonISt3mapSt6vectorNSt7__cxx1112basic_stringIcSt11char_traitsIcESaIcEEEblmdSaNS2_14adl_serializerES5_IhSaIhEEvEEEESB_RKT_
FN:1035,1039,_ZN7testing13PrintToStringINSt7__cxx1112basic_stringIcSt11char_traitsIcESaIcEEEEES6_RKT_
FN:1035,1039,_ZN7testing13PrintToStringIPKcEENSt7__cxx1112basic_stringIcSt11char_traitsIcESaIcEEERKT_
FN:1035,1039,_ZN7testing13PrintToStringIbEENSt7__cxx1112basic_stringIcSt11char_traitsIcESaIcEEERKT_
FN:1035,1039,_ZN7testing13PrintToStringIiEENSt7__cxx1112basic_stringIcSt11char_traitsIcESaIcEEERKT_
FN:1035,1039,_ZN7testing13PrintToStringImEENSt7__cxx1112basic_stringIcSt11char_traitsIcESaIcEEERKT_
FN:213,217,_ZN7testing8internal52internal_stream_operator_without_lexical_name_lookup13StreamPrinter10PrintValueIN8nlohmann16json_abi_v3_11_310basic_jsonISt3mapSt6vectorNSt7__cxx1112basic_stringIcSt11char_traitsIcESaIcEEEblmdSaNS5_14adl_serializerES8_IhSaIhEEvEEvRSoEEvRKT_PSo
FN:213,217,_ZN7testing8internal52internal_stream_operator_without_lexical_name_lookup13StreamPrinter10PrintValueIivRSoEEvRKT_PSo
FN:213,217,_ZN7testing8internal52internal_stream_operator_without_lexical_name_lookup13StreamPrinter10PrintValueImvRSoEEvRKT_PSo
FN:305,312,_ZN7testing8internal17PrintWithFallbackIN8nlohmann16json_abi_v3_11_310basic_jsonISt3mapSt6vectorNSt7__cxx1112basic_stringIcSt11char_traitsIcESaIcEEEblmdSaNS3_14adl_serializerES6_IhSaIhEEvEEEEvRKT_PSo
FN:305,312,_ZN7testing8internal17PrintWithFallbackIiEEvRKT_PSo
FN:305,312,_ZN7testing8internal17PrintWithFallbackImEEvRKT_PSo
FN:332,334,_ZN7testing8internal19FormatForComparisonIN8nlohmann16json_abi_v3_11_310basic_jsonISt3mapSt6vectorNSt7__cxx1112basic_stringIcSt11char_traitsIcESaIcEEEblmdSaNS3_14adl_serializerES6_IhSaIhEEvEEbE6FormatERKSG_
FN:332,334,_ZN7testing8internal19FormatForComparisonINSt7__cxx1112basic_stringIcSt11char_traitsIcESaIcEEEA1_cE6FormatERKS7_
FN:332,334,_ZN7testing8internal19FormatForComparisonINSt7__cxx1112basic_stringIcSt11char_traitsIcESaIcEEEA4_cE6FormatERKS7_
FN:332,334,_ZN7testing8internal19FormatForComparisonINSt7__cxx1112basic_stringIcSt11char_traitsIcESaIcEEEA5_cE6FormatERKS7_
FN:332,334,_ZN7testing8internal19FormatForComparisonIbN8nlohmann16json_abi_v3_11_310basic_jsonISt3mapSt6vectorNSt7__cxx1112basic_stringIcSt11char_traitsIcESaIcEEEblmdSaNS3_14adl_serializerES6_IhSaIhEEvEEE6FormatERKb
FN:332,334,_ZN7testing8internal19FormatForComparisonIimE6FormatB5cxx11ERKi
FN:332,334,_ZN7testing8internal19FormatForComparisonImiE6FormatB5cxx11ERKm
FN:341,343,_ZN7testing8internal19FormatForComparisonIA1_cNSt7__cxx1112basic_stringIcSt11char_traitsIcESaIcEEEE6FormatEPKc
FN:341,343,_ZN7testing8internal19FormatForComparisonIA4_cNSt7__cxx1112basic_stringIcSt11char_traitsIcESaIcEEEE6FormatEPKc
FN:341,343,_ZN7testing8internal19FormatForComparisonIA5_cNSt7__cxx1112basic_stringIcSt11char_traitsIcESaIcEEEE6FormatEPKc
FN:386,386,_ZN7testing8internal19FormatForComparisonIPKcNSt7__cxx1112basic_stringIcSt11char_traitsIcESaIcEEEE6FormatES3_
FN:412,415,_ZN7testing8internal33FormatForComparisonFailureMessageIA1_cNSt7__cxx1112basic_stringIcSt11char_traitsIcESaIcEEEEES8_RKT_RKT0_
FN:412,415,_ZN7testing8internal33FormatForComparisonFailureMessageIA4_cNSt7__cxx1112basic_stringIcSt11char_traitsIcESaIcEEEEES8_RKT_RKT0_
FN:412,415,_ZN7testing8internal33FormatForComparisonFailureMessageIA5_cNSt7__cxx1112basic_stringIcSt11char_traitsIcESaIcEEEEES8_RKT_RKT0_
FN:412,415,_ZN7testing8internal33FormatForComparisonFailureMessageIN8nlohmann16json_abi_v3_11_310basic_jsonISt3mapSt6vectorNSt7__cxx1112basic_stringIcSt11char_traitsIcESaIcEEEblmdSaNS3_14adl_serializerES6_IhSaIhEEvEEbEESC_RKT_RKT0_
FN:412,415,_ZN7testing8internal33FormatForComparisonFailureMessageINSt7__cxx1112basic_stringIcSt11char_traitsIcESaIcEEEA1_cEES7_RKT_RKT0_
FN:412,415,_ZN7testing8internal33FormatForComparisonFailureMessageINSt7__cxx1112basic_stringIcSt11char_traitsIcESaIcEEEA4_cEES7_RKT_RKT0_
FN:412,415,_ZN7testing8internal33FormatForComparisonFailureMessageINSt7__cxx1112basic_stringIcSt11char_traitsIcESaIcEEEA5_cEES7_RKT_RKT0_
FN:412,415,_ZN7testing8internal33FormatForComparisonFailureMessageIbN8nlohmann16json_abi_v3_11_310basic_jsonISt3mapSt6vectorNSt7__cxx1112basic_stringIcSt11char_traitsIcESaIcEEEblmdSaNS3_14adl_serializerES6_IhSaIhEEvEEEESC_RKT_RKT0_
FN:412,415,_ZN7testing8internal33FormatForComparisonFailureMessageIimEENSt7__cxx1112basic_stringIcSt11char_traitsIcESaIcEEERKT_RKT0_
FN:412,415,_ZN7testing8internal33FormatForComparisonFailureMessageImiEENSt7__cxx1112basic_stringIcSt11char_traitsIcESaIcEEERKT_RKT0_
FN:439,441,_ZN7testing8internal7PrintToIN8nlohmann16json_abi_v3_11_310basic_jsonISt3mapSt6vectorNSt7__cxx1112basic_stringIcSt11char_traitsIcESaIcEEEblmdSaNS3_14adl_serializerES6_IhSaIhEEvEEEEvRKT_PSo
FN:439,441,_ZN7testing8internal7PrintToIiEEvRKT_PSo
FN:439,441,_ZN7testing8internal7PrintToImEEvRKT_PSo
FN:458,460,_ZN7testing8internal7PrintToEbPSo
FN:554,556,_ZN7testing8internal7PrintToERKNSt7__cxx1112basic_stringIcSt11char_traitsIcESaIcEEEPSo
FN:693,703,_ZN7testing8internal16UniversalPrinterIN8nlohmann16json_abi_v3_11_310basic_jsonISt3mapSt6vectorNSt7__cxx1112basic_stringIcSt11char_traitsIcESaIcEEEblmdSaNS3_14adl_serializerES6_IhSaIhEEvEEE5PrintERKSG_PSo
FN:693,703,_ZN7testing8internal16UniversalPrinterINSt7__cxx1112basic_stringIcSt11char_traitsIcESaIcEEEE5PrintERKS7_PSo
FN:693,703,_ZN7testing8internal16UniversalPrinterIbE5PrintERKbPSo
FN:693,703,_ZN7testing8internal16UniversalPrinterIiE5PrintERKiPSo
FN:693,703,_ZN7testing8internal16UniversalPrinterImE5PrintERKmPSo
FN:883,885,_ZN7testing8internal21UniversalTersePrinterIN8nlohmann16json_abi_v3_11_310basic_jsonISt3mapSt6vectorNSt7__cxx1112basic_stringIcSt11char_traitsIcESaIcEEEblmdSaNS3_14adl_serializerES6_IhSaIhEEvEEE5PrintERKSG_PSo
FN:883,885,_ZN7testing8internal21UniversalTersePrinterINSt7__cxx1112basic_stringIcSt11char_traitsIcESaIcEEEE5PrintERKS7_PSo
FN:883,885,_ZN7testing8internal21UniversalTersePrinterIbE5PrintERKbPSo
FN:883,885,_ZN7testing8internal21UniversalTersePrinterIiE5PrintERKiPSo
FN:883,885,_ZN7testing8internal21UniversalTersePrinterImE5PrintERKmPSo
FN:904,910,_ZN7testing8internal21UniversalTersePrinterIPKcE5PrintES3_PSo
FN:995,1000,_ZN7testing8internal14UniversalPrintIN8nlohmann16json_abi_v3_11_310basic_jsonISt3mapSt6vectorNSt7__cxx1112basic_stringIcSt11char_traitsIcESaIcEEEblmdSaNS3_14adl_serializerES6_IhSaIhEEvEEEEvRKT_PSo
FN:995,1000,_ZN7testing8internal14UniversalPrintINSt7__cxx1112basic_stringIcSt11char_traitsIcESaIcEEEEEvRKT_PSo
FN:995,1000,_ZN7testing8internal14UniversalPrintIbEEvRKT_PSo
FN:995,1000,_ZN7testing8internal14UniversalPrintIiEEvRKT_PSo
FN:995,1000,_ZN7testing8internal14UniversalPrintImEEvRKT_PSo
FNDA:0,_ZN7testing13PrintToStringIN8nlohmann16json_abi_v3_11_310basic_jsonISt3mapSt6vectorNSt7__cxx1112basic_stringIcSt11char_traitsIcESaIcEEEblmdSaNS2_14adl_serializerES5_IhSaIhEEvEEEESB_RKT_
FNDA:0,_ZN7testing13PrintToStringINSt7__cxx1112basic_stringIcSt11char_traitsIcESaIcEEEEES6_RKT_
FNDA:0,_ZN7testing13PrintToStringIPKcEENSt7__cxx1112basic_stringIcSt11char_traitsIcESaIcEEERKT_
FNDA:0,_ZN7testing13PrintToStringIbEENSt7__cxx1112basic_stringIcSt11char_traitsIcESaIcEEERKT_
FNDA:0,_ZN7testing13PrintToStringIiEENSt7__cxx1112basic_stringIcSt11char_traitsIcESaIcEEERKT_
FNDA:0,_ZN7testing13PrintToStringImEENSt7__cxx1112basic_stringIcSt11char_traitsIcESaIcEEERKT_
FNDA:0,_ZN7testing8internal52internal_stream_operator_without_lexical_name_lookup13StreamPrinter10PrintValueIN8nlohmann16json_abi_v3_11_310basic_jsonISt3mapSt6vectorNSt7__cxx1112basic_stringIcSt11char_traitsIcESaIcEEEblmdSaNS5_14adl_serializerES8_IhSaIhEEvEEvRSoEEvRKT_PSo
FNDA:0,_ZN7testing8internal52internal_stream_operator_without_lexical_name_lookup13StreamPrinter10PrintValueIivRSoEEvRKT_PSo
FNDA:0,_ZN7testing8internal52internal_stream_operator_without_lexical_name_lookup13StreamPrinter10PrintValueImvRSoEEvRKT_PSo
FNDA:0,_ZN7testing8internal17PrintWithFallbackIN8nlohmann16json_abi_v3_11_310basic_jsonISt3mapSt6vectorNSt7__cxx1112basic_stringIcSt11char_traitsIcESaIcEEEblmdSaNS3_14adl_serializerES6_IhSaIhEEvEEEEvRKT_PSo
FNDA:0,_ZN7testing8internal17PrintWithFallbackIiEEvRKT_PSo
FNDA:0,_ZN7testing8internal17PrintWithFallbackImEEvRKT_PSo
FNDA:0,_ZN7testing8internal19FormatForComparisonIN8nlohmann16json_abi_v3_11_310basic_jsonISt3mapSt6vectorNSt7__cxx1112basic_stringIcSt11char_traitsIcESaIcEEEblmdSaNS3_14adl_serializerES6_IhSaIhEEvEEbE6FormatERKSG_
FNDA:0,_ZN7testing8internal19FormatForComparisonINSt7__cxx1112basic_stringIcSt11char_traitsIcESaIcEEEA1_cE6FormatERKS7_
FNDA:0,_ZN7testing8internal19FormatForComparisonINSt7__cxx1112basic_stringIcSt11char_traitsIcESaIcEEEA4_cE6FormatERKS7_
FNDA:0,_ZN7testing8internal19FormatForComparisonINSt7__cxx1112basic_stringIcSt11char_traitsIcESaIcEEEA5_cE6FormatERKS7_
FNDA:0,_ZN7testing8internal19FormatForComparisonIbN8nlohmann16json_abi_v3_11_310basic_jsonISt3mapSt6vectorNSt7__cxx1112basic_stringIcSt11char_traitsIcESaIcEEEblmdSaNS3_14adl_serializerES6_IhSaIhEEvEEE6FormatERKb
FNDA:0,_ZN7testing8internal19FormatForComparisonIimE6FormatB5cxx11ERKi
FNDA:0,_ZN7testing8internal19FormatForComparisonImiE6FormatB5cxx11ERKm
FNDA:0,_ZN7testing8internal19FormatForComparisonIA1_cNSt7__cxx1112basic_stringIcSt11char_traitsIcESaIcEEEE6FormatEPKc
FNDA:0,_ZN7testing8internal19FormatForComparisonIA4_cNSt7__cxx1112basic_stringIcSt11char_traitsIcESaIcEEEE6FormatEPKc
FNDA:0,_ZN7testing8internal19FormatForComparisonIA5_cNSt7__cxx1112basic_stringIcSt11char_traitsIcESaIcEEEE6FormatEPKc
FNDA:0,_ZN7testing8internal19FormatForComparisonIPKcNSt7__cxx1112basic_stringIcSt11char_traitsIcESaIcEEEE6FormatES3_
FNDA:0,_ZN7testing8internal33FormatForComparisonFailureMessageIA1_cNSt7__cxx1112basic_stringIcSt11char_traitsIcESaIcEEEEES8_RKT_RKT0_
FNDA:0,_ZN7testing8internal33FormatForComparisonFailureMessageIA4_cNSt7__cxx1112basic_stringIcSt11char_traitsIcESaIcEEEEES8_RKT_RKT0_
FNDA:0,_ZN7testing8internal33FormatForComparisonFailureMessageIA5_cNSt7__cxx1112basic_stringIcSt11char_traitsIcESaIcEEEEES8_RKT_RKT0_
FNDA:0,_ZN7testing8internal33FormatForComparisonFailureMessageIN8nlohmann16json_abi_v3_11_310basic_jsonISt3mapSt6vectorNSt7__cxx1112basic_stringIcSt11char_traitsIcESaIcEEEblmdSaNS3_14adl_serializerES6_IhSaIhEEvEEbEESC_RKT_RKT0_
FNDA:0,_ZN7testing8internal33FormatForComparisonFailureMessageINSt7__cxx1112basic_stringIcSt11char_traitsIcESaIcEEEA1_cEES7_RKT_RKT0_
FNDA:0,_ZN7testing8internal33FormatForComparisonFailureMessageINSt7__cxx1112basic_stringIcSt11char_traitsIcESaIcEEEA4_cEES7_RKT_RKT0_
FNDA:0,_ZN7testing8internal33FormatForComparisonFailureMessageINSt7__cxx1112basic_stringIcSt11char_traitsIcESaIcEEEA5_cEES7_RKT_RKT0_
FNDA:0,_ZN7testing8internal33FormatForComparisonFailureMessageIbN8nlohmann16json_abi_v3_11_310basic_jsonISt3mapSt6vectorNSt7__cxx1112basic_stringIcSt11char_traitsIcESaIcEEEblmdSaNS3_14adl_serializerES6_IhSaIhEEvEEEESC_RKT_RKT0_
FNDA:0,_ZN7testing8internal33FormatForComparisonFailureMessageIimEENSt7__cxx1112basic_stringIcSt11char_traitsIcESaIcEEERKT_RKT0_
FNDA:0,_ZN7testing8internal33FormatForComparisonFailureMessageImiEENSt7__cxx1112basic_stringIcSt11char_traitsIcESaIcEEERKT_RKT0_
FNDA:0,_ZN7testing8internal7PrintToIN8nlohmann16json_abi_v3_11_310basic_jsonISt3mapSt6vectorNSt7__cxx1112basic_stringIcSt11char_traitsIcESaIcEEEblmdSaNS3_14adl_serializerES6_IhSaIhEEvEEEEvRKT_PSo
FNDA:0,_ZN7testing8internal7PrintToIiEEvRKT_PSo
FNDA:0,_ZN7testing8internal7PrintToImEEvRKT_PSo
FNDA:0,_ZN7testing8internal7PrintToEbPSo
FNDA:0,_ZN7testing8internal7PrintToERKNSt7__cxx1112basic_stringIcSt11char_traitsIcESaIcEEEPSo
FNDA:0,_ZN7testing8internal16UniversalPrinterIN8nlohmann16json_abi_v3_11_310basic_jsonISt3mapSt6vectorNSt7__cxx1112basic_stringIcSt11char_traitsIcESaIcEEEblmdSaNS3_14adl_serializerES6_IhSaIhEEvEEE5PrintERKSG_PSo
FNDA:0,_ZN7testing8internal16UniversalPrinterINSt7__cxx1112basic_stringIcSt11char_traitsIcESaIcEEEE5PrintERKS7_PSo
FNDA:0,_ZN7testing8internal16UniversalPrinterIbE5PrintERKbPSo
FNDA:0,_ZN7testing8internal16UniversalPrinterIiE5PrintERKiPSo
FNDA:0,_ZN7testing8internal16UniversalPrinterImE5PrintERKmPSo
FNDA:0,_ZN7testing8internal21UniversalTersePrinterIN8nlohmann16json_abi_v3_11_310basic_jsonISt3mapSt6vectorNSt7__cxx1112basic_stringIcSt11char_traitsIcESaIcEEEblmdSaNS3_14adl_serializerES6_IhSaIhEEvEEE5PrintERKSG_PSo
FNDA:0,_ZN7testing8internal21UniversalTersePrinterINSt7__cxx1112basic_stringIcSt11char_traitsIcESaIcEEEE5PrintERKS7_PSo
FNDA:0,_ZN7testing8internal21UniversalTersePrinterIbE5PrintERKbPSo
FNDA:0,_ZN7testing8internal21UniversalTersePrinterIiE5PrintERKiPSo
FNDA:0,_ZN7testing8internal21UniversalTersePrinterImE5PrintERKmPSo
FNDA:0,_ZN7testing8internal21UniversalTersePrinterIPKcE5PrintES3_PSo
FNDA:0,_ZN7testing8internal14UniversalPrintIN8nlohmann16json_abi_v3_11_310basic_jsonISt3mapSt6vectorNSt7__cxx1112basic_stringIcSt11char_traitsIcESaIcEEEblmdSaNS3_14adl_serializerES6_IhSaIhEEvEEEEvRKT_PSo
FNDA:0,_ZN7testing8internal14UniversalPrintINSt7__cxx1112basic_stringIcSt11char_traitsIcESaIcEEEEEvRKT_PSo
FNDA:0,_ZN7testing8internal14UniversalPrintIbEEvRKT_PSo
FNDA:0,_ZN7testing8internal14UniversalPrintIiEEvRKT_PSo
FNDA:0,_ZN7testing8internal14UniversalPrintImEEvRKT_PSo
FNF:54
FNH:0
DA:213,0
DA:216,0
DA:217,0
DA:305,0
DA:311,0
DA:312,0
DA:332,0
DA:333,0
DA:341,0
DA:342,0
DA:386,0
DA:412,0
DA:414,0
DA:439,0
DA:440,0
DA:441,0
DA:458,0
DA:459,0
DA:460,0
DA:554,0
DA:555,0
DA:556,0
DA:693,0
DA:702,0
DA:703,0
DA:883,0
DA:884,0
DA:885,0
DA:904,0
DA:905,0
DA:906,0
DA:908,0
DA:910,0
DA:995,0
DA:999,0
DA:1000,0
DA:1035,0
DA:1036,0
DA:1037,0
DA:1038,0
DA:1039,0
LF:41
LH:0
end_of_record
TN:
SF:/home/fares/Desktop/NeuroClues/build/_deps/googletest-src/googletest/include/gtest/gtest.h
FN:1338,1344,_ZN7testing8internal18CmpHelperEQFailureIN8nlohmann16json_abi_v3_11_310basic_jsonISt3mapSt6vectorNSt7__cxx1112basic_stringIcSt11char_traitsIcESaIcEEEblmdSaNS3_14adl_serializerES6_IhSaIhEEvEEbEENS_15AssertionResultEPKcSJ_RKT_RKT0_
FN:1338,1344,_ZN7testing8internal18CmpHelperEQFailureINSt7__cxx1112basic_stringIcSt11char_traitsIcESaIcEEEA1_cEENS_15AssertionResultEPKcSB_RKT_RKT0_
FN:1338,1344,_ZN7testing8internal18CmpHelperEQFailureINSt7__cxx1112basic_stringIcSt11char_traitsIcESaIcEEEA4_cEENS_15AssertionResultEPKcSB_RKT_RKT0_
FN:1338,1344,_ZN7testing8internal18CmpHelperEQFailureINSt7__cxx1112basic_stringIcSt11char_traitsIcESaIcEEEA5_cEENS_15AssertionResultEPKcSB_RKT_RKT0_
FN:1355,1363,_ZN7testing8internal11CmpHelperEQIN8nlohmann16json_abi_v3_11_310basic_jsonISt3mapSt6vectorNSt7__cxx1112basic_stringIcSt11char_traitsIcESaIcEEEblmdSaNS3_14adl_serializerES6_IhSaIhEEvEEbEENS_15AssertionResultEPKcSJ_RKT_RKT0_
FN:1355,1363,_ZN7testing8internal11CmpHelperEQINSt7__cxx1112basic_stringIcSt11char_traitsIcESaIcEEEA1_cEENS_15AssertionResultEPKcSB_RKT_RKT0_
FN:1355,1363,_ZN7testing8internal11CmpHelperEQINSt7__cxx1112basic_stringIcSt11char_traitsIcESaIcEEEA4_cEENS_15AssertionResultEPKcSB_RKT_RKT0_
FN:1355,1363,_ZN7testing8internal11CmpHelperEQINSt7__cxx1112basic_stringIcSt11char_traitsIcESaIcEEEA5_cEENS_15AssertionResultEPKcSB_RKT_RKT0_
FN:1374,1378,_ZN7testing8internal8EqHelper7CompareIN8nlohmann16json_abi_v3_11_310basic_jsonISt3mapSt6vectorNSt7__cxx1112basic_stringIcSt11char_traitsIcESaIcEEEblmdSaNS4_14adl_serializerES7_IhSaIhEEvEEbLPv0EEENS_15AssertionResultEPKcSL_RKT_RKT0_
FN:1374,1378,_ZN7testing8internal8EqHelper7CompareINSt7__cxx1112basic_stringIcSt11char_traitsIcESaIcEEEA1_cLPv0EEENS_15AssertionResultEPKcSD_RKT_RKT0_
FN:1374,1378,_ZN7testing8internal8EqHelper7CompareINSt7__cxx1112basic_stringIcSt11char_traitsIcESaIcEEEA4_cLPv0EEENS_15AssertionResultEPKcSD_RKT_RKT0_
FN:1374,1378,_ZN7testing8internal8EqHelper7CompareINSt7__cxx1112basic_stringIcSt11char_traitsIcESaIcEEEA5_cLPv0EEENS_15AssertionResultEPKcSD_RKT_RKT0_
FN:1407,1414,_ZN7testing8internal18CmpHelperOpFailureImiEENS_15AssertionResultEPKcS4_RKT_RKT0_S4_
FN:1442,1442,_ZN7testing8internal11CmpHelperGEImiEENS_15AssertionResultEPKcS4_RKT_RKT0_
FN:244,244,_ZN7testing4Test14SetUpTestSuiteEv
FN:252,252,_ZN7testing4Test17TearDownTestSuiteEv
FN:257,257,_ZN7testing4Test16TearDownTestCaseEv
FN:258,258,_ZN7testing4Test13SetUpTestCaseEv
FN:339,339,_ZN7testing4Test5SetupEv
FNDA:0,_ZN7testing8internal18CmpHelperEQFailureIN8nlohmann16json_abi_v3_11_310basic_jsonISt3mapSt6vectorNSt7__cxx1112basic_stringIcSt11char_traitsIcESaIcEEEblmdSaNS3_14adl_serializerES6_IhSaIhEEvEEbEENS_15AssertionResultEPKcSJ_RKT_RKT0_
FNDA:0,_ZN7testing8internal18CmpHelperEQFailureINSt7__cxx1112basic_stringIcSt11char_traitsIcESaIcEEEA1_cEENS_15AssertionResultEPKcSB_RKT_RKT0_
FNDA:0,_ZN7testing8internal18CmpHelperEQFailureINSt7__cxx1112basic_stringIcSt11char_traitsIcESaIcEEEA4_cEENS_15AssertionResultEPKcSB_RKT_RKT0_
FNDA:0,_ZN7testing8internal18CmpHelperEQFailureINSt7__cxx1112basic_stringIcSt11char_traitsIcESaIcEEEA5_cEENS_15AssertionResultEPKcSB_RKT_RKT0_
FNDA:4,_ZN7testing8internal11CmpHelperEQIN8nlohmann16json_abi_v3_11_310basic_jsonISt3mapSt6vectorNSt7__cxx1112basic_stringIcSt11char_traitsIcESaIcEEEblmdSaNS3_14adl_serializerES6_IhSaIhEEvEEbEENS_15AssertionResultEPKcSJ_RKT_RKT0_
FNDA:4,_ZN7testing8internal11CmpHelperEQINSt7__cxx1112basic_stringIcSt11char_traitsIcESaIcEEEA1_cEENS_15AssertionResultEPKcSB_RKT_RKT0_
FNDA:2,_ZN7testing8internal11CmpHelperEQINSt7__cxx1112basic_stringIcSt11char_traitsIcESaIcEEEA4_cEENS_15AssertionResultEPKcSB_RKT_RKT0_
FNDA:3,_ZN7testing8internal11CmpHelperEQINSt7__cxx1112basic_stringIcSt11char_traitsIcESaIcEEEA5_cEENS_15AssertionResultEPKcSB_RKT_RKT0_
FNDA:4,_ZN7testing8internal8EqHelper7CompareIN8nlohmann16json_abi_v3_11_310basic_jsonISt3mapSt6vectorNSt7__cxx1112basic_stringIcSt11char_traitsIcESaIcEEEblmdSaNS4_14adl_serializerES7_IhSaIhEEvEEbLPv0EEENS_15AssertionResultEPKcSL_RKT_RKT0_
FNDA:4,_ZN7testing8internal8EqHelper7CompareINSt7__cxx1112basic_stringIcSt11char_traitsIcESaIcEEEA1_cLPv0EEENS_15AssertionResultEPKcSD_RKT_RKT0_
FNDA:2,_ZN7testing8internal8EqHelper7CompareINSt7__cxx1112basic_stringIcSt11char_traitsIcESaIcEEEA4_cLPv0EEENS_15AssertionResultEPKcSD_RKT_RKT0_
FNDA:3,_ZN7testing8internal8EqHelper7CompareINSt7__cxx1112basic_stringIcSt11char_traitsIcESaIcEEEA5_cLPv0EEENS_15AssertionResultEPKcSD_RKT_RKT0_
FNDA:0,_ZN7testing8internal18CmpHelperOpFailureImiEENS_15AssertionResultEPKcS4_RKT_RKT0_S4_
FNDA:4,_ZN7testing8internal11CmpHelperGEImiEENS_15AssertionResultEPKcS4_RKT_RKT0_
FNDA:0,_ZN7testing4Test14SetUpTestSuiteEv
FNDA:0,_ZN7testing4Test17TearDownTestSuiteEv
FNDA:0,_ZN7testing4Test16TearDownTestCaseEv
FNDA:0,_ZN7testing4Test13SetUpTestCaseEv
FNDA:0,_ZN7testing4Test5SetupEv
FNF:19
FNH:9
DA:244,0
DA:252,0
DA:257,0
DA:258,0
DA:339,0
DA:1338,0
DA:1343,0
DA:1355,13
DA:1358,13
DA:1359,13
DA:1362,0
DA:1374,13
DA:1377,13
DA:1407,0
DA:1411,0
DA:1412,0
DA:1413,0
DA:1442,4
LF:18
LH:6
end_of_record
TN:
SF:/home/fares/Desktop/NeuroClues/build/_deps/googletest-src/googletest/include/gtest/internal/gtest-internal.h
FN:450,450,_ZN7testing8internal15TestFactoryBaseD0Ev
FN:450,450,_ZN7testing8internal15TestFactoryBaseD2Ev
FN:457,457,_ZN7testing8internal15TestFactoryBaseC2Ev
FN:469,469,_ZN7testing8internal15TestFactoryImplI33UtilityTest_HandlesEdgeCases_TestE10CreateTestEv
FN:469,469,_ZN7testing8internal15TestFactoryImplI34UtilityTest_ExtractsExtension_TestE10CreateTestEv
FN:469,469,_ZN7testing8internal15TestFactoryImplI35CSVHandlerTest_CanReadValidCSV_TestE10CreateTestEv
FN:469,469,_ZN7testing8internal15TestFactoryImplI37JSONHandlerTest_CanReadValidJSON_TestE10CreateTestEv
FN:469,469,_ZN7testing8internal15TestFactoryImplI38JSONHandlerTest_CanWriteValidJSON_TestE10CreateTestEv
FN:469,469,_ZN7testing8internal15TestFactoryImplI39CSVHandlerTest_FullWorkflowWithCSV_TestE10CreateTestEv
FN:469,469,_ZN7testing8internal15TestFactoryImplI39JSONHandlerTest_FailsOnMissingFile_TestE10CreateTestEv
FN:469,469,_ZN7testing8internal15TestFactoryImplI40CSVHandlerTest_CanWriteProcessedCSV_TestE10CreateTestEv
FN:469,469,_ZN7testing8internal15TestFactoryImplI41CSVHandlerTest_FailsOnMissingCSVFile_TestE10CreateTestEv
FN:469,469,_ZN7testing8internal15TestFactoryImplI41JSONHandlerTest_FailsOnMalformedJSON_TestE10CreateTestEv
FN:469,469,_ZN7testing8internal15TestFactoryImplI44JSONHandlerTest_FullWorkflowIntegration_TestE10CreateTestEv
FN:469,469,_ZN7testing8internal15TestFactoryImplI46CSVHandlerTest_AddsCorrectTimestampFormat_TestE10CreateTestEv
FN:469,469,_ZN7testing8internal15TestFactoryImplI48CSVHandlerTest_AddsProcessedColumnsToHeader_TestE10CreateTestEv
FN:469,469,_ZN7testing8internal15TestFactoryImplI48JSONHandlerTest_AddsValidProcessedTimestamp_TestE10CreateTestEv
FN:469,469,_ZN7testing8internal15TestFactoryImplI50CSVHandlerTest_CalculatesRetinaFocusIntensity_TestE10CreateTestEv
FN:469,469,_ZN7testing8internal15TestFactoryImplI51JSONHandlerTest_HandlesMissingFieldsGracefully_TestE10CreateTestEv
FN:469,469,_ZN7testing8internal15TestFactoryImplI55FileHandlerFactoryTest_ReturnsCorrectFactoryForCSV_TestE10CreateTestEv
FN:469,469,_ZN7testing8internal15TestFactoryImplI56FileHandlerFactoryTest_ReturnsCorrectFactoryForJSON_TestE10CreateTestEv
FN:469,469,_ZN7testing8internal15TestFactoryImplI56FileHandlerFactoryTest_ThrowsForUnsupportedFileType_TestE10CreateTestEv
FN:490,491,_ZN7testing8internal12CodeLocationC2ERKNSt7__cxx1112basic_stringIcSt11char_traitsIcESaIcEEEi
FN:503,506,_ZN7testing8internal19GetNotDefaultOrNullEPFvvES2_
FN:518,537,_ZN7testing8internal16SuiteApiResolverINS_4TestEE19GetSetUpCaseOrSuiteEPKci
FN:539,558,_ZN7testing8internal16SuiteApiResolverINS_4TestEE22GetTearDownCaseOrSuiteEPKci
FN:856,856,_ZN7testing8internal14TrueWithStringC2Ev
FN:859,859,_ZNK7testing8internal14TrueWithStringcvbEv
FNDA:0,_ZN7testing8internal15TestFactoryBaseD0Ev
FNDA:33,_ZN7testing8internal15TestFactoryBaseD2Ev
FNDA:33,_ZN7testing8internal15TestFactoryBaseC2Ev
FNDA:1,_ZN7testing8internal15TestFactoryImplI33UtilityTest_HandlesEdgeCases_TestE10CreateTestEv
FNDA:1,_ZN7testing8internal15TestFactoryImplI34UtilityTest_ExtractsExtension_TestE10CreateTestEv
FNDA:2,_ZN7testing8internal15TestFactoryImplI35CSVHandlerTest_CanReadValidCSV_TestE10CreateTestEv
FNDA:2,_ZN7testing8internal15TestFactoryImplI37JSONHandlerTest_CanReadValidJSON_TestE10CreateTestEv
FNDA:2,_ZN7testing8internal15TestFactoryImplI38JSONHandlerTest_CanWriteValidJSON_TestE10CreateTestEv
FNDA:2,_ZN7testing8internal15TestFactoryImplI39CSVHandlerTest_FullWorkflowWithCSV_TestE10CreateTestEv
FNDA:2,_ZN7testing8internal15TestFactoryImplI39JSONHandlerTest_FailsOnMissingFile_TestE10CreateTestEv
FNDA:2,_ZN7testing8internal15TestFactoryImplI40CSVHandlerTest_CanWriteProcessedCSV_TestE10CreateTestEv
FNDA:2,_ZN7testing8internal15TestFactoryImplI41CSVHandlerTest_FailsOnMissingCSVFile_TestE10CreateTestEv
FNDA:2,_ZN7testing8internal15TestFactoryImplI41JSONHandlerTest_FailsOnMalformedJSON_TestE10CreateTestEv
FNDA:2,_ZN7testing8internal15TestFactoryImplI44JSONHandlerTest_FullWorkflowIntegration_TestE10CreateTestEv
FNDA:2,_ZN7testing8internal15TestFactoryImplI46CSVHandlerTest_AddsCorrectTimestampFormat_TestE10CreateTestEv
FNDA:2,_ZN7testing8internal15TestFactoryImplI48CSVHandlerTest_AddsProcessedColumnsToHeader_TestE10CreateTestEv
FNDA:2,_ZN7testing8internal15TestFactoryImplI48JSONHandlerTest_AddsValidProcessedTimestamp_TestE10CreateTestEv
FNDA:2,_ZN7testing8internal15TestFactoryImplI50CSVHandlerTest_CalculatesRetinaFocusIntensity_TestE10CreateTestEv
FNDA:2,_ZN7testing8internal15TestFactoryImplI51JSONHandlerTest_HandlesMissingFieldsGracefully_TestE10CreateTestEv
FNDA:1,_ZN7testing8internal15TestFactoryImplI55FileHandlerFactoryTest_ReturnsCorrectFactoryForCSV_TestE10CreateTestEv
FNDA:1,_ZN7testing8internal15TestFactoryImplI56FileHandlerFactoryTest_ReturnsCorrectFactoryForJSON_TestE10CreateTestEv
FNDA:1,_ZN7testing8internal15TestFactoryImplI56FileHandlerFactoryTest_ThrowsForUnsupportedFileType_TestE10CreateTestEv
FNDA:33,_ZN7testing8internal12CodeLocationC2ERKNSt7__cxx1112basic_stringIcSt11char_traitsIcESaIcEEEi
FNDA:132,_ZN7testing8internal19GetNotDefaultOrNullEPFvvES2_
FNDA:33,_ZN7testing8internal16SuiteApiResolverINS_4TestEE19GetSetUpCaseOrSuiteEPKci
FNDA:33,_ZN7testing8internal16SuiteApiResolverINS_4TestEE22GetTearDownCaseOrSuiteEPKci
FNDA:21,_ZN7testing8internal14TrueWithStringC2Ev
FNDA:21,_ZNK7testing8internal14TrueWithStringcvbEv
FNF:28
FNH:27
DA:450,33
DA:457,33
DA:469,33
DA:490,33
DA:491,33
DA:503,132
DA:505,132
DA:518,33
DA:522,33
DA:524,33
DA:526,33
DA:529,0
DA:531,33
DA:539,33
DA:543,33
DA:545,33
DA:547,33
DA:550,0
DA:552,33
DA:856,21
DA:859,21
LF:21
LH:19
end_of_record
TN:
SF:/home/fares/Desktop/NeuroClues/build/_deps/googletest-src/googletest/include/gtest/internal/gtest-port.h
FN:967,967,_ZN7testing8internal8GTestLog9GetStreamEv
FNDA:0,_ZN7testing8internal8GTestLog9GetStreamEv
FNF:1
FNH:0
DA:967,0
LF:1
LH:0
end_of_record
TN:
SF:/home/fares/Desktop/NeuroClues/build/_deps/googletest-src/googletest/include/gtest/internal/gtest-type-util.h
FN:57,67,_ZN7testing8internal31CanonicalizeForStdLibVersioningENSt7__cxx1112basic_stringIcSt11char_traitsIcESaIcEEE
FN:71,87,_ZN7testing8internal11GetTypeNameB5cxx11ERKSt9type_info
FNDA:0,_ZN7testing8internal31CanonicalizeForStdLibVersioningENSt7__cxx1112basic_stringIcSt11char_traitsIcESaIcEEE
FNDA:0,_ZN7testing8internal11GetTypeNameB5cxx11ERKSt9type_info
FNF:2
FNH:0
DA:57,0
DA:59,0
DA:60,0
DA:61,0
DA:63,0
DA:66,0
DA:71,0
DA:72,0
DA:74,0
DA:80,0
DA:81,0
DA:82,0
DA:83,0
DA:87,0
LF:14
LH:0
end_of_record
TN:
SF:/home/fares/Desktop/NeuroClues/include/CSVHandler.h
FNF:0
FNH:0
LF:0
LH:0
end_of_record
TN:
SF:/home/fares/Desktop/NeuroClues/include/CSVHandlerFactory.h
FN:6,8,_ZNK17CSVHandlerFactory13createHandlerEv
FNDA:2,_ZNK17CSVHandlerFactory13createHandlerEv
FNF:1
FNH:1
DA:6,2
DA:7,2
LF:2
LH:2
end_of_record
TN:
SF:/home/fares/Desktop/NeuroClues/include/FileHandler.h
FN:8,8,_ZN11FileHandlerD0Ev
FN:8,8,_ZN11FileHandlerD2Ev
FNDA:0,_ZN11FileHandlerD0Ev
FNDA:28,_ZN11FileHandlerD2Ev
FNF:2
FNH:1
DA:8,28
LF:1
LH:1
end_of_record
TN:
SF:/home/fares/Desktop/NeuroClues/include/FileHandlerFactory.h
FN:11,11,_ZN18FileHandlerFactoryD0Ev
FN:11,11,_ZN18FileHandlerFactoryD2Ev
FNDA:0,_ZN18FileHandlerFactoryD0Ev
FNDA:6,_ZN18FileHandlerFactoryD2Ev
FNF:2
FNH:1
DA:11,6
LF:1
LH:1
end_of_record
TN:
SF:/home/fares/Desktop/NeuroClues/include/JSONHandler.h
FNF:0
FNH:0
LF:0
LH:0
end_of_record
TN:
SF:/home/fares/Desktop/NeuroClues/include/JSONHandlerFactory.h
FN:6,8,_ZNK18JSONHandlerFactory13createHandlerEv
FNDA:2,_ZNK18JSONHandlerFactory13createHandlerEv
FNF:1
FNH:1
DA:6,2
DA:7,2
LF:2
LH:2
end_of_record
TN:
SF:/home/fares/Desktop/NeuroClues/include/nlohmann/json.hpp
FN:12307,12317,_ZN8nlohmann16json_abi_v3_11_36detail6parserINS0_10basic_jsonISt3mapSt6vectorNSt7__cxx1112basic_stringIcSt11char_traitsIcESaIcEEEblmdSaNS0_14adl_serializerES5_IhSaIhEEvEENS1_20input_stream_adapterEEC2EOSG_St8functionIFbiNS1_13parse_event_tERSF_EEbb
FN:12329,12381,_ZN8nlohmann16json_abi_v3_11_36detail6parserINS0_10basic_jsonISt3mapSt6vectorNSt7__cxx1112basic_stringIcSt11char_traitsIcESaIcEEEblmdSaNS0_14adl_serializerES5_IhSaIhEEvEENS1_20input_stream_adapterEE5parseEbRSF_
FN:12416,12706,_ZN8nlohmann16json_abi_v3_11_36detail6parserINS0_10basic_jsonISt3mapSt6vectorNSt7__cxx1112basic_stringIcSt11char_traitsIcESaIcEEEblmdSaNS0_14adl_serializerES5_IhSaIhEEvEENS1_20input_stream_adapterEE18sax_parse_internalINS1_19json_sax_dom_parserISF_EEEEbPT_
FN:12416,12706,_ZN8nlohmann16json_abi_v3_11_36detail6parserINS0_10basic_jsonISt3mapSt6vectorNSt7__cxx1112basic_stringIcSt11char_traitsIcESaIcEEEblmdSaNS0_14adl_serializerES5_IhSaIhEEvEENS1_20input_stream_adapterEE18sax_parse_internalINS1_28json_sax_dom_callback_parserISF_EEEEbPT_
FN:12709,12712,_ZN8nlohmann16json_abi_v3_11_36detail6parserINS0_10basic_jsonISt3mapSt6vectorNSt7__cxx1112basic_stringIcSt11char_traitsIcESaIcEEEblmdSaNS0_14adl_serializerES5_IhSaIhEEvEENS1_20input_stream_adapterEE9get_tokenEv
FN:12714,12741,_ZN8nlohmann16json_abi_v3_11_36detail6parserINS0_10basic_jsonISt3mapSt6vectorNSt7__cxx1112basic_stringIcSt11char_traitsIcESaIcEEEblmdSaNS0_14adl_serializerES5_IhSaIhEEvEENS1_20input_stream_adapterEE17exception_messageENS1_10lexer_baseISF_E10token_typeERKSB_
FN:12818,12821,_ZN8nlohmann16json_abi_v3_11_36detail20primitive_iterator_t9set_beginEv
FN:12824,12827,_ZN8nlohmann16json_abi_v3_11_36detail20primitive_iterator_t7set_endEv
FN:12830,12833,_ZNK8nlohmann16json_abi_v3_11_36detail20primitive_iterator_t8is_beginEv
FN:12841,12844,_ZN8nlohmann16json_abi_v3_11_36detaileqENS1_20primitive_iterator_tES2_
FN:12863,12867,_ZN8nlohmann16json_abi_v3_11_36detail20primitive_iterator_tppEv
FN:13036,13068,_ZN8nlohmann16json_abi_v3_11_36detail9iter_implINS0_10basic_jsonISt3mapSt6vectorNSt7__cxx1112basic_stringIcSt11char_traitsIcESaIcEEEblmdSaNS0_14adl_serializerES5_IhSaIhEEvEEEC2EPSF_
FN:13111,13113,_ZN8nlohmann16json_abi_v3_11_36detail9iter_implINS0_10basic_jsonISt3mapSt6vectorNSt7__cxx1112basic_stringIcSt11char_traitsIcESaIcEEEblmdSaNS0_14adl_serializerES5_IhSaIhEEvEEEC2ERKSG_
FN:13133,13171,_ZN8nlohmann16json_abi_v3_11_36detail9iter_implINS0_10basic_jsonISt3mapSt6vectorNSt7__cxx1112basic_stringIcSt11char_traitsIcESaIcEEEblmdSaNS0_14adl_serializerES5_IhSaIhEEvEEE9set_beginEv
FN:13177,13209,_ZN8nlohmann16json_abi_v3_11_36detail9iter_implINS0_10basic_jsonISt3mapSt6vectorNSt7__cxx1112basic_stringIcSt11char_traitsIcESaIcEEEblmdSaNS0_14adl_serializerES5_IhSaIhEEvEEE7set_endEv
FN:13216,13254,_ZNK8nlohmann16json_abi_v3_11_36detail9iter_implINS0_10basic_jsonISt3mapSt6vectorNSt7__cxx1112basic_stringIcSt11char_traitsIcESaIcEEEblmdSaNS0_14adl_serializerES5_IhSaIhEEvEEEdeEv
FN:13260,13296,_ZNK8nlohmann16json_abi_v3_11_36detail9iter_implINS0_10basic_jsonISt3mapSt6vectorNSt7__cxx1112basic_stringIcSt11char_traitsIcESaIcEEEblmdSaNS0_14adl_serializerES5_IhSaIhEEvEEEptEv
FN:13313,13347,_ZN8nlohmann16json_abi_v3_11_36detail9iter_implINS0_10basic_jsonISt3mapSt6vectorNSt7__cxx1112basic_stringIcSt11char_traitsIcESaIcEEEblmdSaNS0_14adl_serializerES5_IhSaIhEEvEEEppEv
FN:13405,13434,_ZNK8nlohmann16json_abi_v3_11_36detail9iter_implINS0_10basic_jsonISt3mapSt6vectorNSt7__cxx1112basic_stringIcSt11char_traitsIcESaIcEEEblmdSaNS0_14adl_serializerES5_IhSaIhEEvEEEeqISG_LDnEEEbRKT_
FN:13441,13444,_ZNK8nlohmann16json_abi_v3_11_36detail9iter_implINS0_10basic_jsonISt3mapSt6vectorNSt7__cxx1112basic_stringIcSt11char_traitsIcESaIcEEEblmdSaNS0_14adl_serializerES5_IhSaIhEEvEEEneISG_LDnEEEbRKT_
FN:14918,14925,_ZNK8nlohmann16json_abi_v3_11_36detail8json_refINS0_10basic_jsonISt3mapSt6vectorNSt7__cxx1112basic_stringIcSt11char_traitsIcESaIcEEEblmdSaNS0_14adl_serializerES5_IhSaIhEEvEEE15moved_or_copiedEv
FN:14927,14930,_ZNK8nlohmann16json_abi_v3_11_36detail8json_refINS0_10basic_jsonISt3mapSt6vectorNSt7__cxx1112basic_stringIcSt11char_traitsIcESaIcEEEblmdSaNS0_14adl_serializerES5_IhSaIhEEvEEEdeEv
FN:14932,14935,_ZNK8nlohmann16json_abi_v3_11_36detail8json_refINS0_10basic_jsonISt3mapSt6vectorNSt7__cxx1112basic_stringIcSt11char_traitsIcESaIcEEEblmdSaNS0_14adl_serializerES5_IhSaIhEEvEEEptEv
FN:15016,15016,_ZN8nlohmann16json_abi_v3_11_36detail23output_adapter_protocolIcED0Ev
FN:15016,15016,_ZN8nlohmann16json_abi_v3_11_36detail23output_adapter_protocolIcED2Ev
FN:15018,15018,_ZN8nlohmann16json_abi_v3_11_36detail23output_adapter_protocolIcEC2Ev
FN:15059,15061,_ZN8nlohmann16json_abi_v3_11_36detail21output_stream_adapterIcEC2ERSo
FN:15063,15066,_ZN8nlohmann16json_abi_v3_11_36detail21output_stream_adapterIcE15write_characterEc
FN:15069,15072,_ZN8nlohmann16json_abi_v3_11_36detail21output_stream_adapterIcE16write_charactersEPKcm
FN:15084,15086,_ZN8nlohmann16json_abi_v3_11_36detail21output_string_adapterIcNSt7__cxx1112basic_stringIcSt11char_traitsIcESaIcEEEEC2ERS8_
FN:15088,15091,_ZN8nlohmann16json_abi_v3_11_36detail21output_string_adapterIcNSt7__cxx1112basic_stringIcSt11char_traitsIcESaIcEEEE15write_characterEc
FN:15094,15097,_ZN8nlohmann16json_abi_v3_11_36detail21output_string_adapterIcNSt7__cxx1112basic_stringIcSt11char_traitsIcESaIcEEEE16write_charactersEPKcm
FN:15112,15113,_ZN8nlohmann16json_abi_v3_11_36detail14output_adapterIcNSt7__cxx1112basic_stringIcSt11char_traitsIcESaIcEEEEC2ERSo
FN:15116,15117,_ZN8nlohmann16json_abi_v3_11_36detail14output_adapterIcNSt7__cxx1112basic_stringIcSt11char_traitsIcESaIcEEEEC2ERS8_
FN:15119,15122,_ZN8nlohmann16json_abi_v3_11_36detail14output_adapterIcNSt7__cxx1112basic_stringIcSt11char_traitsIcESaIcEEEEcvSt10shared_ptrINS1_23output_adapter_protocolIcEEEEv
FN:16931,16934,_ZN8nlohmann16json_abi_v3_11_36detail13binary_writerINS0_10basic_jsonISt3mapSt6vectorNSt7__cxx1112basic_stringIcSt11char_traitsIcESaIcEEEblmdSaNS0_14adl_serializerES5_IhSaIhEEvEEcE12to_char_typeIccLPv0EEEcT_
FN:17023,17030,_ZN8nlohmann16json_abi_v3_11_36detail9dtoa_impl16reinterpret_bitsImdEET_T0_
FN:17039,17039,_ZN8nlohmann16json_abi_v3_11_36detail9dtoa_impl5diyfpC2Emi
FN:17045,17051,_ZN8nlohmann16json_abi_v3_11_36detail9dtoa_impl5diyfp3subERKS3_S5_
FN:17057,17116,_ZN8nlohmann16json_abi_v3_11_36detail9dtoa_impl5diyfp3mulERKS3_S5_
FN:17122,17133,_ZN8nlohmann16json_abi_v3_11_36detail9dtoa_impl5diyfp9normalizeES3_
FN:17139,17147,_ZN8nlohmann16json_abi_v3_11_36detail9dtoa_impl5diyfp12normalize_toERKS3_i
FN:17164,17229,_ZN8nlohmann16json_abi_v3_11_36detail9dtoa_impl18compute_boundariesIdEENS2_10boundariesET_
FN:17303,17461,_ZN8nlohmann16json_abi_v3_11_36detail9dtoa_impl36get_cached_power_for_binary_exponentEi
FN:17467,17519,_ZN8nlohmann16json_abi_v3_11_36detail9dtoa_impl18find_largest_pow10EjRj
FN:17521,17556,_ZN8nlohmann16json_abi_v3_11_36detail9dtoa_impl12grisu2_roundEPcimmmm
FN:17562,17795,_ZN8nlohmann16json_abi_v3_11_36detail9dtoa_impl16grisu2_digit_genEPcRiS4_NS2_5diyfpES5_S5_
FN:17803,17854,_ZN8nlohmann16json_abi_v3_11_36detail9dtoa_impl6grisu2EPcRiS4_NS2_5diyfpES5_S5_
FN:17863,17894,_ZN8nlohmann16json_abi_v3_11_36detail9dtoa_impl6grisu2IdEEvPcRiS5_T_
FN:17903,17942,_ZN8nlohmann16json_abi_v3_11_36detail9dtoa_impl15append_exponentEPci
FN:17955,18023,_ZN8nlohmann16json_abi_v3_11_36detail9dtoa_impl13format_bufferEPciiii
FN:18040,18090,_ZN8nlohmann16json_abi_v3_11_36detail8to_charsIdEEPcS3_PKcT_
FN:18143,18152,_ZN8nlohmann16json_abi_v3_11_36detail10serializerINS0_10basic_jsonISt3mapSt6vectorNSt7__cxx1112basic_stringIcSt11char_traitsIcESaIcEEEblmdSaNS0_14adl_serializerES5_IhSaIhEEvEEEC2ESt10shared_ptrINS1_23output_adapter_protocolIcEEEcNS1_15error_handler_tE
FN:18159,18159,_ZN8nlohmann16json_abi_v3_11_36detail10serializerINS0_10basic_jsonISt3mapSt6vectorNSt7__cxx1112basic_stringIcSt11char_traitsIcESaIcEEEblmdSaNS0_14adl_serializerES5_IhSaIhEEvEEED2Ev
FN:18183,18450,_ZN8nlohmann16json_abi_v3_11_36detail10serializerINS0_10basic_jsonISt3mapSt6vectorNSt7__cxx1112basic_stringIcSt11char_traitsIcESaIcEEEblmdSaNS0_14adl_serializerES5_IhSaIhEEvEEE4dumpERKSF_bbjj
FN:18467,18711,_ZN8nlohmann16json_abi_v3_11_36detail10serializerINS0_10basic_jsonISt3mapSt6vectorNSt7__cxx1112basic_stringIcSt11char_traitsIcESaIcEEEblmdSaNS0_14adl_serializerES5_IhSaIhEEvEEE12dump_escapedERKSB_b
FN:18722,18746,_ZN8nlohmann16json_abi_v3_11_36detail10serializerINS0_10basic_jsonISt3mapSt6vectorNSt7__cxx1112basic_stringIcSt11char_traitsIcESaIcEEEblmdSaNS0_14adl_serializerES5_IhSaIhEEvEEE12count_digitsEm
FN:18753,18760,_ZN8nlohmann16json_abi_v3_11_36detail10serializerINS0_10basic_jsonISt3mapSt6vectorNSt7__cxx1112basic_stringIcSt11char_traitsIcESaIcEEEblmdSaNS0_14adl_serializerES5_IhSaIhEEvEEE9hex_bytesEh
FN:18764,18767,_ZN8nlohmann16json_abi_v3_11_36detail10serializerINS0_10basic_jsonISt3mapSt6vectorNSt7__cxx1112basic_stringIcSt11char_traitsIcESaIcEEEblmdSaNS0_14adl_serializerES5_IhSaIhEEvEEE18is_negative_numberIlLi0EEEbT_
FN:18770,18773,_ZN8nlohmann16json_abi_v3_11_36detail10serializerINS0_10basic_jsonISt3mapSt6vectorNSt7__cxx1112basic_stringIcSt11char_traitsIcESaIcEEEblmdSaNS0_14adl_serializerES5_IhSaIhEEvEEE18is_negative_numberIhLi0EEEbT_
FN:18770,18773,_ZN8nlohmann16json_abi_v3_11_36detail10serializerINS0_10basic_jsonISt3mapSt6vectorNSt7__cxx1112basic_stringIcSt11char_traitsIcESaIcEEEblmdSaNS0_14adl_serializerES5_IhSaIhEEvEEE18is_negative_numberImLi0EEEbT_
FN:18790,18865,_ZN8nlohmann16json_abi_v3_11_36detail10serializerINS0_10basic_jsonISt3mapSt6vectorNSt7__cxx1112basic_stringIcSt11char_traitsIcESaIcEEEblmdSaNS0_14adl_serializerES5_IhSaIhEEvEEE12dump_integerIhLi0EEEvT_
FN:18790,18865,_ZN8nlohmann16json_abi_v3_11_36detail10serializerINS0_10basic_jsonISt3mapSt6vectorNSt7__cxx1112basic_stringIcSt11char_traitsIcESaIcEEEblmdSaNS0_14adl_serializerES5_IhSaIhEEvEEE12dump_integerIlLi0EEEvT_
FN:18790,18865,_ZN8nlohmann16json_abi_v3_11_36detail10serializerINS0_10basic_jsonISt3mapSt6vectorNSt7__cxx1112basic_stringIcSt11char_traitsIcESaIcEEEblmdSaNS0_14adl_serializerES5_IhSaIhEEvEEE12dump_integerImLi0EEEvT_
FN:18875,18894,_ZN8nlohmann16json_abi_v3_11_36detail10serializerINS0_10basic_jsonISt3mapSt6vectorNSt7__cxx1112basic_stringIcSt11char_traitsIcESaIcEEEblmdSaNS0_14adl_serializerES5_IhSaIhEEvEEE10dump_floatEd
FN:18896,18902,_ZN8nlohmann16json_abi_v3_11_36detail10serializerINS0_10basic_jsonISt3mapSt6vectorNSt7__cxx1112basic_stringIcSt11char_traitsIcESaIcEEEblmdSaNS0_14adl_serializerES5_IhSaIhEEvEEE10dump_floatEdSt17integral_constantIbLb1EE
FN:18976,19009,_ZN8nlohmann16json_abi_v3_11_36detail10serializerINS0_10basic_jsonISt3mapSt6vectorNSt7__cxx1112basic_stringIcSt11char_traitsIcESaIcEEEblmdSaNS0_14adl_serializerES5_IhSaIhEEvEEE6decodeERhRjh
FN:19031,19035,_ZN8nlohmann16json_abi_v3_11_36detail10serializerINS0_10basic_jsonISt3mapSt6vectorNSt7__cxx1112basic_stringIcSt11char_traitsIcESaIcEEEblmdSaNS0_14adl_serializerES5_IhSaIhEEvEEE11remove_signEl
FN:19502,19511,_ZN8nlohmann16json_abi_v3_11_310basic_jsonISt3mapSt6vectorNSt7__cxx1112basic_stringIcSt11char_traitsIcESaIcEEEblmdSaNS0_14adl_serializerES3_IhSaIhEEvE6parserINS0_6detail20input_stream_adapterEEENSF_6parserISD_T_EESI_St8functionIFbiNSF_13parse_event_tERSD_EEbb
FN:19748,19761,_ZN8nlohmann16json_abi_v3_11_310basic_jsonISt3mapSt6vectorNSt7__cxx1112basic_stringIcSt11char_traitsIcESaIcEEEblmdSaNS0_14adl_serializerES3_IhSaIhEEvE6createINS0_27byte_container_with_subtypeISC_EEJEEEPT_DpOT0_
FN:19748,19761,_ZN8nlohmann16json_abi_v3_11_310basic_jsonISt3mapSt6vectorNSt7__cxx1112basic_stringIcSt11char_traitsIcESaIcEEEblmdSaNS0_14adl_serializerES3_IhSaIhEEvE6createINS0_27byte_container_with_subtypeISC_EEJRKSG_EEEPT_DpOT0_
FN:19748,19761,_ZN8nlohmann16json_abi_v3_11_310basic_jsonISt3mapSt6vectorNSt7__cxx1112basic_stringIcSt11char_traitsIcESaIcEEEblmdSaNS0_14adl_serializerES3_IhSaIhEEvE6createIS2_IS9_SD_St4lessIvESaISt4pairIKS9_SD_EEEJEEEPT_DpOT0_
FN:19748,19761,_ZN8nlohmann16json_abi_v3_11_310basic_jsonISt3mapSt6vectorNSt7__cxx1112basic_stringIcSt11char_traitsIcESaIcEEEblmdSaNS0_14adl_serializerES3_IhSaIhEEvE6createIS2_IS9_SD_St4lessIvESaISt4pairIKS9_SD_EEEJRKSL_EEEPT_DpOT0_
FN:19748,19761,_ZN8nlohmann16json_abi_v3_11_310basic_jsonISt3mapSt6vectorNSt7__cxx1112basic_stringIcSt11char_traitsIcESaIcEEEblmdSaNS0_14adl_serializerES3_IhSaIhEEvE6createIS3_ISD_SaISD_EEJEEEPT_DpOT0_
FN:19748,19761,_ZN8nlohmann16json_abi_v3_11_310basic_jsonISt3mapSt6vectorNSt7__cxx1112basic_stringIcSt11char_traitsIcESaIcEEEblmdSaNS0_14adl_serializerES3_IhSaIhEEvE6createIS3_ISD_SaISD_EEJPKNS0_6detail8json_refISD_EESL_EEEPT_DpOT0_
FN:19748,19761,_ZN8nlohmann16json_abi_v3_11_310basic_jsonISt3mapSt6vectorNSt7__cxx1112basic_stringIcSt11char_traitsIcESaIcEEEblmdSaNS0_14adl_serializerES3_IhSaIhEEvE6createIS3_ISD_SaISD_EEJRKSG_EEEPT_DpOT0_
FN:19748,19761,_ZN8nlohmann16json_abi_v3_11_310basic_jsonISt3mapSt6vectorNSt7__cxx1112basic_stringIcSt11char_traitsIcESaIcEEEblmdSaNS0_14adl_serializerES3_IhSaIhEEvE6createIS9_JRA1_KcEEEPT_DpOT0_
FN:19748,19761,_ZN8nlohmann16json_abi_v3_11_310basic_jsonISt3mapSt6vectorNSt7__cxx1112basic_stringIcSt11char_traitsIcESaIcEEEblmdSaNS0_14adl_serializerES3_IhSaIhEEvE6createIS9_JRKS9_EEEPT_DpOT0_
FN:19748,19761,_ZN8nlohmann16json_abi_v3_11_310basic_jsonISt3mapSt6vectorNSt7__cxx1112basic_stringIcSt11char_traitsIcESaIcEEEblmdSaNS0_14adl_serializerES3_IhSaIhEEvE6createIS9_JS9_EEEPT_DpOT0_
FN:19753,19753,_ZZN8nlohmann16json_abi_v3_11_310basic_jsonISt3mapSt6vectorNSt7__cxx1112basic_stringIcSt11char_traitsIcESaIcEEEblmdSaNS0_14adl_serializerES3_IhSaIhEEvE6createINS0_27byte_container_with_subtypeISC_EEJEEEPT_DpOT0_ENKUlPSG_E_clESM_
FN:19753,19753,_ZZN8nlohmann16json_abi_v3_11_310basic_jsonISt3mapSt6vectorNSt7__cxx1112basic_stringIcSt11char_traitsIcESaIcEEEblmdSaNS0_14adl_serializerES3_IhSaIhEEvE6createINS0_27byte_container_with_subtypeISC_EEJRKSG_EEEPT_DpOT0_ENKUlPSG_E_clESO_
FN:19753,19753,_ZZN8nlohmann16json_abi_v3_11_310basic_jsonISt3mapSt6vectorNSt7__cxx1112basic_stringIcSt11char_traitsIcESaIcEEEblmdSaNS0_14adl_serializerES3_IhSaIhEEvE6createIS2_IS9_SD_St4lessIvESaISt4pairIKS9_SD_EEEJEEEPT_DpOT0_ENKUlPSL_E_clESR_
FN:19753,19753,_ZZN8nlohmann16json_abi_v3_11_310basic_jsonISt3mapSt6vectorNSt7__cxx1112basic_stringIcSt11char_traitsIcESaIcEEEblmdSaNS0_14adl_serializerES3_IhSaIhEEvE6createIS2_IS9_SD_St4lessIvESaISt4pairIKS9_SD_EEEJRKSL_EEEPT_DpOT0_ENKUlPSL_E_clEST_
FN:19753,19753,_ZZN8nlohmann16json_abi_v3_11_310basic_jsonISt3mapSt6vectorNSt7__cxx1112basic_stringIcSt11char_traitsIcESaIcEEEblmdSaNS0_14adl_serializerES3_IhSaIhEEvE6createIS3_ISD_SaISD_EEJEEEPT_DpOT0_ENKUlPSG_E_clESM_
FN:19753,19753,_ZZN8nlohmann16json_abi_v3_11_310basic_jsonISt3mapSt6vectorNSt7__cxx1112basic_stringIcSt11char_traitsIcESaIcEEEblmdSaNS0_14adl_serializerES3_IhSaIhEEvE6createIS3_ISD_SaISD_EEJPKNS0_6detail8json_refISD_EESL_EEEPT_DpOT0_ENKUlPSG_E_clESR_
FN:19753,19753,_ZZN8nlohmann16json_abi_v3_11_310basic_jsonISt3mapSt6vectorNSt7__cxx1112basic_stringIcSt11char_traitsIcESaIcEEEblmdSaNS0_14adl_serializerES3_IhSaIhEEvE6createIS3_ISD_SaISD_EEJRKSG_EEEPT_DpOT0_ENKUlPSG_E_clESO_
FN:19753,19753,_ZZN8nlohmann16json_abi_v3_11_310basic_jsonISt3mapSt6vectorNSt7__cxx1112basic_stringIcSt11char_traitsIcESaIcEEEblmdSaNS0_14adl_serializerES3_IhSaIhEEvE6createIS9_JRA1_KcEEEPT_DpOT0_ENKUlPS9_E_clESN_
FN:19753,19753,_ZZN8nlohmann16json_abi_v3_11_310basic_jsonISt3mapSt6vectorNSt7__cxx1112basic_stringIcSt11char_traitsIcESaIcEEEblmdSaNS0_14adl_serializerES3_IhSaIhEEvE6createIS9_JRKS9_EEEPT_DpOT0_ENKUlPS9_E_clESM_
FN:19753,19753,_ZZN8nlohmann16json_abi_v3_11_310basic_jsonISt3mapSt6vectorNSt7__cxx1112basic_stringIcSt11char_traitsIcESaIcEEEblmdSaNS0_14adl_serializerES3_IhSaIhEEvE6createIS9_JS9_EEEPT_DpOT0_ENKUlPS9_E_clESK_
FN:19815,19815,_ZN8nlohmann16json_abi_v3_11_310basic_jsonISt3mapSt6vectorNSt7__cxx1112basic_stringIcSt11char_traitsIcESaIcEEEblmdSaNS0_14adl_serializerES3_IhSaIhEEvE10json_valueC2Eb
FN:19817,19817,_ZN8nlohmann16json_abi_v3_11_310basic_jsonISt3mapSt6vectorNSt7__cxx1112basic_stringIcSt11char_traitsIcESaIcEEEblmdSaNS0_14adl_serializerES3_IhSaIhEEvE10json_valueC2El
FN:19819,19819,_ZN8nlohmann16json_abi_v3_11_310basic_jsonISt3mapSt6vectorNSt7__cxx1112basic_stringIcSt11char_traitsIcESaIcEEEblmdSaNS0_14adl_serializerES3_IhSaIhEEvE10json_valueC2Em
FN:19821,19821,_ZN8nlohmann16json_abi_v3_11_310basic_jsonISt3mapSt6vectorNSt7__cxx1112basic_stringIcSt11char_traitsIcESaIcEEEblmdSaNS0_14adl_serializerES3_IhSaIhEEvE10json_valueC2Ed
FN:19823,19892,_ZN8nlohmann16json_abi_v3_11_310basic_jsonISt3mapSt6vectorNSt7__cxx1112basic_stringIcSt11char_traitsIcESaIcEEEblmdSaNS0_14adl_serializerES3_IhSaIhEEvE10json_valueC2ENS0_6detail7value_tE
FN:19895,19895,_ZN8nlohmann16json_abi_v3_11_310basic_jsonISt3mapSt6vectorNSt7__cxx1112basic_stringIcSt11char_traitsIcESaIcEEEblmdSaNS0_14adl_serializerES3_IhSaIhEEvE10json_valueC2ERKS9_
FN:19898,19898,_ZN8nlohmann16json_abi_v3_11_310basic_jsonISt3mapSt6vectorNSt7__cxx1112basic_stringIcSt11char_traitsIcESaIcEEEblmdSaNS0_14adl_serializerES3_IhSaIhEEvE10json_valueC2EOS9_
FN:19901,19901,_ZN8nlohmann16json_abi_v3_11_310basic_jsonISt3mapSt6vectorNSt7__cxx1112basic_stringIcSt11char_traitsIcESaIcEEEblmdSaNS0_14adl_serializerES3_IhSaIhEEvE10json_valueC2ERKS2_IS9_SD_St4lessIvESaISt4pairIKS9_SD_EEE
FN:19907,19907,_ZN8nlohmann16json_abi_v3_11_310basic_jsonISt3mapSt6vectorNSt7__cxx1112basic_stringIcSt11char_traitsIcESaIcEEEblmdSaNS0_14adl_serializerES3_IhSaIhEEvE10json_valueC2ERKS3_ISD_SaISD_EE
FN:19919,19919,_ZN8nlohmann16json_abi_v3_11_310basic_jsonISt3mapSt6vectorNSt7__cxx1112basic_stringIcSt11char_traitsIcESaIcEEEblmdSaNS0_14adl_serializerES3_IhSaIhEEvE10json_valueC2ERKNS0_27byte_container_with_subtypeISC_EE
FN:19924,20030,_ZN8nlohmann16json_abi_v3_11_310basic_jsonISt3mapSt6vectorNSt7__cxx1112basic_stringIcSt11char_traitsIcESaIcEEEblmdSaNS0_14adl_serializerES3_IhSaIhEEvE10json_value7destroyENS0_6detail7value_tE
FN:20052,20071,_ZNK8nlohmann16json_abi_v3_11_310basic_jsonISt3mapSt6vectorNSt7__cxx1112basic_stringIcSt11char_traitsIcESaIcEEEblmdSaNS0_14adl_serializerES3_IhSaIhEEvE16assert_invariantEb
FN:20073,20108,_ZN8nlohmann16json_abi_v3_11_310basic_jsonISt3mapSt6vectorNSt7__cxx1112basic_stringIcSt11char_traitsIcESaIcEEEblmdSaNS0_14adl_serializerES3_IhSaIhEEvE11set_parentsEv
FN:20123,20159,_ZN8nlohmann16json_abi_v3_11_310basic_jsonISt3mapSt6vectorNSt7__cxx1112basic_stringIcSt11char_traitsIcESaIcEEEblmdSaNS0_14adl_serializerES3_IhSaIhEEvE10set_parentERSD_m
FN:20185,20189,_ZN8nlohmann16json_abi_v3_11_310basic_jsonISt3mapSt6vectorNSt7__cxx1112basic_stringIcSt11char_traitsIcESaIcEEEblmdSaNS0_14adl_serializerES3_IhSaIhEEvEC2ENS0_6detail7value_tE
FN:20193,20197,_ZN8nlohmann16json_abi_v3_11_310basic_jsonISt3mapSt6vectorNSt7__cxx1112basic_stringIcSt11char_traitsIcESaIcEEEblmdSaNS0_14adl_serializerES3_IhSaIhEEvEC2EDn
FN:20205,20212,_ZN8nlohmann16json_abi_v3_11_310basic_jsonISt3mapSt6vectorNSt7__cxx1112basic_stringIcSt11char_traitsIcESaIcEEEblmdSaNS0_14adl_serializerES3_IhSaIhEEvEC2IRS9_S9_Li0EEEOT_
FN:20205,20212,_ZN8nlohmann16json_abi_v3_11_310basic_jsonISt3mapSt6vectorNSt7__cxx1112basic_stringIcSt11char_traitsIcESaIcEEEblmdSaNS0_14adl_serializerES3_IhSaIhEEvEC2IRbbLi0EEEOT_
FN:20205,20212,_ZN8nlohmann16json_abi_v3_11_310basic_jsonISt3mapSt6vectorNSt7__cxx1112basic_stringIcSt11char_traitsIcESaIcEEEblmdSaNS0_14adl_serializerES3_IhSaIhEEvEC2IRddLi0EEEOT_
FN:20205,20212,_ZN8nlohmann16json_abi_v3_11_310basic_jsonISt3mapSt6vectorNSt7__cxx1112basic_stringIcSt11char_traitsIcESaIcEEEblmdSaNS0_14adl_serializerES3_IhSaIhEEvEC2IRllLi0EEEOT_
FN:20205,20212,_ZN8nlohmann16json_abi_v3_11_310basic_jsonISt3mapSt6vectorNSt7__cxx1112basic_stringIcSt11char_traitsIcESaIcEEEblmdSaNS0_14adl_serializerES3_IhSaIhEEvEC2IRmmLi0EEEOT_
FN:20205,20212,_ZN8nlohmann16json_abi_v3_11_310basic_jsonISt3mapSt6vectorNSt7__cxx1112basic_stringIcSt11char_traitsIcESaIcEEEblmdSaNS0_14adl_serializerES3_IhSaIhEEvEC2IS9_S9_Li0EEEOT_
FN:20205,20212,_ZN8nlohmann16json_abi_v3_11_310basic_jsonISt3mapSt6vectorNSt7__cxx1112basic_stringIcSt11char_traitsIcESaIcEEEblmdSaNS0_14adl_serializerES3_IhSaIhEEvEC2IbbLi0EEEOT_
FN:20205,20212,_ZN8nlohmann16json_abi_v3_11_310basic_jsonISt3mapSt6vectorNSt7__cxx1112basic_stringIcSt11char_traitsIcESaIcEEEblmdSaNS0_14adl_serializerES3_IhSaIhEEvEC2IddLi0EEEOT_
FN:20272,20326,_ZN8nlohmann16json_abi_v3_11_310basic_jsonISt3mapSt6vectorNSt7__cxx1112basic_stringIcSt11char_traitsIcESaIcEEEblmdSaNS0_14adl_serializerES3_IhSaIhEEvEC2ESt16initializer_listINS0_6detail8json_refISD_EEEbNSF_7value_tE
FN:20279,20279,_ZZN8nlohmann16json_abi_v3_11_310basic_jsonISt3mapSt6vectorNSt7__cxx1112basic_stringIcSt11char_traitsIcESaIcEEEblmdSaNS0_14adl_serializerES3_IhSaIhEEvEC4ESt16initializer_listINS0_6detail8json_refISD_EEEbNSF_7value_tEENKUlRKSH_E_clESL_
FN:20375,20378,_ZN8nlohmann16json_abi_v3_11_310basic_jsonISt3mapSt6vectorNSt7__cxx1112basic_stringIcSt11char_traitsIcESaIcEEEblmdSaNS0_14adl_serializerES3_IhSaIhEEvE5arrayESt16initializer_listINS0_6detail8json_refISD_EEE
FN:20511,20511,_ZN8nlohmann16json_abi_v3_11_310basic_jsonISt3mapSt6vectorNSt7__cxx1112basic_stringIcSt11char_traitsIcESaIcEEEblmdSaNS0_14adl_serializerES3_IhSaIhEEvEC2INS0_6detail8json_refISD_EELi0EEERKT_
FN:20515,20580,_ZN8nlohmann16json_abi_v3_11_310basic_jsonISt3mapSt6vectorNSt7__cxx1112basic_stringIcSt11char_traitsIcESaIcEEEblmdSaNS0_14adl_serializerES3_IhSaIhEEvEC2ERKSD_
FN:20584,20597,_ZN8nlohmann16json_abi_v3_11_310basic_jsonISt3mapSt6vectorNSt7__cxx1112basic_stringIcSt11char_traitsIcESaIcEEEblmdSaNS0_14adl_serializerES3_IhSaIhEEvEC2EOSD_
FN:20601,20620,_ZN8nlohmann16json_abi_v3_11_310basic_jsonISt3mapSt6vectorNSt7__cxx1112basic_stringIcSt11char_traitsIcESaIcEEEblmdSaNS0_14adl_serializerES3_IhSaIhEEvEaSESD_
FN:20624,20627,_ZN8nlohmann16json_abi_v3_11_310basic_jsonISt3mapSt6vectorNSt7__cxx1112basic_stringIcSt11char_traitsIcESaIcEEEblmdSaNS0_14adl_serializerES3_IhSaIhEEvED2Ev
FN:20642,20660,_ZNK8nlohmann16json_abi_v3_11_310basic_jsonISt3mapSt6vectorNSt7__cxx1112basic_stringIcSt11char_traitsIcESaIcEEEblmdSaNS0_14adl_serializerES3_IhSaIhEEvE4dumpEicbNS0_6detail15error_handler_tE
FN:20664,20667,_ZNK8nlohmann16json_abi_v3_11_310basic_jsonISt3mapSt6vectorNSt7__cxx1112basic_stringIcSt11char_traitsIcESaIcEEEblmdSaNS0_14adl_serializerES3_IhSaIhEEvE4typeEv
FN:20678,20681,_ZNK8nlohmann16json_abi_v3_11_310basic_jsonISt3mapSt6vectorNSt7__cxx1112basic_stringIcSt11char_traitsIcESaIcEEEblmdSaNS0_14adl_serializerES3_IhSaIhEEvE13is_structuredEv
FN:20685,20688,_ZNK8nlohmann16json_abi_v3_11_310basic_jsonISt3mapSt6vectorNSt7__cxx1112basic_stringIcSt11char_traitsIcESaIcEEEblmdSaNS0_14adl_serializerES3_IhSaIhEEvE7is_nullEv
FN:20699,20702,_ZNK8nlohmann16json_abi_v3_11_310basic_jsonISt3mapSt6vectorNSt7__cxx1112basic_stringIcSt11char_traitsIcESaIcEEEblmdSaNS0_14adl_serializerES3_IhSaIhEEvE9is_numberEv
FN:20706,20709,_ZNK8nlohmann16json_abi_v3_11_310basic_jsonISt3mapSt6vectorNSt7__cxx1112basic_stringIcSt11char_traitsIcESaIcEEEblmdSaNS0_14adl_serializerES3_IhSaIhEEvE17is_number_integerEv
FN:20713,20716,_ZNK8nlohmann16json_abi_v3_11_310basic_jsonISt3mapSt6vectorNSt7__cxx1112basic_stringIcSt11char_traitsIcESaIcEEEblmdSaNS0_14adl_serializerES3_IhSaIhEEvE18is_number_unsignedEv
FN:20720,20723,_ZNK8nlohmann16json_abi_v3_11_310basic_jsonISt3mapSt6vectorNSt7__cxx1112basic_stringIcSt11char_traitsIcESaIcEEEblmdSaNS0_14adl_serializerES3_IhSaIhEEvE15is_number_floatEv
FN:20727,20730,_ZNK8nlohmann16json_abi_v3_11_310basic_jsonISt3mapSt6vectorNSt7__cxx1112basic_stringIcSt11char_traitsIcESaIcEEEblmdSaNS0_14adl_serializerES3_IhSaIhEEvE9is_objectEv
FN:20734,20737,_ZNK8nlohmann16json_abi_v3_11_310basic_jsonISt3mapSt6vectorNSt7__cxx1112basic_stringIcSt11char_traitsIcESaIcEEEblmdSaNS0_14adl_serializerES3_IhSaIhEEvE8is_arrayEv
FN:20741,20744,_ZNK8nlohmann16json_abi_v3_11_310basic_jsonISt3mapSt6vectorNSt7__cxx1112basic_stringIcSt11char_traitsIcESaIcEEEblmdSaNS0_14adl_serializerES3_IhSaIhEEvE9is_stringEv
FN:20748,20751,_ZNK8nlohmann16json_abi_v3_11_310basic_jsonISt3mapSt6vectorNSt7__cxx1112basic_stringIcSt11char_traitsIcESaIcEEEblmdSaNS0_14adl_serializerES3_IhSaIhEEvE9is_binaryEv
FN:20755,20758,_ZNK8nlohmann16json_abi_v3_11_310basic_jsonISt3mapSt6vectorNSt7__cxx1112basic_stringIcSt11char_traitsIcESaIcEEEblmdSaNS0_14adl_serializerES3_IhSaIhEEvE12is_discardedEv
FN:20762,20765,_ZNK8nlohmann16json_abi_v3_11_310basic_jsonISt3mapSt6vectorNSt7__cxx1112basic_stringIcSt11char_traitsIcESaIcEEEblmdSaNS0_14adl_serializerES3_IhSaIhEEvEcvNS0_6detail7value_tEEv
FN:20816,20819,_ZNK8nlohmann16json_abi_v3_11_310basic_jsonISt3mapSt6vectorNSt7__cxx1112basic_stringIcSt11char_traitsIcESaIcEEEblmdSaNS0_14adl_serializerES3_IhSaIhEEvE12get_impl_ptrEPKS9_
FN:20840,20843,_ZNK8nlohmann16json_abi_v3_11_310basic_jsonISt3mapSt6vectorNSt7__cxx1112basic_stringIcSt11char_traitsIcESaIcEEEblmdSaNS0_14adl_serializerES3_IhSaIhEEvE12get_impl_ptrEPKl
FN:20852,20855,_ZNK8nlohmann16json_abi_v3_11_310basic_jsonISt3mapSt6vectorNSt7__cxx1112basic_stringIcSt11char_traitsIcESaIcEEEblmdSaNS0_14adl_serializerES3_IhSaIhEEvE12get_impl_ptrEPKm
FN:20864,20867,_ZNK8nlohmann16json_abi_v3_11_310basic_jsonISt3mapSt6vectorNSt7__cxx1112basic_stringIcSt11char_traitsIcESaIcEEEblmdSaNS0_14adl_serializerES3_IhSaIhEEvE12get_impl_ptrEPKd
FN:20926,20930,_ZNK8nlohmann16json_abi_v3_11_310basic_jsonISt3mapSt6vectorNSt7__cxx1112basic_stringIcSt11char_traitsIcESaIcEEEblmdSaNS0_14adl_serializerES3_IhSaIhEEvE7get_ptrIPKS9_Li0EEEDTcldtclL_ZSt7declvalIRKSD_EDTcl9__declvalIT_ELi0EEEvEE12get_impl_ptrcl7declvalISK_EEEEv
FN:20926,20930,_ZNK8nlohmann16json_abi_v3_11_310basic_jsonISt3mapSt6vectorNSt7__cxx1112basic_stringIcSt11char_traitsIcESaIcEEEblmdSaNS0_14adl_serializerES3_IhSaIhEEvE7get_ptrIPKdLi0EEEDTcldtclL_ZSt7declvalIRKSD_EDTcl9__declvalIT_ELi0EEEvEE12get_impl_ptrcl7declvalISK_EEEEv
FN:20926,20930,_ZNK8nlohmann16json_abi_v3_11_310basic_jsonISt3mapSt6vectorNSt7__cxx1112basic_stringIcSt11char_traitsIcESaIcEEEblmdSaNS0_14adl_serializerES3_IhSaIhEEvE7get_ptrIPKlLi0EEEDTcldtclL_ZSt7declvalIRKSD_EDTcl9__declvalIT_ELi0EEEvEE12get_impl_ptrcl7declvalISK_EEEEv
FN:20926,20930,_ZNK8nlohmann16json_abi_v3_11_310basic_jsonISt3mapSt6vectorNSt7__cxx1112basic_stringIcSt11char_traitsIcESaIcEEEblmdSaNS0_14adl_serializerES3_IhSaIhEEvE7get_ptrIPKmLi0EEEDTcldtclL_ZSt7declvalIRKSD_EDTcl9__declvalIT_ELi0EEEvEE12get_impl_ptrcl7declvalISK_EEEEv
FN:20976,20982,_ZNK8nlohmann16json_abi_v3_11_310basic_jsonISt3mapSt6vectorNSt7__cxx1112basic_stringIcSt11char_traitsIcESaIcEEEblmdSaNS0_14adl_serializerES3_IhSaIhEEvE8get_implIS9_Li0EEET_NS0_6detail12priority_tagILj0EEE
FN:20976,20982,_ZNK8nlohmann16json_abi_v3_11_310basic_jsonISt3mapSt6vectorNSt7__cxx1112basic_stringIcSt11char_traitsIcESaIcEEEblmdSaNS0_14adl_serializerES3_IhSaIhEEvE8get_implIdLi0EEET_NS0_6detail12priority_tagILj0EEE
FN:21114,21124,_ZNK8nlohmann16json_abi_v3_11_310basic_jsonISt3mapSt6vectorNSt7__cxx1112basic_stringIcSt11char_traitsIcESaIcEEEblmdSaNS0_14adl_serializerES3_IhSaIhEEvE3getIS9_S9_EEDTcldtclL_ZSt7declvalIRKSD_EDTcl9__declvalIT_ELi0EEEvEE8get_implIT0_EcvNS0_6detail12priority_tagILj4EEEilEEEv
FN:21114,21124,_ZNK8nlohmann16json_abi_v3_11_310basic_jsonISt3mapSt6vectorNSt7__cxx1112basic_stringIcSt11char_traitsIcESaIcEEEblmdSaNS0_14adl_serializerES3_IhSaIhEEvE3getIddEEDTcldtclL_ZSt7declvalIRKSD_EDTcl9__declvalIT_ELi0EEEvEE8get_implIT0_EcvNS0_6detail12priority_tagILj4EEEilEEEv
FN:21266,21270,_ZNK8nlohmann16json_abi_v3_11_310basic_jsonISt3mapSt6vectorNSt7__cxx1112basic_stringIcSt11char_traitsIcESaIcEEEblmdSaNS0_14adl_serializerES3_IhSaIhEEvEcvT_IS9_Li0EEEv
FN:21266,21270,_ZNK8nlohmann16json_abi_v3_11_310basic_jsonISt3mapSt6vectorNSt7__cxx1112basic_stringIcSt11char_traitsIcESaIcEEEblmdSaNS0_14adl_serializerES3_IhSaIhEEvEcvT_IdLi0EEEv
FN:21430,21472,_ZN8nlohmann16json_abi_v3_11_310basic_jsonISt3mapSt6vectorNSt7__cxx1112basic_stringIcSt11char_traitsIcESaIcEEEblmdSaNS0_14adl_serializerES3_IhSaIhEEvEixEm
FN:21476,21485,_ZNK8nlohmann16json_abi_v3_11_310basic_jsonISt3mapSt6vectorNSt7__cxx1112basic_stringIcSt11char_traitsIcESaIcEEEblmdSaNS0_14adl_serializerES3_IhSaIhEEvEixEm
FN:21489,21507,_ZN8nlohmann16json_abi_v3_11_310basic_jsonISt3mapSt6vectorNSt7__cxx1112basic_stringIcSt11char_traitsIcESaIcEEEblmdSaNS0_14adl_serializerES3_IhSaIhEEvEixES9_
FN:21511,21522,_ZNK8nlohmann16json_abi_v3_11_310basic_jsonISt3mapSt6vectorNSt7__cxx1112basic_stringIcSt11char_traitsIcESaIcEEEblmdSaNS0_14adl_serializerES3_IhSaIhEEvEixERKS9_
FN:21527,21530,_ZN8nlohmann16json_abi_v3_11_310basic_jsonISt3mapSt6vectorNSt7__cxx1112basic_stringIcSt11char_traitsIcESaIcEEEblmdSaNS0_14adl_serializerES3_IhSaIhEEvEixIKcEERSD_PT_
FN:21533,21536,_ZNK8nlohmann16json_abi_v3_11_310basic_jsonISt3mapSt6vectorNSt7__cxx1112basic_stringIcSt11char_traitsIcESaIcEEEblmdSaNS0_14adl_serializerES3_IhSaIhEEvEixIKcEERKSD_PT_
FN:21799,21862,_ZN8nlohmann16json_abi_v3_11_310basic_jsonISt3mapSt6vectorNSt7__cxx1112basic_stringIcSt11char_traitsIcESaIcEEEblmdSaNS0_14adl_serializerES3_IhSaIhEEvE5eraseINS0_6detail9iter_implISD_EELi0EEET_SI_
FN:22108,22111,_ZNK8nlohmann16json_abi_v3_11_310basic_jsonISt3mapSt6vectorNSt7__cxx1112basic_stringIcSt11char_traitsIcESaIcEEEblmdSaNS0_14adl_serializerES3_IhSaIhEEvE8containsIRA10_KcLi0EEEbOT_
FN:22108,22111,_ZNK8nlohmann16json_abi_v3_11_310basic_jsonISt3mapSt6vectorNSt7__cxx1112basic_stringIcSt11char_traitsIcESaIcEEEblmdSaNS0_14adl_serializerES3_IhSaIhEEvE8containsIRA19_KcLi0EEEbOT_
FN:22108,22111,_ZNK8nlohmann16json_abi_v3_11_310basic_jsonISt3mapSt6vectorNSt7__cxx1112basic_stringIcSt11char_traitsIcESaIcEEEblmdSaNS0_14adl_serializerES3_IhSaIhEEvE8containsIRA20_KcLi0EEEbOT_
FN:22108,22111,_ZNK8nlohmann16json_abi_v3_11_310basic_jsonISt3mapSt6vectorNSt7__cxx1112basic_stringIcSt11char_traitsIcESaIcEEEblmdSaNS0_14adl_serializerES3_IhSaIhEEvE8containsIRA21_KcLi0EEEbOT_
FN:22108,22111,_ZNK8nlohmann16json_abi_v3_11_310basic_jsonISt3mapSt6vectorNSt7__cxx1112basic_stringIcSt11char_traitsIcESaIcEEEblmdSaNS0_14adl_serializerES3_IhSaIhEEvE8containsIRA23_KcLi0EEEbOT_
FN:22108,22111,_ZNK8nlohmann16json_abi_v3_11_310basic_jsonISt3mapSt6vectorNSt7__cxx1112basic_stringIcSt11char_traitsIcESaIcEEEblmdSaNS0_14adl_serializerES3_IhSaIhEEvE8containsIRA8_KcLi0EEEbOT_
FN:22138,22143,_ZN8nlohmann16json_abi_v3_11_310basic_jsonISt3mapSt6vectorNSt7__cxx1112basic_stringIcSt11char_traitsIcESaIcEEEblmdSaNS0_14adl_serializerES3_IhSaIhEEvE5beginEv
FN:22163,22168,_ZN8nlohmann16json_abi_v3_11_310basic_jsonISt3mapSt6vectorNSt7__cxx1112basic_stringIcSt11char_traitsIcESaIcEEEblmdSaNS0_14adl_serializerES3_IhSaIhEEvE3endEv
FN:22315,22350,_ZNK8nlohmann16json_abi_v3_11_310basic_jsonISt3mapSt6vectorNSt7__cxx1112basic_stringIcSt11char_traitsIcESaIcEEEblmdSaNS0_14adl_serializerES3_IhSaIhEEvE4sizeEv
FN:22354,22384,_ZNK8nlohmann16json_abi_v3_11_310basic_jsonISt3mapSt6vectorNSt7__cxx1112basic_stringIcSt11char_traitsIcESaIcEEEblmdSaNS0_14adl_serializerES3_IhSaIhEEvE8max_sizeEv
FN:22491,22511,_ZN8nlohmann16json_abi_v3_11_310basic_jsonISt3mapSt6vectorNSt7__cxx1112basic_stringIcSt11char_traitsIcESaIcEEEblmdSaNS0_14adl_serializerES3_IhSaIhEEvE9push_backERKSD_
FN:23027,23040,_ZN8nlohmann16json_abi_v3_11_310basic_jsonISt3mapSt6vectorNSt7__cxx1112basic_stringIcSt11char_traitsIcESaIcEEEblmdSaNS0_14adl_serializerES3_IhSaIhEEvE18compares_unorderedERKSD_SF_b
FN:23156,23166,_ZN8nlohmann16json_abi_v3_11_3eqERKNS0_10basic_jsonISt3mapSt6vectorNSt7__cxx1112basic_stringIcSt11char_traitsIcESaIcEEEblmdSaNS0_14adl_serializerES3_IhSaIhEEvEESF_
FN:23172,23175,_ZN8nlohmann16json_abi_v3_11_3eqIbLi0EEEbRKNS0_10basic_jsonISt3mapSt6vectorNSt7__cxx1112basic_stringIcSt11char_traitsIcESaIcEEEblmdSaNS0_14adl_serializerES4_IhSaIhEEvEET_
FN:23345,23358,_ZN8nlohmann16json_abi_v3_11_3lsERSoRKNS0_10basic_jsonISt3mapSt6vectorNSt7__cxx1112basic_stringIcSt11char_traitsIcESaIcEEEblmdSaNS0_14adl_serializerES4_IhSaIhEEvEE
FN:23513,23517,_ZN8nlohmann16json_abi_v3_11_3rsERSiRNS0_10basic_jsonISt3mapSt6vectorNSt7__cxx1112basic_stringIcSt11char_traitsIcESaIcEEEblmdSaNS0_14adl_serializerES4_IhSaIhEEvEE
FN:23528,23552,_ZNK8nlohmann16json_abi_v3_11_310basic_jsonISt3mapSt6vectorNSt7__cxx1112basic_stringIcSt11char_traitsIcESaIcEEEblmdSaNS0_14adl_serializerES3_IhSaIhEEvE9type_nameEv
FN:23567,23570,_ZN8nlohmann16json_abi_v3_11_310basic_jsonISt3mapSt6vectorNSt7__cxx1112basic_stringIcSt11char_traitsIcESaIcEEEblmdSaNS0_14adl_serializerES3_IhSaIhEEvE4dataC2ENS0_6detail7value_tE
FN:23578,23578,_ZN8nlohmann16json_abi_v3_11_310basic_jsonISt3mapSt6vectorNSt7__cxx1112basic_stringIcSt11char_traitsIcESaIcEEEblmdSaNS0_14adl_serializerES3_IhSaIhEEvE4dataC2Ev
FN:23584,23587,_ZN8nlohmann16json_abi_v3_11_310basic_jsonISt3mapSt6vectorNSt7__cxx1112basic_stringIcSt11char_traitsIcESaIcEEEblmdSaNS0_14adl_serializerES3_IhSaIhEEvE4dataD2Ev
FN:3001,3010,_ZN8nlohmann16json_abi_v3_11_36detail17replace_substringINSt7__cxx1112basic_stringIcSt11char_traitsIcESaIcEEEEEvRT_RKS9_SC_
FN:3035,3039,_ZN8nlohmann16json_abi_v3_11_36detailL8unescapeINSt7__cxx1112basic_stringIcSt11char_traitsIcESaIcEEEEEvRT_
FN:3075,3078,_ZNK8nlohmann16json_abi_v3_11_36detail10position_tcvmEv
FN:4264,4267,_ZN8nlohmann16json_abi_v3_11_36detail13concat_lengthEv
FN:4276,4279,_ZN8nlohmann16json_abi_v3_11_36detail13concat_lengthIJEEEmcDpRKT_
FN:4276,4279,_ZN8nlohmann16json_abi_v3_11_36detail13concat_lengthIJNSt7__cxx1112basic_stringIcSt11char_traitsIcESaIcEEEA3_cEEEmcDpRKT_
FN:4282,4286,_ZN8nlohmann16json_abi_v3_11_36detail13concat_lengthIJA15_cNSt7__cxx1112basic_stringIcSt11char_traitsIcESaIcEEEcEEEmPKcDpRKT_
FN:4282,4286,_ZN8nlohmann16json_abi_v3_11_36detail13concat_lengthIJEEEmPKcDpRKT_
FN:4282,4286,_ZN8nlohmann16json_abi_v3_11_36detail13concat_lengthIJNSt7__cxx1112basic_stringIcSt11char_traitsIcESaIcEEEA10_cS8_EEEmPKcDpRKT_
FN:4282,4286,_ZN8nlohmann16json_abi_v3_11_36detail13concat_lengthIJNSt7__cxx1112basic_stringIcSt11char_traitsIcESaIcEEEA3_cS8_S8_EEEmPKcDpRKT_
FN:4282,4286,_ZN8nlohmann16json_abi_v3_11_36detail13concat_lengthIJNSt7__cxx1112basic_stringIcSt11char_traitsIcESaIcEEEA5_cS8_EEEmPKcDpRKT_
FN:4282,4286,_ZN8nlohmann16json_abi_v3_11_36detail13concat_lengthIJNSt7__cxx1112basic_stringIcSt11char_traitsIcESaIcEEEEEEmPKcDpRKT_
FN:4282,4286,_ZN8nlohmann16json_abi_v3_11_36detail13concat_lengthIJNSt7__cxx1112basic_stringIcSt11char_traitsIcESaIcEEES8_EEEmPKcDpRKT_
FN:4282,4286,_ZN8nlohmann16json_abi_v3_11_36detail13concat_lengthIJNSt7__cxx1112basic_stringIcSt11char_traitsIcESaIcEEEcEEEmPKcDpRKT_
FN:4282,4286,_ZN8nlohmann16json_abi_v3_11_36detail13concat_lengthIJNSt7__cxx1112basic_stringIcSt11char_traitsIcESaIcEEEcS8_A3_cEEEmPKcDpRKT_
FN:4282,4286,_ZN8nlohmann16json_abi_v3_11_36detail13concat_lengthIJPKcEEEmS4_DpRKT_
FN:4289,4292,_ZN8nlohmann16json_abi_v3_11_36detail13concat_lengthINSt7__cxx1112basic_stringIcSt11char_traitsIcESaIcEEEJA10_cS8_EEEmRKT_DpRKT0_
FN:4289,4292,_ZN8nlohmann16json_abi_v3_11_36detail13concat_lengthINSt7__cxx1112basic_stringIcSt11char_traitsIcESaIcEEEJA12_cS8_A3_cS8_S8_EEEmRKT_DpRKT0_
FN:4289,4292,_ZN8nlohmann16json_abi_v3_11_36detail13concat_lengthINSt7__cxx1112basic_stringIcSt11char_traitsIcESaIcEEEJA3_cEEEmRKT_DpRKT0_
FN:4289,4292,_ZN8nlohmann16json_abi_v3_11_36detail13concat_lengthINSt7__cxx1112basic_stringIcSt11char_traitsIcESaIcEEEJA3_cS8_S8_EEEmRKT_DpRKT0_
FN:4289,4292,_ZN8nlohmann16json_abi_v3_11_36detail13concat_lengthINSt7__cxx1112basic_stringIcSt11char_traitsIcESaIcEEEJA5_cS8_EEEmRKT_DpRKT0_
FN:4289,4292,_ZN8nlohmann16json_abi_v3_11_36detail13concat_lengthINSt7__cxx1112basic_stringIcSt11char_traitsIcESaIcEEEJEEEmRKT_DpRKT0_
FN:4289,4292,_ZN8nlohmann16json_abi_v3_11_36detail13concat_lengthINSt7__cxx1112basic_stringIcSt11char_traitsIcESaIcEEEJS8_EEEmRKT_DpRKT0_
FN:4289,4292,_ZN8nlohmann16json_abi_v3_11_36detail13concat_lengthINSt7__cxx1112basic_stringIcSt11char_traitsIcESaIcEEEJS8_S8_EEEmRKT_DpRKT0_
FN:4289,4292,_ZN8nlohmann16json_abi_v3_11_36detail13concat_lengthINSt7__cxx1112basic_stringIcSt11char_traitsIcESaIcEEEJcEEEmRKT_DpRKT0_
FN:4289,4292,_ZN8nlohmann16json_abi_v3_11_36detail13concat_lengthINSt7__cxx1112basic_stringIcSt11char_traitsIcESaIcEEEJcS8_A3_cEEEmRKT_DpRKT0_
FN:4295,4296,_ZN8nlohmann16json_abi_v3_11_36detail11concat_intoINSt7__cxx1112basic_stringIcSt11char_traitsIcESaIcEEEEEvRT_
FN:4342,4346,_ZN8nlohmann16json_abi_v3_11_36detail11concat_intoINSt7__cxx1112basic_stringIcSt11char_traitsIcESaIcEEEPKcJELi0EEEvRT_OT0_DpOT1_
FN:4342,4346,_ZN8nlohmann16json_abi_v3_11_36detail11concat_intoINSt7__cxx1112basic_stringIcSt11char_traitsIcESaIcEEEPKcJRA15_S9_S8_cELi0EEEvRT_OT0_DpOT1_
FN:4342,4346,_ZN8nlohmann16json_abi_v3_11_36detail11concat_intoINSt7__cxx1112basic_stringIcSt11char_traitsIcESaIcEEERA10_KcJS8_ELi0EEEvRT_OT0_DpOT1_
FN:4342,4346,_ZN8nlohmann16json_abi_v3_11_36detail11concat_intoINSt7__cxx1112basic_stringIcSt11char_traitsIcESaIcEEERA10_KcJS8_SB_S8_ELi0EEEvRT_OT0_DpOT1_
FN:4342,4346,_ZN8nlohmann16json_abi_v3_11_36detail11concat_intoINSt7__cxx1112basic_stringIcSt11char_traitsIcESaIcEEERA12_KcJPS9_ELi0EEEvRT_OT0_DpOT1_
FN:4342,4346,_ZN8nlohmann16json_abi_v3_11_36detail11concat_intoINSt7__cxx1112basic_stringIcSt11char_traitsIcESaIcEEERA12_KcJS8_RA3_S9_S8_RKS8_ELi0EEEvRT_OT0_DpOT1_
FN:4342,4346,_ZN8nlohmann16json_abi_v3_11_36detail11concat_intoINSt7__cxx1112basic_stringIcSt11char_traitsIcESaIcEEERA15_KcJRKS8_cELi0EEEvRT_OT0_DpOT1_
FN:4342,4346,_ZN8nlohmann16json_abi_v3_11_36detail11concat_intoINSt7__cxx1112basic_stringIcSt11char_traitsIcESaIcEEERA15_KcJS8_cELi0EEEvRT_OT0_DpOT1_
FN:4342,4346,_ZN8nlohmann16json_abi_v3_11_36detail11concat_intoINSt7__cxx1112basic_stringIcSt11char_traitsIcESaIcEEERA17_KcJRKS8_cS8_RA3_S9_ELi0EEEvRT_OT0_DpOT1_
FN:4342,4346,_ZN8nlohmann16json_abi_v3_11_36detail11concat_intoINSt7__cxx1112basic_stringIcSt11char_traitsIcESaIcEEERA23_KcJS8_ELi0EEEvRT_OT0_DpOT1_
FN:4342,4346,_ZN8nlohmann16json_abi_v3_11_36detail11concat_intoINSt7__cxx1112basic_stringIcSt11char_traitsIcESaIcEEERA24_KcJS8_ELi0EEEvRT_OT0_DpOT1_
FN:4342,4346,_ZN8nlohmann16json_abi_v3_11_36detail11concat_intoINSt7__cxx1112basic_stringIcSt11char_traitsIcESaIcEEERA25_KcJPS9_ELi0EEEvRT_OT0_DpOT1_
FN:4342,4346,_ZN8nlohmann16json_abi_v3_11_36detail11concat_intoINSt7__cxx1112basic_stringIcSt11char_traitsIcESaIcEEERA26_KcJS8_cELi0EEEvRT_OT0_DpOT1_
FN:4342,4346,_ZN8nlohmann16json_abi_v3_11_36detail11concat_intoINSt7__cxx1112basic_stringIcSt11char_traitsIcESaIcEEERA29_KcJPS9_ELi0EEEvRT_OT0_DpOT1_
FN:4342,4346,_ZN8nlohmann16json_abi_v3_11_36detail11concat_intoINSt7__cxx1112basic_stringIcSt11char_traitsIcESaIcEEERA29_KcJS8_RA5_S9_S8_ELi0EEEvRT_OT0_DpOT1_
FN:4342,4346,_ZN8nlohmann16json_abi_v3_11_36detail11concat_intoINSt7__cxx1112basic_stringIcSt11char_traitsIcESaIcEEERA39_KcJS8_ELi0EEEvRT_OT0_DpOT1_
FN:4342,4346,_ZN8nlohmann16json_abi_v3_11_36detail11concat_intoINSt7__cxx1112basic_stringIcSt11char_traitsIcESaIcEEERA3_KcJELi0EEEvRT_OT0_DpOT1_
FN:4342,4346,_ZN8nlohmann16json_abi_v3_11_36detail11concat_intoINSt7__cxx1112basic_stringIcSt11char_traitsIcESaIcEEERA3_KcJS8_RKS8_ELi0EEEvRT_OT0_DpOT1_
FN:4342,4346,_ZN8nlohmann16json_abi_v3_11_36detail11concat_intoINSt7__cxx1112basic_stringIcSt11char_traitsIcESaIcEEERA51_KcJPS9_ELi0EEEvRT_OT0_DpOT1_
FN:4342,4346,_ZN8nlohmann16json_abi_v3_11_36detail11concat_intoINSt7__cxx1112basic_stringIcSt11char_traitsIcESaIcEEERA52_KcJPS9_ELi0EEEvRT_OT0_DpOT1_
FN:4342,4346,_ZN8nlohmann16json_abi_v3_11_36detail11concat_intoINSt7__cxx1112basic_stringIcSt11char_traitsIcESaIcEEERA5_KcJS8_ELi0EEEvRT_OT0_DpOT1_
FN:4342,4346,_ZN8nlohmann16json_abi_v3_11_36detail11concat_intoINSt7__cxx1112basic_stringIcSt11char_traitsIcESaIcEEERKS8_JELi0EEEvRT_OT0_DpOT1_
FN:4342,4346,_ZN8nlohmann16json_abi_v3_11_36detail11concat_intoINSt7__cxx1112basic_stringIcSt11char_traitsIcESaIcEEERKS8_JcELi0EEEvRT_OT0_DpOT1_
FN:4342,4346,_ZN8nlohmann16json_abi_v3_11_36detail11concat_intoINSt7__cxx1112basic_stringIcSt11char_traitsIcESaIcEEERKS8_JcS8_RA3_KcELi0EEEvRT_OT0_DpOT1_
FN:4342,4346,_ZN8nlohmann16json_abi_v3_11_36detail11concat_intoINSt7__cxx1112basic_stringIcSt11char_traitsIcESaIcEEES8_JELi0EEEvRT_OT0_DpOT1_
FN:4342,4346,_ZN8nlohmann16json_abi_v3_11_36detail11concat_intoINSt7__cxx1112basic_stringIcSt11char_traitsIcESaIcEEES8_JRA10_KcS8_ELi0EEEvRT_OT0_DpOT1_
FN:4342,4346,_ZN8nlohmann16json_abi_v3_11_36detail11concat_intoINSt7__cxx1112basic_stringIcSt11char_traitsIcESaIcEEES8_JRA12_KcS8_RA3_S9_S8_RKS8_ELi0EEEvRT_OT0_DpOT1_
FN:4342,4346,_ZN8nlohmann16json_abi_v3_11_36detail11concat_intoINSt7__cxx1112basic_stringIcSt11char_traitsIcESaIcEEES8_JRA3_KcELi0EEEvRT_OT0_DpOT1_
FN:4342,4346,_ZN8nlohmann16json_abi_v3_11_36detail11concat_intoINSt7__cxx1112basic_stringIcSt11char_traitsIcESaIcEEES8_JRA3_KcS8_RKS8_ELi0EEEvRT_OT0_DpOT1_
FN:4342,4346,_ZN8nlohmann16json_abi_v3_11_36detail11concat_intoINSt7__cxx1112basic_stringIcSt11char_traitsIcESaIcEEES8_JRA5_KcS8_ELi0EEEvRT_OT0_DpOT1_
FN:4342,4346,_ZN8nlohmann16json_abi_v3_11_36detail11concat_intoINSt7__cxx1112basic_stringIcSt11char_traitsIcESaIcEEES8_JRKS8_ELi0EEEvRT_OT0_DpOT1_
FN:4342,4346,_ZN8nlohmann16json_abi_v3_11_36detail11concat_intoINSt7__cxx1112basic_stringIcSt11char_traitsIcESaIcEEES8_JS8_RKS8_ELi0EEEvRT_OT0_DpOT1_
FN:4342,4346,_ZN8nlohmann16json_abi_v3_11_36detail11concat_intoINSt7__cxx1112basic_stringIcSt11char_traitsIcESaIcEEES8_JcELi0EEEvRT_OT0_DpOT1_
FN:4351,4355,_ZN8nlohmann16json_abi_v3_11_36detail11concat_intoINSt7__cxx1112basic_stringIcSt11char_traitsIcESaIcEEEcJELi0EEEvRT_OT0_DpOT1_
FN:4351,4355,_ZN8nlohmann16json_abi_v3_11_36detail11concat_intoINSt7__cxx1112basic_stringIcSt11char_traitsIcESaIcEEEcJS8_RA3_KcELi0EEEvRT_OT0_DpOT1_
FN:4379,4385,_ZN8nlohmann16json_abi_v3_11_36detail6concatINSt7__cxx1112basic_stringIcSt11char_traitsIcESaIcEEEJPKcRA15_S9_S8_cEEET_DpOT0_
FN:4379,4385,_ZN8nlohmann16json_abi_v3_11_36detail6concatINSt7__cxx1112basic_stringIcSt11char_traitsIcESaIcEEEJRA10_KcS8_SB_S8_EEET_DpOT0_
FN:4379,4385,_ZN8nlohmann16json_abi_v3_11_36detail6concatINSt7__cxx1112basic_stringIcSt11char_traitsIcESaIcEEEJRA12_KcPS9_EEET_DpOT0_
FN:4379,4385,_ZN8nlohmann16json_abi_v3_11_36detail6concatINSt7__cxx1112basic_stringIcSt11char_traitsIcESaIcEEEJRA15_KcRKS8_cEEET_DpOT0_
FN:4379,4385,_ZN8nlohmann16json_abi_v3_11_36detail6concatINSt7__cxx1112basic_stringIcSt11char_traitsIcESaIcEEEJRA17_KcRKS8_cS8_RA3_S9_EEET_DpOT0_
FN:4379,4385,_ZN8nlohmann16json_abi_v3_11_36detail6concatINSt7__cxx1112basic_stringIcSt11char_traitsIcESaIcEEEJRA23_KcS8_EEET_DpOT0_
FN:4379,4385,_ZN8nlohmann16json_abi_v3_11_36detail6concatINSt7__cxx1112basic_stringIcSt11char_traitsIcESaIcEEEJRA24_KcS8_EEET_DpOT0_
FN:4379,4385,_ZN8nlohmann16json_abi_v3_11_36detail6concatINSt7__cxx1112basic_stringIcSt11char_traitsIcESaIcEEEJRA25_KcPS9_EEET_DpOT0_
FN:4379,4385,_ZN8nlohmann16json_abi_v3_11_36detail6concatINSt7__cxx1112basic_stringIcSt11char_traitsIcESaIcEEEJRA26_KcS8_cEEET_DpOT0_
FN:4379,4385,_ZN8nlohmann16json_abi_v3_11_36detail6concatINSt7__cxx1112basic_stringIcSt11char_traitsIcESaIcEEEJRA29_KcPS9_EEET_DpOT0_
FN:4379,4385,_ZN8nlohmann16json_abi_v3_11_36detail6concatINSt7__cxx1112basic_stringIcSt11char_traitsIcESaIcEEEJRA29_KcS8_RA5_S9_S8_EEET_DpOT0_
FN:4379,4385,_ZN8nlohmann16json_abi_v3_11_36detail6concatINSt7__cxx1112basic_stringIcSt11char_traitsIcESaIcEEEJRA39_KcS8_EEET_DpOT0_
FN:4379,4385,_ZN8nlohmann16json_abi_v3_11_36detail6concatINSt7__cxx1112basic_stringIcSt11char_traitsIcESaIcEEEJRA51_KcPS9_EEET_DpOT0_
FN:4379,4385,_ZN8nlohmann16json_abi_v3_11_36detail6concatINSt7__cxx1112basic_stringIcSt11char_traitsIcESaIcEEEJRA52_KcPS9_EEET_DpOT0_
FN:4379,4385,_ZN8nlohmann16json_abi_v3_11_36detail6concatINSt7__cxx1112basic_stringIcSt11char_traitsIcESaIcEEEJS8_RA12_KcS8_RA3_S9_S8_RKS8_EEET_DpOT0_
FN:4379,4385,_ZN8nlohmann16json_abi_v3_11_36detail6concatINSt7__cxx1112basic_stringIcSt11char_traitsIcESaIcEEEJS8_S8_RKS8_EEET_DpOT0_
FN:4405,4408,_ZNK8nlohmann16json_abi_v3_11_36detail9exception4whatEv
FN:4415,4415,_ZN8nlohmann16json_abi_v3_11_36detail9exceptionC2EiPKc
FN:4417,4420,_ZN8nlohmann16json_abi_v3_11_36detail9exception4nameERKNSt7__cxx1112basic_stringIcSt11char_traitsIcESaIcEEEi
FN:4422,4425,_ZN8nlohmann16json_abi_v3_11_36detail9exception11diagnosticsB5cxx11EDn
FN:4428,4490,_ZN8nlohmann16json_abi_v3_11_36detail9exception11diagnosticsINS0_10basic_jsonISt3mapSt6vectorNSt7__cxx1112basic_stringIcSt11char_traitsIcESaIcEEEblmdSaNS0_14adl_serializerES6_IhSaIhEEvEEEESC_PKT_
FN:4512,4517,_ZN8nlohmann16json_abi_v3_11_36detail11parse_error6createIDnLi0EEES2_iRKNS1_10position_tERKNSt7__cxx1112basic_stringIcSt11char_traitsIcESaIcEEET_
FN:4540,4541,_ZN8nlohmann16json_abi_v3_11_36detail11parse_errorC2EimPKc
FN:4543,4547,_ZN8nlohmann16json_abi_v3_11_36detail11parse_error15position_stringB5cxx11ERKNS1_10position_tE
FN:4556,4560,_ZN8nlohmann16json_abi_v3_11_36detail16invalid_iterator6createIPNS0_10basic_jsonISt3mapSt6vectorNSt7__cxx1112basic_stringIcSt11char_traitsIcESaIcEEEblmdSaNS0_14adl_serializerES6_IhSaIhEEvEELi0EEES2_iRKSC_T_
FN:4564,4565,_ZN8nlohmann16json_abi_v3_11_36detail16invalid_iteratorC2EiPKc
FN:4574,4578,_ZN8nlohmann16json_abi_v3_11_36detail10type_error6createIDnLi0EEES2_iRKNSt7__cxx1112basic_stringIcSt11char_traitsIcESaIcEEET_
FN:4574,4578,_ZN8nlohmann16json_abi_v3_11_36detail10type_error6createIPKNS0_10basic_jsonISt3mapSt6vectorNSt7__cxx1112basic_stringIcSt11char_traitsIcESaIcEEEblmdSaNS0_14adl_serializerES6_IhSaIhEEvEELi0EEES2_iRKSC_T_
FN:4574,4578,_ZN8nlohmann16json_abi_v3_11_36detail10type_error6createIPNS0_10basic_jsonISt3mapSt6vectorNSt7__cxx1112basic_stringIcSt11char_traitsIcESaIcEEEblmdSaNS0_14adl_serializerES6_IhSaIhEEvEELi0EEES2_iRKSC_T_
FN:4582,4582,_ZN8nlohmann16json_abi_v3_11_36detail10type_errorC2EiPKc
FN:4591,4595,_ZN8nlohmann16json_abi_v3_11_36detail12out_of_range6createIDnLi0EEES2_iRKNSt7__cxx1112basic_stringIcSt11char_traitsIcESaIcEEET_
FN:4591,4595,_ZN8nlohmann16json_abi_v3_11_36detail12out_of_range6createIPNS0_10basic_jsonISt3mapSt6vectorNSt7__cxx1112basic_stringIcSt11char_traitsIcESaIcEEEblmdSaNS0_14adl_serializerES6_IhSaIhEEvEELi0EEES2_iRKSC_T_
FN:4599,4599,_ZN8nlohmann16json_abi_v3_11_36detail12out_of_rangeC2EiPKc
FN:4608,4612,_ZN8nlohmann16json_abi_v3_11_36detail11other_error6createIDnLi0EEES2_iRKNSt7__cxx1112basic_stringIcSt11char_traitsIcESaIcEEET_
FN:4616,4616,_ZN8nlohmann16json_abi_v3_11_36detail11other_errorC2EiPKc
FN:4726,4756,_ZN8nlohmann16json_abi_v3_11_36detail20get_arithmetic_valueINS0_10basic_jsonISt3mapSt6vectorNSt7__cxx1112basic_stringIcSt11char_traitsIcESaIcEEEblmdSaNS0_14adl_serializerES5_IhSaIhEEvEEdLi0EEEvRKT_RT0_
FN:4769,4776,_ZN8nlohmann16json_abi_v3_11_36detail9from_jsonINS0_10basic_jsonISt3mapSt6vectorNSt7__cxx1112basic_stringIcSt11char_traitsIcESaIcEEEblmdSaNS0_14adl_serializerES5_IhSaIhEEvEEEEvRKT_RNSG_8string_tE
FN:4796,4799,_ZN8nlohmann16json_abi_v3_11_36detail9from_jsonINS0_10basic_jsonISt3mapSt6vectorNSt7__cxx1112basic_stringIcSt11char_traitsIcESaIcEEEblmdSaNS0_14adl_serializerES5_IhSaIhEEvEEEEvRKT_RNSG_14number_float_tE
FN:5149,5154,_ZNK8nlohmann16json_abi_v3_11_36detail12from_json_fnclINS0_10basic_jsonISt3mapSt6vectorNSt7__cxx1112basic_stringIcSt11char_traitsIcESaIcEEEblmdSaNS0_14adl_serializerES6_IhSaIhEEvEERSC_EEDTcl9from_jsonfp_cl7forwardIT0_Efp0_EEERKT_OSI_
FN:5149,5154,_ZNK8nlohmann16json_abi_v3_11_36detail12from_json_fnclINS0_10basic_jsonISt3mapSt6vectorNSt7__cxx1112basic_stringIcSt11char_traitsIcESaIcEEEblmdSaNS0_14adl_serializerES6_IhSaIhEEvEERdEEDTcl9from_jsonfp_cl7forwardIT0_Efp0_EEERKT_OSI_
FN:5476,5482,_ZN8nlohmann16json_abi_v3_11_36detail20external_constructorILNS1_7value_tE4EE9constructINS0_10basic_jsonISt3mapSt6vectorNSt7__cxx1112basic_stringIcSt11char_traitsIcESaIcEEEblmdSaNS0_14adl_serializerES8_IhSaIhEEvEEEEvRT_NSJ_9boolean_tE
FN:5489,5495,_ZN8nlohmann16json_abi_v3_11_36detail20external_constructorILNS1_7value_tE3EE9constructINS0_10basic_jsonISt3mapSt6vectorNSt7__cxx1112basic_stringIcSt11char_traitsIcESaIcEEEblmdSaNS0_14adl_serializerES8_IhSaIhEEvEEEEvRT_RKNSJ_8string_tE
FN:5498,5504,_ZN8nlohmann16json_abi_v3_11_36detail20external_constructorILNS1_7value_tE3EE9constructINS0_10basic_jsonISt3mapSt6vectorNSt7__cxx1112basic_stringIcSt11char_traitsIcESaIcEEEblmdSaNS0_14adl_serializerES8_IhSaIhEEvEEEEvRT_ONSJ_8string_tE
FN:5544,5550,_ZN8nlohmann16json_abi_v3_11_36detail20external_constructorILNS1_7value_tE7EE9constructINS0_10basic_jsonISt3mapSt6vectorNSt7__cxx1112basic_stringIcSt11char_traitsIcESaIcEEEblmdSaNS0_14adl_serializerES8_IhSaIhEEvEEEEvRT_NSJ_14number_float_tE
FN:5557,5563,_ZN8nlohmann16json_abi_v3_11_36detail20external_constructorILNS1_7value_tE6EE9constructINS0_10basic_jsonISt3mapSt6vectorNSt7__cxx1112basic_stringIcSt11char_traitsIcESaIcEEEblmdSaNS0_14adl_serializerES8_IhSaIhEEvEEEEvRT_NSJ_17number_unsigned_tE
FN:5570,5576,_ZN8nlohmann16json_abi_v3_11_36detail20external_constructorILNS1_7value_tE5EE9constructINS0_10basic_jsonISt3mapSt6vectorNSt7__cxx1112basic_stringIcSt11char_traitsIcESaIcEEEblmdSaNS0_14adl_serializerES8_IhSaIhEEvEEEEvRT_NSJ_16number_integer_tE
FN:5709,5712,_ZN8nlohmann16json_abi_v3_11_36detail7to_jsonINS0_10basic_jsonISt3mapSt6vectorNSt7__cxx1112basic_stringIcSt11char_traitsIcESaIcEEEblmdSaNS0_14adl_serializerES5_IhSaIhEEvEEbLi0EEEvRT_T0_
FN:5729,5732,_ZN8nlohmann16json_abi_v3_11_36detail7to_jsonINS0_10basic_jsonISt3mapSt6vectorNSt7__cxx1112basic_stringIcSt11char_traitsIcESaIcEEEblmdSaNS0_14adl_serializerES5_IhSaIhEEvEESB_Li0EEEvRT_RKT0_
FN:5735,5738,_ZN8nlohmann16json_abi_v3_11_36detail7to_jsonINS0_10basic_jsonISt3mapSt6vectorNSt7__cxx1112basic_stringIcSt11char_traitsIcESaIcEEEblmdSaNS0_14adl_serializerES5_IhSaIhEEvEEEEvRT_ONSG_8string_tE
FN:5742,5745,_ZN8nlohmann16json_abi_v3_11_36detail7to_jsonINS0_10basic_jsonISt3mapSt6vectorNSt7__cxx1112basic_stringIcSt11char_traitsIcESaIcEEEblmdSaNS0_14adl_serializerES5_IhSaIhEEvEEdLi0EEEvRT_T0_
FN:5749,5752,_ZN8nlohmann16json_abi_v3_11_36detail7to_jsonINS0_10basic_jsonISt3mapSt6vectorNSt7__cxx1112basic_stringIcSt11char_traitsIcESaIcEEEblmdSaNS0_14adl_serializerES5_IhSaIhEEvEEmLi0EEEvRT_T0_
FN:5756,5759,_ZN8nlohmann16json_abi_v3_11_36detail7to_jsonINS0_10basic_jsonISt3mapSt6vectorNSt7__cxx1112basic_stringIcSt11char_traitsIcESaIcEEEblmdSaNS0_14adl_serializerES5_IhSaIhEEvEElLi0EEEvRT_T0_
FN:5870,5874,_ZNK8nlohmann16json_abi_v3_11_36detail10to_json_fnclINS0_10basic_jsonISt3mapSt6vectorNSt7__cxx1112basic_stringIcSt11char_traitsIcESaIcEEEblmdSaNS0_14adl_serializerES6_IhSaIhEEvEERSC_EEDTcmcl7to_jsonfp_cl7forwardIT0_Efp0_EEcvv_EERT_OSI_
FN:5870,5874,_ZNK8nlohmann16json_abi_v3_11_36detail10to_json_fnclINS0_10basic_jsonISt3mapSt6vectorNSt7__cxx1112basic_stringIcSt11char_traitsIcESaIcEEEblmdSaNS0_14adl_serializerES6_IhSaIhEEvEERbEEDTcmcl7to_jsonfp_cl7forwardIT0_Efp0_EEcvv_EERT_OSI_
FN:5870,5874,_ZNK8nlohmann16json_abi_v3_11_36detail10to_json_fnclINS0_10basic_jsonISt3mapSt6vectorNSt7__cxx1112basic_stringIcSt11char_traitsIcESaIcEEEblmdSaNS0_14adl_serializerES6_IhSaIhEEvEERdEEDTcmcl7to_jsonfp_cl7forwardIT0_Efp0_EEcvv_EERT_OSI_
FN:5870,5874,_ZNK8nlohmann16json_abi_v3_11_36detail10to_json_fnclINS0_10basic_jsonISt3mapSt6vectorNSt7__cxx1112basic_stringIcSt11char_traitsIcESaIcEEEblmdSaNS0_14adl_serializerES6_IhSaIhEEvEERlEEDTcmcl7to_jsonfp_cl7forwardIT0_Efp0_EEcvv_EERT_OSI_
FN:5870,5874,_ZNK8nlohmann16json_abi_v3_11_36detail10to_json_fnclINS0_10basic_jsonISt3mapSt6vectorNSt7__cxx1112basic_stringIcSt11char_traitsIcESaIcEEEblmdSaNS0_14adl_serializerES6_IhSaIhEEvEERmEEDTcmcl7to_jsonfp_cl7forwardIT0_Efp0_EEcvv_EERT_OSI_
FN:5870,5874,_ZNK8nlohmann16json_abi_v3_11_36detail10to_json_fnclINS0_10basic_jsonISt3mapSt6vectorNSt7__cxx1112basic_stringIcSt11char_traitsIcESaIcEEEblmdSaNS0_14adl_serializerES6_IhSaIhEEvEESC_EEDTcmcl7to_jsonfp_cl7forwardIT0_Efp0_EEcvv_EERT_OSH_
FN:5870,5874,_ZNK8nlohmann16json_abi_v3_11_36detail10to_json_fnclINS0_10basic_jsonISt3mapSt6vectorNSt7__cxx1112basic_stringIcSt11char_traitsIcESaIcEEEblmdSaNS0_14adl_serializerES6_IhSaIhEEvEEbEEDTcmcl7to_jsonfp_cl7forwardIT0_Efp0_EEcvv_EERT_OSH_
FN:5870,5874,_ZNK8nlohmann16json_abi_v3_11_36detail10to_json_fnclINS0_10basic_jsonISt3mapSt6vectorNSt7__cxx1112basic_stringIcSt11char_traitsIcESaIcEEEblmdSaNS0_14adl_serializerES6_IhSaIhEEvEEdEEDTcmcl7to_jsonfp_cl7forwardIT0_Efp0_EEcvv_EERT_OSH_
FN:5905,5910,_ZN8nlohmann16json_abi_v3_11_314adl_serializerINSt7__cxx1112basic_stringIcSt11char_traitsIcESaIcEEEvE9from_jsonIRKNS0_10basic_jsonISt3mapSt6vectorS7_blmdSaS1_SC_IhSaIhEEvEES7_EEDTcmclL_ZNS0_12_GLOBAL__N_19from_jsonEEcl7forwardIT_Efp_Efp0_Ecvv_EEOSJ_RT0_
FN:5905,5910,_ZN8nlohmann16json_abi_v3_11_314adl_serializerIdvE9from_jsonIRKNS0_10basic_jsonISt3mapSt6vectorNSt7__cxx1112basic_stringIcSt11char_traitsIcESaIcEEEblmdSaS1_S6_IhSaIhEEvEEdEEDTcmclL_ZNS0_12_GLOBAL__N_19from_jsonEEcl7forwardIT_Efp_Efp0_Ecvv_EEOSJ_RT0_
FN:5925,5930,_ZN8nlohmann16json_abi_v3_11_314adl_serializerINSt7__cxx1112basic_stringIcSt11char_traitsIcESaIcEEEvE7to_jsonINS0_10basic_jsonISt3mapSt6vectorS7_blmdSaS1_SC_IhSaIhEEvEERS7_EEDTcmclL_ZNS0_12_GLOBAL__N_17to_jsonEEfp_cl7forwardIT0_Efp0_EEcvv_EERT_OSI_
FN:5925,5930,_ZN8nlohmann16json_abi_v3_11_314adl_serializerINSt7__cxx1112basic_stringIcSt11char_traitsIcESaIcEEEvE7to_jsonINS0_10basic_jsonISt3mapSt6vectorS7_blmdSaS1_SC_IhSaIhEEvEES7_EEDTcmclL_ZNS0_12_GLOBAL__N_17to_jsonEEfp_cl7forwardIT0_Efp0_EEcvv_EERT_OSH_
FN:5925,5930,_ZN8nlohmann16json_abi_v3_11_314adl_serializerIbvE7to_jsonINS0_10basic_jsonISt3mapSt6vectorNSt7__cxx1112basic_stringIcSt11char_traitsIcESaIcEEEblmdSaS1_S6_IhSaIhEEvEERbEEDTcmclL_ZNS0_12_GLOBAL__N_17to_jsonEEfp_cl7forwardIT0_Efp0_EEcvv_EERT_OSI_
FN:5925,5930,_ZN8nlohmann16json_abi_v3_11_314adl_serializerIbvE7to_jsonINS0_10basic_jsonISt3mapSt6vectorNSt7__cxx1112basic_stringIcSt11char_traitsIcESaIcEEEblmdSaS1_S6_IhSaIhEEvEEbEEDTcmclL_ZNS0_12_GLOBAL__N_17to_jsonEEfp_cl7forwardIT0_Efp0_EEcvv_EERT_OSH_
FN:5925,5930,_ZN8nlohmann16json_abi_v3_11_314adl_serializerIdvE7to_jsonINS0_10basic_jsonISt3mapSt6vectorNSt7__cxx1112basic_stringIcSt11char_traitsIcESaIcEEEblmdSaS1_S6_IhSaIhEEvEERdEEDTcmclL_ZNS0_12_GLOBAL__N_17to_jsonEEfp_cl7forwardIT0_Efp0_EEcvv_EERT_OSI_
FN:5925,5930,_ZN8nlohmann16json_abi_v3_11_314adl_serializerIdvE7to_jsonINS0_10basic_jsonISt3mapSt6vectorNSt7__cxx1112basic_stringIcSt11char_traitsIcESaIcEEEblmdSaS1_S6_IhSaIhEEvEEdEEDTcmclL_ZNS0_12_GLOBAL__N_17to_jsonEEfp_cl7forwardIT0_Efp0_EEcvv_EERT_OSH_
FN:5925,5930,_ZN8nlohmann16json_abi_v3_11_314adl_serializerIlvE7to_jsonINS0_10basic_jsonISt3mapSt6vectorNSt7__cxx1112basic_stringIcSt11char_traitsIcESaIcEEEblmdSaS1_S6_IhSaIhEEvEERlEEDTcmclL_ZNS0_12_GLOBAL__N_17to_jsonEEfp_cl7forwardIT0_Efp0_EEcvv_EERT_OSI_
FN:5925,5930,_ZN8nlohmann16json_abi_v3_11_314adl_serializerImvE7to_jsonINS0_10basic_jsonISt3mapSt6vectorNSt7__cxx1112basic_stringIcSt11char_traitsIcESaIcEEEblmdSaS1_S6_IhSaIhEEvEERmEEDTcmclL_ZNS0_12_GLOBAL__N_17to_jsonEEfp_cl7forwardIT0_Efp0_EEcvv_EERT_OSI_
FN:5965,5967,_ZN8nlohmann16json_abi_v3_11_327byte_container_with_subtypeISt6vectorIhSaIhEEEC2Ev
FN:5993,5997,_ZNK8nlohmann16json_abi_v3_11_327byte_container_with_subtypeISt6vectorIhSaIhEEEeqERKS5_
FN:6014,6017,_ZNK8nlohmann16json_abi_v3_11_327byte_container_with_subtypeISt6vectorIhSaIhEEE7subtypeEv
FN:6021,6024,_ZNK8nlohmann16json_abi_v3_11_327byte_container_with_subtypeISt6vectorIhSaIhEEE11has_subtypeEv
FN:6298,6306,_ZN8nlohmann16json_abi_v3_11_36detail20input_stream_adapterD2Ev
FN:6308,6310,_ZN8nlohmann16json_abi_v3_11_36detail20input_stream_adapterC2ERSi
FN:6317,6322,_ZN8nlohmann16json_abi_v3_11_36detail20input_stream_adapterC2EOS2_
FN:6327,6336,_ZN8nlohmann16json_abi_v3_11_36detail20input_stream_adapter13get_characterEv
FN:6635,6638,_ZN8nlohmann16json_abi_v3_11_36detail13input_adapterERSi
FN:6881,6883,_ZN8nlohmann16json_abi_v3_11_36detail19json_sax_dom_parserINS0_10basic_jsonISt3mapSt6vectorNSt7__cxx1112basic_stringIcSt11char_traitsIcESaIcEEEblmdSaNS0_14adl_serializerES5_IhSaIhEEvEEEC2ERSF_b
FN:6890,6890,_ZN8nlohmann16json_abi_v3_11_36detail19json_sax_dom_parserINS0_10basic_jsonISt3mapSt6vectorNSt7__cxx1112basic_stringIcSt11char_traitsIcESaIcEEEblmdSaNS0_14adl_serializerES5_IhSaIhEEvEEED2Ev
FN:6892,6896,_ZN8nlohmann16json_abi_v3_11_36detail19json_sax_dom_parserINS0_10basic_jsonISt3mapSt6vectorNSt7__cxx1112basic_stringIcSt11char_traitsIcESaIcEEEblmdSaNS0_14adl_serializerES5_IhSaIhEEvEEE4nullEv
FN:6898,6902,_ZN8nlohmann16json_abi_v3_11_36detail19json_sax_dom_parserINS0_10basic_jsonISt3mapSt6vectorNSt7__cxx1112basic_stringIcSt11char_traitsIcESaIcEEEblmdSaNS0_14adl_serializerES5_IhSaIhEEvEEE7booleanEb
FN:6904,6908,_ZN8nlohmann16json_abi_v3_11_36detail19json_sax_dom_parserINS0_10basic_jsonISt3mapSt6vectorNSt7__cxx1112basic_stringIcSt11char_traitsIcESaIcEEEblmdSaNS0_14adl_serializerES5_IhSaIhEEvEEE14number_integerEl
FN:6910,6914,_ZN8nlohmann16json_abi_v3_11_36detail19json_sax_dom_parserINS0_10basic_jsonISt3mapSt6vectorNSt7__cxx1112basic_stringIcSt11char_traitsIcESaIcEEEblmdSaNS0_14adl_serializerES5_IhSaIhEEvEEE15number_unsignedEm
FN:6916,6920,_ZN8nlohmann16json_abi_v3_11_36detail19json_sax_dom_parserINS0_10basic_jsonISt3mapSt6vectorNSt7__cxx1112basic_stringIcSt11char_traitsIcESaIcEEEblmdSaNS0_14adl_serializerES5_IhSaIhEEvEEE12number_floatEdRKSB_
FN:6922,6926,_ZN8nlohmann16json_abi_v3_11_36detail19json_sax_dom_parserINS0_10basic_jsonISt3mapSt6vectorNSt7__cxx1112basic_stringIcSt11char_traitsIcESaIcEEEblmdSaNS0_14adl_serializerES5_IhSaIhEEvEEE6stringERSB_
FN:6934,6944,_ZN8nlohmann16json_abi_v3_11_36detail19json_sax_dom_parserINS0_10basic_jsonISt3mapSt6vectorNSt7__cxx1112basic_stringIcSt11char_traitsIcESaIcEEEblmdSaNS0_14adl_serializerES5_IhSaIhEEvEEE12start_objectEm
FN:6946,6954,_ZN8nlohmann16json_abi_v3_11_36detail19json_sax_dom_parserINS0_10basic_jsonISt3mapSt6vectorNSt7__cxx1112basic_stringIcSt11char_traitsIcESaIcEEEblmdSaNS0_14adl_serializerES5_IhSaIhEEvEEE3keyERSB_
FN:6956,6964,_ZN8nlohmann16json_abi_v3_11_36detail19json_sax_dom_parserINS0_10basic_jsonISt3mapSt6vectorNSt7__cxx1112basic_stringIcSt11char_traitsIcESaIcEEEblmdSaNS0_14adl_serializerES5_IhSaIhEEvEEE10end_objectEv
FN:6966,6976,_ZN8nlohmann16json_abi_v3_11_36detail19json_sax_dom_parserINS0_10basic_jsonISt3mapSt6vectorNSt7__cxx1112basic_stringIcSt11char_traitsIcESaIcEEEblmdSaNS0_14adl_serializerES5_IhSaIhEEvEEE11start_arrayEm
FN:6978,6986,_ZN8nlohmann16json_abi_v3_11_36detail19json_sax_dom_parserINS0_10basic_jsonISt3mapSt6vectorNSt7__cxx1112basic_stringIcSt11char_traitsIcESaIcEEEblmdSaNS0_14adl_serializerES5_IhSaIhEEvEEE9end_arrayEv
FN:6989,6999,_ZN8nlohmann16json_abi_v3_11_36detail19json_sax_dom_parserINS0_10basic_jsonISt3mapSt6vectorNSt7__cxx1112basic_stringIcSt11char_traitsIcESaIcEEEblmdSaNS0_14adl_serializerES5_IhSaIhEEvEEE11parse_errorINS1_11parse_errorEEEbmRKSB_RKT_
FN:6989,6999,_ZN8nlohmann16json_abi_v3_11_36detail19json_sax_dom_parserINS0_10basic_jsonISt3mapSt6vectorNSt7__cxx1112basic_stringIcSt11char_traitsIcESaIcEEEblmdSaNS0_14adl_serializerES5_IhSaIhEEvEEE11parse_errorINS1_12out_of_rangeEEEbmRKSB_RKT_
FN:7001,7004,_ZNK8nlohmann16json_abi_v3_11_36detail19json_sax_dom_parserINS0_10basic_jsonISt3mapSt6vectorNSt7__cxx1112basic_stringIcSt11char_traitsIcESaIcEEEblmdSaNS0_14adl_serializerES5_IhSaIhEEvEEE10is_erroredEv
FN:7015,7035,_ZN8nlohmann16json_abi_v3_11_36detail19json_sax_dom_parserINS0_10basic_jsonISt3mapSt6vectorNSt7__cxx1112basic_stringIcSt11char_traitsIcESaIcEEEblmdSaNS0_14adl_serializerES5_IhSaIhEEvEEE12handle_valueIDnEEPSF_OT_
FN:7015,7035,_ZN8nlohmann16json_abi_v3_11_36detail19json_sax_dom_parserINS0_10basic_jsonISt3mapSt6vectorNSt7__cxx1112basic_stringIcSt11char_traitsIcESaIcEEEblmdSaNS0_14adl_serializerES5_IhSaIhEEvEEE12handle_valueINS1_7value_tEEEPSF_OT_
FN:7015,7035,_ZN8nlohmann16json_abi_v3_11_36detail19json_sax_dom_parserINS0_10basic_jsonISt3mapSt6vectorNSt7__cxx1112basic_stringIcSt11char_traitsIcESaIcEEEblmdSaNS0_14adl_serializerES5_IhSaIhEEvEEE12handle_valueIRSB_EEPSF_OT_
FN:7015,7035,_ZN8nlohmann16json_abi_v3_11_36detail19json_sax_dom_parserINS0_10basic_jsonISt3mapSt6vectorNSt7__cxx1112basic_stringIcSt11char_traitsIcESaIcEEEblmdSaNS0_14adl_serializerES5_IhSaIhEEvEEE12handle_valueIRbEEPSF_OT_
FN:7015,7035,_ZN8nlohmann16json_abi_v3_11_36detail19json_sax_dom_parserINS0_10basic_jsonISt3mapSt6vectorNSt7__cxx1112basic_stringIcSt11char_traitsIcESaIcEEEblmdSaNS0_14adl_serializerES5_IhSaIhEEvEEE12handle_valueIRdEEPSF_OT_
FN:7015,7035,_ZN8nlohmann16json_abi_v3_11_36detail19json_sax_dom_parserINS0_10basic_jsonISt3mapSt6vectorNSt7__cxx1112basic_stringIcSt11char_traitsIcESaIcEEEblmdSaNS0_14adl_serializerES5_IhSaIhEEvEEE12handle_valueIRlEEPSF_OT_
FN:7015,7035,_ZN8nlohmann16json_abi_v3_11_36detail19json_sax_dom_parserINS0_10basic_jsonISt3mapSt6vectorNSt7__cxx1112basic_stringIcSt11char_traitsIcESaIcEEEblmdSaNS0_14adl_serializerES5_IhSaIhEEvEEE12handle_valueIRmEEPSF_OT_
FN:7061,7067,_ZN8nlohmann16json_abi_v3_11_36detail28json_sax_dom_callback_parserINS0_10basic_jsonISt3mapSt6vectorNSt7__cxx1112basic_stringIcSt11char_traitsIcESaIcEEEblmdSaNS0_14adl_serializerES5_IhSaIhEEvEEEC2ERSF_St8functionIFbiNS1_13parse_event_tESH_EEb
FN:7074,7074,_ZN8nlohmann16json_abi_v3_11_36detail28json_sax_dom_callback_parserINS0_10basic_jsonISt3mapSt6vectorNSt7__cxx1112basic_stringIcSt11char_traitsIcESaIcEEEblmdSaNS0_14adl_serializerES5_IhSaIhEEvEEED2Ev
FN:7076,7080,_ZN8nlohmann16json_abi_v3_11_36detail28json_sax_dom_callback_parserINS0_10basic_jsonISt3mapSt6vectorNSt7__cxx1112basic_stringIcSt11char_traitsIcESaIcEEEblmdSaNS0_14adl_serializerES5_IhSaIhEEvEEE4nullEv
FN:7082,7086,_ZN8nlohmann16json_abi_v3_11_36detail28json_sax_dom_callback_parserINS0_10basic_jsonISt3mapSt6vectorNSt7__cxx1112basic_stringIcSt11char_traitsIcESaIcEEEblmdSaNS0_14adl_serializerES5_IhSaIhEEvEEE7booleanEb
FN:7088,7092,_ZN8nlohmann16json_abi_v3_11_36detail28json_sax_dom_callback_parserINS0_10basic_jsonISt3mapSt6vectorNSt7__cxx1112basic_stringIcSt11char_traitsIcESaIcEEEblmdSaNS0_14adl_serializerES5_IhSaIhEEvEEE14number_integerEl
FN:7094,7098,_ZN8nlohmann16json_abi_v3_11_36detail28json_sax_dom_callback_parserINS0_10basic_jsonISt3mapSt6vectorNSt7__cxx1112basic_stringIcSt11char_traitsIcESaIcEEEblmdSaNS0_14adl_serializerES5_IhSaIhEEvEEE15number_unsignedEm
FN:7100,7104,_ZN8nlohmann16json_abi_v3_11_36detail28json_sax_dom_callback_parserINS0_10basic_jsonISt3mapSt6vectorNSt7__cxx1112basic_stringIcSt11char_traitsIcESaIcEEEblmdSaNS0_14adl_serializerES5_IhSaIhEEvEEE12number_floatEdRKSB_
FN:7106,7110,_ZN8nlohmann16json_abi_v3_11_36detail28json_sax_dom_callback_parserINS0_10basic_jsonISt3mapSt6vectorNSt7__cxx1112basic_stringIcSt11char_traitsIcESaIcEEEblmdSaNS0_14adl_serializerES5_IhSaIhEEvEEE6stringERSB_
FN:7118,7134,_ZN8nlohmann16json_abi_v3_11_36detail28json_sax_dom_callback_parserINS0_10basic_jsonISt3mapSt6vectorNSt7__cxx1112basic_stringIcSt11char_traitsIcESaIcEEEblmdSaNS0_14adl_serializerES5_IhSaIhEEvEEE12start_objectEm
FN:7136,7151,_ZN8nlohmann16json_abi_v3_11_36detail28json_sax_dom_callback_parserINS0_10basic_jsonISt3mapSt6vectorNSt7__cxx1112basic_stringIcSt11char_traitsIcESaIcEEEblmdSaNS0_14adl_serializerES5_IhSaIhEEvEEE3keyERSB_
FN:7153,7187,_ZN8nlohmann16json_abi_v3_11_36detail28json_sax_dom_callback_parserINS0_10basic_jsonISt3mapSt6vectorNSt7__cxx1112basic_stringIcSt11char_traitsIcESaIcEEEblmdSaNS0_14adl_serializerES5_IhSaIhEEvEEE10end_objectEv
FN:7189,7204,_ZN8nlohmann16json_abi_v3_11_36detail28json_sax_dom_callback_parserINS0_10basic_jsonISt3mapSt6vectorNSt7__cxx1112basic_stringIcSt11char_traitsIcESaIcEEEblmdSaNS0_14adl_serializerES5_IhSaIhEEvEEE11start_arrayEm
FN:7206,7236,_ZN8nlohmann16json_abi_v3_11_36detail28json_sax_dom_callback_parserINS0_10basic_jsonISt3mapSt6vectorNSt7__cxx1112basic_stringIcSt11char_traitsIcESaIcEEEblmdSaNS0_14adl_serializerES5_IhSaIhEEvEEE9end_arrayEv
FN:7239,7249,_ZN8nlohmann16json_abi_v3_11_36detail28json_sax_dom_callback_parserINS0_10basic_jsonISt3mapSt6vectorNSt7__cxx1112basic_stringIcSt11char_traitsIcESaIcEEEblmdSaNS0_14adl_serializerES5_IhSaIhEEvEEE11parse_errorINS1_11parse_errorEEEbmRKSB_RKT_
FN:7239,7249,_ZN8nlohmann16json_abi_v3_11_36detail28json_sax_dom_callback_parserINS0_10basic_jsonISt3mapSt6vectorNSt7__cxx1112basic_stringIcSt11char_traitsIcESaIcEEEblmdSaNS0_14adl_serializerES5_IhSaIhEEvEEE11parse_errorINS1_12out_of_rangeEEEbmRKSB_RKT_
FN:7251,7254,_ZNK8nlohmann16json_abi_v3_11_36detail28json_sax_dom_callback_parserINS0_10basic_jsonISt3mapSt6vectorNSt7__cxx1112basic_stringIcSt11char_traitsIcESaIcEEEblmdSaNS0_14adl_serializerES5_IhSaIhEEvEEE10is_erroredEv
FN:7273,7334,_ZN8nlohmann16json_abi_v3_11_36detail28json_sax_dom_callback_parserINS0_10basic_jsonISt3mapSt6vectorNSt7__cxx1112basic_stringIcSt11char_traitsIcESaIcEEEblmdSaNS0_14adl_serializerES5_IhSaIhEEvEEE12handle_valueIDnEESt4pairIbPSF_EOT_b
FN:7273,7334,_ZN8nlohmann16json_abi_v3_11_36detail28json_sax_dom_callback_parserINS0_10basic_jsonISt3mapSt6vectorNSt7__cxx1112basic_stringIcSt11char_traitsIcESaIcEEEblmdSaNS0_14adl_serializerES5_IhSaIhEEvEEE12handle_valueINS1_7value_tEEESt4pairIbPSF_EOT_b
FN:7273,7334,_ZN8nlohmann16json_abi_v3_11_36detail28json_sax_dom_callback_parserINS0_10basic_jsonISt3mapSt6vectorNSt7__cxx1112basic_stringIcSt11char_traitsIcESaIcEEEblmdSaNS0_14adl_serializerES5_IhSaIhEEvEEE12handle_valueIRSB_EESt4pairIbPSF_EOT_b
FN:7273,7334,_ZN8nlohmann16json_abi_v3_11_36detail28json_sax_dom_callback_parserINS0_10basic_jsonISt3mapSt6vectorNSt7__cxx1112basic_stringIcSt11char_traitsIcESaIcEEEblmdSaNS0_14adl_serializerES5_IhSaIhEEvEEE12handle_valueIRbEESt4pairIbPSF_EOT_b
FN:7273,7334,_ZN8nlohmann16json_abi_v3_11_36detail28json_sax_dom_callback_parserINS0_10basic_jsonISt3mapSt6vectorNSt7__cxx1112basic_stringIcSt11char_traitsIcESaIcEEEblmdSaNS0_14adl_serializerES5_IhSaIhEEvEEE12handle_valueIRdEESt4pairIbPSF_EOT_b
FN:7273,7334,_ZN8nlohmann16json_abi_v3_11_36detail28json_sax_dom_callback_parserINS0_10basic_jsonISt3mapSt6vectorNSt7__cxx1112basic_stringIcSt11char_traitsIcESaIcEEEblmdSaNS0_14adl_serializerES5_IhSaIhEEvEEE12handle_valueIRlEESt4pairIbPSF_EOT_b
FN:7273,7334,_ZN8nlohmann16json_abi_v3_11_36detail28json_sax_dom_callback_parserINS0_10basic_jsonISt3mapSt6vectorNSt7__cxx1112basic_stringIcSt11char_traitsIcESaIcEEEblmdSaNS0_14adl_serializerES5_IhSaIhEEvEEE12handle_valueIRmEESt4pairIbPSF_EOT_b
FN:7502,7543,_ZN8nlohmann16json_abi_v3_11_36detail10lexer_baseINS0_10basic_jsonISt3mapSt6vectorNSt7__cxx1112basic_stringIcSt11char_traitsIcESaIcEEEblmdSaNS0_14adl_serializerES5_IhSaIhEEvEEE15token_type_nameENSG_10token_typeE
FN:7563,7567,_ZN8nlohmann16json_abi_v3_11_36detail5lexerINS0_10basic_jsonISt3mapSt6vectorNSt7__cxx1112basic_stringIcSt11char_traitsIcESaIcEEEblmdSaNS0_14adl_serializerES5_IhSaIhEEvEENS1_20input_stream_adapterEEC2EOSG_b
FN:7574,7574,_ZN8nlohmann16json_abi_v3_11_36detail5lexerINS0_10basic_jsonISt3mapSt6vectorNSt7__cxx1112basic_stringIcSt11char_traitsIcESaIcEEEblmdSaNS0_14adl_serializerES5_IhSaIhEEvEENS1_20input_stream_adapterEED2Ev
FN:7583,7588,_ZN8nlohmann16json_abi_v3_11_36detail5lexerINS0_10basic_jsonISt3mapSt6vectorNSt7__cxx1112basic_stringIcSt11char_traitsIcESaIcEEEblmdSaNS0_14adl_serializerES5_IhSaIhEEvEENS1_20input_stream_adapterEE17get_decimal_pointEv
FN:7609,7640,_ZN8nlohmann16json_abi_v3_11_36detail5lexerINS0_10basic_jsonISt3mapSt6vectorNSt7__cxx1112basic_stringIcSt11char_traitsIcESaIcEEEblmdSaNS0_14adl_serializerES5_IhSaIhEEvEENS1_20input_stream_adapterEE13get_codepointEv
FN:7657,7677,_ZN8nlohmann16json_abi_v3_11_36detail5lexerINS0_10basic_jsonISt3mapSt6vectorNSt7__cxx1112basic_stringIcSt11char_traitsIcESaIcEEEblmdSaNS0_14adl_serializerES5_IhSaIhEEvEENS1_20input_stream_adapterEE18next_byte_in_rangeESt16initializer_listIiE
FN:7694,8278,_ZN8nlohmann16json_abi_v3_11_36detail5lexerINS0_10basic_jsonISt3mapSt6vectorNSt7__cxx1112basic_stringIcSt11char_traitsIcESaIcEEEblmdSaNS0_14adl_serializerES5_IhSaIhEEvEENS1_20input_stream_adapterEE11scan_stringEv
FN:8284,8349,_ZN8nlohmann16json_abi_v3_11_36detail5lexerINS0_10basic_jsonISt3mapSt6vectorNSt7__cxx1112basic_stringIcSt11char_traitsIcESaIcEEEblmdSaNS0_14adl_serializerES5_IhSaIhEEvEENS1_20input_stream_adapterEE12scan_commentEv
FN:8358,8361,_ZN8nlohmann16json_abi_v3_11_36detail5lexerINS0_10basic_jsonISt3mapSt6vectorNSt7__cxx1112basic_stringIcSt11char_traitsIcESaIcEEEblmdSaNS0_14adl_serializerES5_IhSaIhEEvEENS1_20input_stream_adapterEE6strtofERdPKcPPc
FN:8409,8732,_ZN8nlohmann16json_abi_v3_11_36detail5lexerINS0_10basic_jsonISt3mapSt6vectorNSt7__cxx1112basic_stringIcSt11char_traitsIcESaIcEEEblmdSaNS0_14adl_serializerES5_IhSaIhEEvEENS1_20input_stream_adapterEE11scan_numberEv
FN:8740,8753,_ZN8nlohmann16json_abi_v3_11_36detail5lexerINS0_10basic_jsonISt3mapSt6vectorNSt7__cxx1112basic_stringIcSt11char_traitsIcESaIcEEEblmdSaNS0_14adl_serializerES5_IhSaIhEEvEENS1_20input_stream_adapterEE12scan_literalEPKcmNS1_10lexer_baseISF_E10token_typeE
FN:8760,8765,_ZN8nlohmann16json_abi_v3_11_36detail5lexerINS0_10basic_jsonISt3mapSt6vectorNSt7__cxx1112basic_stringIcSt11char_traitsIcESaIcEEEblmdSaNS0_14adl_serializerES5_IhSaIhEEvEENS1_20input_stream_adapterEE5resetEv
FN:8777,8804,_ZN8nlohmann16json_abi_v3_11_36detail5lexerINS0_10basic_jsonISt3mapSt6vectorNSt7__cxx1112basic_stringIcSt11char_traitsIcESaIcEEEblmdSaNS0_14adl_serializerES5_IhSaIhEEvEENS1_20input_stream_adapterEE3getEv
FN:8814,8838,_ZN8nlohmann16json_abi_v3_11_36detail5lexerINS0_10basic_jsonISt3mapSt6vectorNSt7__cxx1112basic_stringIcSt11char_traitsIcESaIcEEEblmdSaNS0_14adl_serializerES5_IhSaIhEEvEENS1_20input_stream_adapterEE5ungetEv
FN:8841,8844,_ZN8nlohmann16json_abi_v3_11_36detail5lexerINS0_10basic_jsonISt3mapSt6vectorNSt7__cxx1112basic_stringIcSt11char_traitsIcESaIcEEEblmdSaNS0_14adl_serializerES5_IhSaIhEEvEENS1_20input_stream_adapterEE3addEi
FN:8852,8855,_ZNK8nlohmann16json_abi_v3_11_36detail5lexerINS0_10basic_jsonISt3mapSt6vectorNSt7__cxx1112basic_stringIcSt11char_traitsIcESaIcEEEblmdSaNS0_14adl_serializerES5_IhSaIhEEvEENS1_20input_stream_adapterEE18get_number_integerEv
FN:8858,8861,_ZNK8nlohmann16json_abi_v3_11_36detail5lexerINS0_10basic_jsonISt3mapSt6vectorNSt7__cxx1112basic_stringIcSt11char_traitsIcESaIcEEEblmdSaNS0_14adl_serializerES5_IhSaIhEEvEENS1_20input_stream_adapterEE19get_number_unsignedEv
FN:8864,8867,_ZNK8nlohmann16json_abi_v3_11_36detail5lexerINS0_10basic_jsonISt3mapSt6vectorNSt7__cxx1112basic_stringIcSt11char_traitsIcESaIcEEEblmdSaNS0_14adl_serializerES5_IhSaIhEEvEENS1_20input_stream_adapterEE16get_number_floatEv
FN:8870,8873,_ZN8nlohmann16json_abi_v3_11_36detail5lexerINS0_10basic_jsonISt3mapSt6vectorNSt7__cxx1112basic_stringIcSt11char_traitsIcESaIcEEEblmdSaNS0_14adl_serializerES5_IhSaIhEEvEENS1_20input_stream_adapterEE10get_stringEv
FN:8880,8883,_ZNK8nlohmann16json_abi_v3_11_36detail5lexerINS0_10basic_jsonISt3mapSt6vectorNSt7__cxx1112basic_stringIcSt11char_traitsIcESaIcEEEblmdSaNS0_14adl_serializerES5_IhSaIhEEvEENS1_20input_stream_adapterEE12get_positionEv
FN:8888,8909,_ZNK8nlohmann16json_abi_v3_11_36detail5lexerINS0_10basic_jsonISt3mapSt6vectorNSt7__cxx1112basic_stringIcSt11char_traitsIcESaIcEEEblmdSaNS0_14adl_serializerES5_IhSaIhEEvEENS1_20input_stream_adapterEE16get_token_stringEv
FN:8913,8916,_ZNK8nlohmann16json_abi_v3_11_36detail5lexerINS0_10basic_jsonISt3mapSt6vectorNSt7__cxx1112basic_stringIcSt11char_traitsIcESaIcEEEblmdSaNS0_14adl_serializerES5_IhSaIhEEvEENS1_20input_stream_adapterEE17get_error_messageEv
FN:8926,8938,_ZN8nlohmann16json_abi_v3_11_36detail5lexerINS0_10basic_jsonISt3mapSt6vectorNSt7__cxx1112basic_stringIcSt11char_traitsIcESaIcEEEblmdSaNS0_14adl_serializerES5_IhSaIhEEvEENS1_20input_stream_adapterEE8skip_bomEv
FN:8940,8947,_ZN8nlohmann16json_abi_v3_11_36detail5lexerINS0_10basic_jsonISt3mapSt6vectorNSt7__cxx1112basic_stringIcSt11char_traitsIcESaIcEEEblmdSaNS0_14adl_serializerES5_IhSaIhEEvEENS1_20input_stream_adapterEE15skip_whitespaceEv
FN:8949,9035,_ZN8nlohmann16json_abi_v3_11_36detail5lexerINS0_10basic_jsonISt3mapSt6vectorNSt7__cxx1112basic_stringIcSt11char_traitsIcESaIcEEEblmdSaNS0_14adl_serializerES5_IhSaIhEEvEENS1_20input_stream_adapterEE4scanEv
FNDA:14,_ZN8nlohmann16json_abi_v3_11_36detail6parserINS0_10basic_jsonISt3mapSt6vectorNSt7__cxx1112basic_stringIcSt11char_traitsIcESaIcEEEblmdSaNS0_14adl_serializerES5_IhSaIhEEvEENS1_20input_stream_adapterEEC2EOSG_St8functionIFbiNS1_13parse_event_tERSF_EEbb
FNDA:14,_ZN8nlohmann16json_abi_v3_11_36detail6parserINS0_10basic_jsonISt3mapSt6vectorNSt7__cxx1112basic_stringIcSt11char_traitsIcESaIcEEEblmdSaNS0_14adl_serializerES5_IhSaIhEEvEENS1_20input_stream_adapterEE5parseEbRSF_
FNDA:14,_ZN8nlohmann16json_abi_v3_11_36detail6parserINS0_10basic_jsonISt3mapSt6vectorNSt7__cxx1112basic_stringIcSt11char_traitsIcESaIcEEEblmdSaNS0_14adl_serializerES5_IhSaIhEEvEENS1_20input_stream_adapterEE18sax_parse_internalINS1_19json_sax_dom_parserISF_EEEEbPT_
FNDA:0,_ZN8nlohmann16json_abi_v3_11_36detail6parserINS0_10basic_jsonISt3mapSt6vectorNSt7__cxx1112basic_stringIcSt11char_traitsIcESaIcEEEblmdSaNS0_14adl_serializerES5_IhSaIhEEvEENS1_20input_stream_adapterEE18sax_parse_internalINS1_28json_sax_dom_callback_parserISF_EEEEbPT_
FNDA:1024,_ZN8nlohmann16json_abi_v3_11_36detail6parserINS0_10basic_jsonISt3mapSt6vectorNSt7__cxx1112basic_stringIcSt11char_traitsIcESaIcEEEblmdSaNS0_14adl_serializerES5_IhSaIhEEvEENS1_20input_stream_adapterEE9get_tokenEv
FNDA:2,_ZN8nlohmann16json_abi_v3_11_36detail6parserINS0_10basic_jsonISt3mapSt6vectorNSt7__cxx1112basic_stringIcSt11char_traitsIcESaIcEEEblmdSaNS0_14adl_serializerES5_IhSaIhEEvEENS1_20input_stream_adapterEE17exception_messageENS1_10lexer_baseISF_E10token_typeERKSB_
FNDA:0,_ZN8nlohmann16json_abi_v3_11_36detail20primitive_iterator_t9set_beginEv
FNDA:0,_ZN8nlohmann16json_abi_v3_11_36detail20primitive_iterator_t7set_endEv
FNDA:0,_ZNK8nlohmann16json_abi_v3_11_36detail20primitive_iterator_t8is_beginEv
FNDA:0,_ZN8nlohmann16json_abi_v3_11_36detaileqENS1_20primitive_iterator_tES2_
FNDA:0,_ZN8nlohmann16json_abi_v3_11_36detail20primitive_iterator_tppEv
FNDA:16,_ZN8nlohmann16json_abi_v3_11_36detail9iter_implINS0_10basic_jsonISt3mapSt6vectorNSt7__cxx1112basic_stringIcSt11char_traitsIcESaIcEEEblmdSaNS0_14adl_serializerES5_IhSaIhEEvEEEC2EPSF_
FNDA:0,_ZN8nlohmann16json_abi_v3_11_36detail9iter_implINS0_10basic_jsonISt3mapSt6vectorNSt7__cxx1112basic_stringIcSt11char_traitsIcESaIcEEEblmdSaNS0_14adl_serializerES5_IhSaIhEEvEEEC2ERKSG_
FNDA:8,_ZN8nlohmann16json_abi_v3_11_36detail9iter_implINS0_10basic_jsonISt3mapSt6vectorNSt7__cxx1112basic_stringIcSt11char_traitsIcESaIcEEEblmdSaNS0_14adl_serializerES5_IhSaIhEEvEEE9set_beginEv
FNDA:8,_ZN8nlohmann16json_abi_v3_11_36detail9iter_implINS0_10basic_jsonISt3mapSt6vectorNSt7__cxx1112basic_stringIcSt11char_traitsIcESaIcEEEblmdSaNS0_14adl_serializerES5_IhSaIhEEvEEE7set_endEv
FNDA:16,_ZNK8nlohmann16json_abi_v3_11_36detail9iter_implINS0_10basic_jsonISt3mapSt6vectorNSt7__cxx1112basic_stringIcSt11char_traitsIcESaIcEEEblmdSaNS0_14adl_serializerES5_IhSaIhEEvEEEdeEv
FNDA:0,_ZNK8nlohmann16json_abi_v3_11_36detail9iter_implINS0_10basic_jsonISt3mapSt6vectorNSt7__cxx1112basic_stringIcSt11char_traitsIcESaIcEEEblmdSaNS0_14adl_serializerES5_IhSaIhEEvEEEptEv
FNDA:16,_ZN8nlohmann16json_abi_v3_11_36detail9iter_implINS0_10basic_jsonISt3mapSt6vectorNSt7__cxx1112basic_stringIcSt11char_traitsIcESaIcEEEblmdSaNS0_14adl_serializerES5_IhSaIhEEvEEEppEv
FNDA:24,_ZNK8nlohmann16json_abi_v3_11_36detail9iter_implINS0_10basic_jsonISt3mapSt6vectorNSt7__cxx1112basic_stringIcSt11char_traitsIcESaIcEEEblmdSaNS0_14adl_serializerES5_IhSaIhEEvEEEeqISG_LDnEEEbRKT_
FNDA:24,_ZNK8nlohmann16json_abi_v3_11_36detail9iter_implINS0_10basic_jsonISt3mapSt6vectorNSt7__cxx1112basic_stringIcSt11char_traitsIcESaIcEEEblmdSaNS0_14adl_serializerES5_IhSaIhEEvEEEneISG_LDnEEEbRKT_
FNDA:0,_ZNK8nlohmann16json_abi_v3_11_36detail8json_refINS0_10basic_jsonISt3mapSt6vectorNSt7__cxx1112basic_stringIcSt11char_traitsIcESaIcEEEblmdSaNS0_14adl_serializerES5_IhSaIhEEvEEE15moved_or_copiedEv
FNDA:0,_ZNK8nlohmann16json_abi_v3_11_36detail8json_refINS0_10basic_jsonISt3mapSt6vectorNSt7__cxx1112basic_stringIcSt11char_traitsIcESaIcEEEblmdSaNS0_14adl_serializerES5_IhSaIhEEvEEEdeEv
FNDA:0,_ZNK8nlohmann16json_abi_v3_11_36detail8json_refINS0_10basic_jsonISt3mapSt6vectorNSt7__cxx1112basic_stringIcSt11char_traitsIcESaIcEEEblmdSaNS0_14adl_serializerES5_IhSaIhEEvEEEptEv
FNDA:0,_ZN8nlohmann16json_abi_v3_11_36detail23output_adapter_protocolIcED0Ev
FNDA:4,_ZN8nlohmann16json_abi_v3_11_36detail23output_adapter_protocolIcED2Ev
FNDA:4,_ZN8nlohmann16json_abi_v3_11_36detail23output_adapter_protocolIcEC2Ev
FNDA:0,_ZN8nlohmann16json_abi_v3_11_36detail21output_stream_adapterIcEC2ERSo
FNDA:0,_ZN8nlohmann16json_abi_v3_11_36detail21output_stream_adapterIcE15write_characterEc
FNDA:0,_ZN8nlohmann16json_abi_v3_11_36detail21output_stream_adapterIcE16write_charactersEPKcm
FNDA:4,_ZN8nlohmann16json_abi_v3_11_36detail21output_string_adapterIcNSt7__cxx1112basic_stringIcSt11char_traitsIcESaIcEEEEC2ERS8_
FNDA:180,_ZN8nlohmann16json_abi_v3_11_36detail21output_string_adapterIcNSt7__cxx1112basic_stringIcSt11char_traitsIcESaIcEEEE15write_characterEc
FNDA:488,_ZN8nlohmann16json_abi_v3_11_36detail21output_string_adapterIcNSt7__cxx1112basic_stringIcSt11char_traitsIcESaIcEEEE16write_charactersEPKcm
FNDA:0,_ZN8nlohmann16json_abi_v3_11_36detail14output_adapterIcNSt7__cxx1112basic_stringIcSt11char_traitsIcESaIcEEEEC2ERSo
FNDA:4,_ZN8nlohmann16json_abi_v3_11_36detail14output_adapterIcNSt7__cxx1112basic_stringIcSt11char_traitsIcESaIcEEEEC2ERS8_
FNDA:4,_ZN8nlohmann16json_abi_v3_11_36detail14output_adapterIcNSt7__cxx1112basic_stringIcSt11char_traitsIcESaIcEEEEcvSt10shared_ptrINS1_23output_adapter_protocolIcEEEEv
FNDA:0,_ZN8nlohmann16json_abi_v3_11_36detail13binary_writerINS0_10basic_jsonISt3mapSt6vectorNSt7__cxx1112basic_stringIcSt11char_traitsIcESaIcEEEblmdSaNS0_14adl_serializerES5_IhSaIhEEvEEcE12to_char_typeIccLPv0EEEcT_
FNDA:20,_ZN8nlohmann16json_abi_v3_11_36detail9dtoa_impl16reinterpret_bitsImdEET_T0_
FNDA:260,_ZN8nlohmann16json_abi_v3_11_36detail9dtoa_impl5diyfpC2Emi
FNDA:40,_ZN8nlohmann16json_abi_v3_11_36detail9dtoa_impl5diyfp3subERKS3_S5_
FNDA:60,_ZN8nlohmann16json_abi_v3_11_36detail9dtoa_impl5diyfp3mulERKS3_S5_
FNDA:40,_ZN8nlohmann16json_abi_v3_11_36detail9dtoa_impl5diyfp9normalizeES3_
FNDA:20,_ZN8nlohmann16json_abi_v3_11_36detail9dtoa_impl5diyfp12normalize_toERKS3_i
FNDA:20,_ZN8nlohmann16json_abi_v3_11_36detail9dtoa_impl18compute_boundariesIdEENS2_10boundariesET_
FNDA:20,_ZN8nlohmann16json_abi_v3_11_36detail9dtoa_impl36get_cached_power_for_binary_exponentEi
FNDA:20,_ZN8nlohmann16json_abi_v3_11_36detail9dtoa_impl18find_largest_pow10EjRj
FNDA:20,_ZN8nlohmann16json_abi_v3_11_36detail9dtoa_impl12grisu2_roundEPcimmmm
FNDA:20,_ZN8nlohmann16json_abi_v3_11_36detail9dtoa_impl16grisu2_digit_genEPcRiS4_NS2_5diyfpES5_S5_
FNDA:20,_ZN8nlohmann16json_abi_v3_11_36detail9dtoa_impl6grisu2EPcRiS4_NS2_5diyfpES5_S5_
FNDA:20,_ZN8nlohmann16json_abi_v3_11_36detail9dtoa_impl6grisu2IdEEvPcRiS5_T_
FNDA:0,_ZN8nlohmann16json_abi_v3_11_36detail9dtoa_impl15append_exponentEPci
FNDA:20,_ZN8nlohmann16json_abi_v3_11_36detail9dtoa_impl13format_bufferEPciiii
FNDA:20,_ZN8nlohmann16json_abi_v3_11_36detail8to_charsIdEEPcS3_PKcT_
FNDA:4,_ZN8nlohmann16json_abi_v3_11_36detail10serializerINS0_10basic_jsonISt3mapSt6vectorNSt7__cxx1112basic_stringIcSt11char_traitsIcESaIcEEEblmdSaNS0_14adl_serializerES5_IhSaIhEEvEEEC2ESt10shared_ptrINS1_23output_adapter_protocolIcEEEcNS1_15error_handler_tE
FNDA:4,_ZN8nlohmann16json_abi_v3_11_36detail10serializerINS0_10basic_jsonISt3mapSt6vectorNSt7__cxx1112basic_stringIcSt11char_traitsIcESaIcEEEblmdSaNS0_14adl_serializerES5_IhSaIhEEvEEED2Ev
FNDA:104,_ZN8nlohmann16json_abi_v3_11_36detail10serializerINS0_10basic_jsonISt3mapSt6vectorNSt7__cxx1112basic_stringIcSt11char_traitsIcESaIcEEEblmdSaNS0_14adl_serializerES5_IhSaIhEEvEEE4dumpERKSF_bbjj
FNDA:108,_ZN8nlohmann16json_abi_v3_11_36detail10serializerINS0_10basic_jsonISt3mapSt6vectorNSt7__cxx1112basic_stringIcSt11char_traitsIcESaIcEEEblmdSaNS0_14adl_serializerES5_IhSaIhEEvEEE12dump_escapedERKSB_b
FNDA:32,_ZN8nlohmann16json_abi_v3_11_36detail10serializerINS0_10basic_jsonISt3mapSt6vectorNSt7__cxx1112basic_stringIcSt11char_traitsIcESaIcEEEblmdSaNS0_14adl_serializerES5_IhSaIhEEvEEE12count_digitsEm
FNDA:0,_ZN8nlohmann16json_abi_v3_11_36detail10serializerINS0_10basic_jsonISt3mapSt6vectorNSt7__cxx1112basic_stringIcSt11char_traitsIcESaIcEEEblmdSaNS0_14adl_serializerES5_IhSaIhEEvEEE9hex_bytesEh
FNDA:0,_ZN8nlohmann16json_abi_v3_11_36detail10serializerINS0_10basic_jsonISt3mapSt6vectorNSt7__cxx1112basic_stringIcSt11char_traitsIcESaIcEEEblmdSaNS0_14adl_serializerES5_IhSaIhEEvEEE18is_negative_numberIlLi0EEEbT_
FNDA:0,_ZN8nlohmann16json_abi_v3_11_36detail10serializerINS0_10basic_jsonISt3mapSt6vectorNSt7__cxx1112basic_stringIcSt11char_traitsIcESaIcEEEblmdSaNS0_14adl_serializerES5_IhSaIhEEvEEE18is_negative_numberIhLi0EEEbT_
FNDA:32,_ZN8nlohmann16json_abi_v3_11_36detail10serializerINS0_10basic_jsonISt3mapSt6vectorNSt7__cxx1112basic_stringIcSt11char_traitsIcESaIcEEEblmdSaNS0_14adl_serializerES5_IhSaIhEEvEEE18is_negative_numberImLi0EEEbT_
FNDA:0,_ZN8nlohmann16json_abi_v3_11_36detail10serializerINS0_10basic_jsonISt3mapSt6vectorNSt7__cxx1112basic_stringIcSt11char_traitsIcESaIcEEEblmdSaNS0_14adl_serializerES5_IhSaIhEEvEEE12dump_integerIhLi0EEEvT_
FNDA:0,_ZN8nlohmann16json_abi_v3_11_36detail10serializerINS0_10basic_jsonISt3mapSt6vectorNSt7__cxx1112basic_stringIcSt11char_traitsIcESaIcEEEblmdSaNS0_14adl_serializerES5_IhSaIhEEvEEE12dump_integerIlLi0EEEvT_
FNDA:32,_ZN8nlohmann16json_abi_v3_11_36detail10serializerINS0_10basic_jsonISt3mapSt6vectorNSt7__cxx1112basic_stringIcSt11char_traitsIcESaIcEEEblmdSaNS0_14adl_serializerES5_IhSaIhEEvEEE12dump_integerImLi0EEEvT_
FNDA:20,_ZN8nlohmann16json_abi_v3_11_36detail10serializerINS0_10basic_jsonISt3mapSt6vectorNSt7__cxx1112basic_stringIcSt11char_traitsIcESaIcEEEblmdSaNS0_14adl_serializerES5_IhSaIhEEvEEE10dump_floatEd
FNDA:20,_ZN8nlohmann16json_abi_v3_11_36detail10serializerINS0_10basic_jsonISt3mapSt6vectorNSt7__cxx1112basic_stringIcSt11char_traitsIcESaIcEEEblmdSaNS0_14adl_serializerES5_IhSaIhEEvEEE10dump_floatEdSt17integral_constantIbLb1EE
FNDA:1220,_ZN8nlohmann16json_abi_v3_11_36detail10serializerINS0_10basic_jsonISt3mapSt6vectorNSt7__cxx1112basic_stringIcSt11char_traitsIcESaIcEEEblmdSaNS0_14adl_serializerES5_IhSaIhEEvEEE6decodeERhRjh
FNDA:0,_ZN8nlohmann16json_abi_v3_11_36detail10serializerINS0_10basic_jsonISt3mapSt6vectorNSt7__cxx1112basic_stringIcSt11char_traitsIcESaIcEEEblmdSaNS0_14adl_serializerES5_IhSaIhEEvEEE11remove_signEl
FNDA:14,_ZN8nlohmann16json_abi_v3_11_310basic_jsonISt3mapSt6vectorNSt7__cxx1112basic_stringIcSt11char_traitsIcESaIcEEEblmdSaNS0_14adl_serializerES3_IhSaIhEEvE6parserINS0_6detail20input_stream_adapterEEENSF_6parserISD_T_EESI_St8functionIFbiNSF_13parse_event_tERSD_EEbb
FNDA:0,_ZN8nlohmann16json_abi_v3_11_310basic_jsonISt3mapSt6vectorNSt7__cxx1112basic_stringIcSt11char_traitsIcESaIcEEEblmdSaNS0_14adl_serializerES3_IhSaIhEEvE6createINS0_27byte_container_with_subtypeISC_EEJEEEPT_DpOT0_
FNDA:0,_ZN8nlohmann16json_abi_v3_11_310basic_jsonISt3mapSt6vectorNSt7__cxx1112basic_stringIcSt11char_traitsIcESaIcEEEblmdSaNS0_14adl_serializerES3_IhSaIhEEvE6createINS0_27byte_container_with_subtypeISC_EEJRKSG_EEEPT_DpOT0_
FNDA:68,_ZN8nlohmann16json_abi_v3_11_310basic_jsonISt3mapSt6vectorNSt7__cxx1112basic_stringIcSt11char_traitsIcESaIcEEEblmdSaNS0_14adl_serializerES3_IhSaIhEEvE6createIS2_IS9_SD_St4lessIvESaISt4pairIKS9_SD_EEEJEEEPT_DpOT0_
FNDA:0,_ZN8nlohmann16json_abi_v3_11_310basic_jsonISt3mapSt6vectorNSt7__cxx1112basic_stringIcSt11char_traitsIcESaIcEEEblmdSaNS0_14adl_serializerES3_IhSaIhEEvE6createIS2_IS9_SD_St4lessIvESaISt4pairIKS9_SD_EEEJRKSL_EEEPT_DpOT0_
FNDA:12,_ZN8nlohmann16json_abi_v3_11_310basic_jsonISt3mapSt6vectorNSt7__cxx1112basic_stringIcSt11char_traitsIcESaIcEEEblmdSaNS0_14adl_serializerES3_IhSaIhEEvE6createIS3_ISD_SaISD_EEJEEEPT_DpOT0_
FNDA:0,_ZN8nlohmann16json_abi_v3_11_310basic_jsonISt3mapSt6vectorNSt7__cxx1112basic_stringIcSt11char_traitsIcESaIcEEEblmdSaNS0_14adl_serializerES3_IhSaIhEEvE6createIS3_ISD_SaISD_EEJPKNS0_6detail8json_refISD_EESL_EEEPT_DpOT0_
FNDA:0,_ZN8nlohmann16json_abi_v3_11_310basic_jsonISt3mapSt6vectorNSt7__cxx1112basic_stringIcSt11char_traitsIcESaIcEEEblmdSaNS0_14adl_serializerES3_IhSaIhEEvE6createIS3_ISD_SaISD_EEJRKSG_EEEPT_DpOT0_
FNDA:0,_ZN8nlohmann16json_abi_v3_11_310basic_jsonISt3mapSt6vectorNSt7__cxx1112basic_stringIcSt11char_traitsIcESaIcEEEblmdSaNS0_14adl_serializerES3_IhSaIhEEvE6createIS9_JRA1_KcEEEPT_DpOT0_
FNDA:42,_ZN8nlohmann16json_abi_v3_11_310basic_jsonISt3mapSt6vectorNSt7__cxx1112basic_stringIcSt11char_traitsIcESaIcEEEblmdSaNS0_14adl_serializerES3_IhSaIhEEvE6createIS9_JRKS9_EEEPT_DpOT0_
FNDA:16,_ZN8nlohmann16json_abi_v3_11_310basic_jsonISt3mapSt6vectorNSt7__cxx1112basic_stringIcSt11char_traitsIcESaIcEEEblmdSaNS0_14adl_serializerES3_IhSaIhEEvE6createIS9_JS9_EEEPT_DpOT0_
FNDA:0,_ZZN8nlohmann16json_abi_v3_11_310basic_jsonISt3mapSt6vectorNSt7__cxx1112basic_stringIcSt11char_traitsIcESaIcEEEblmdSaNS0_14adl_serializerES3_IhSaIhEEvE6createINS0_27byte_container_with_subtypeISC_EEJEEEPT_DpOT0_ENKUlPSG_E_clESM_
FNDA:0,_ZZN8nlohmann16json_abi_v3_11_310basic_jsonISt3mapSt6vectorNSt7__cxx1112basic_stringIcSt11char_traitsIcESaIcEEEblmdSaNS0_14adl_serializerES3_IhSaIhEEvE6createINS0_27byte_container_with_subtypeISC_EEJRKSG_EEEPT_DpOT0_ENKUlPSG_E_clESO_
FNDA:0,_ZZN8nlohmann16json_abi_v3_11_310basic_jsonISt3mapSt6vectorNSt7__cxx1112basic_stringIcSt11char_traitsIcESaIcEEEblmdSaNS0_14adl_serializerES3_IhSaIhEEvE6createIS2_IS9_SD_St4lessIvESaISt4pairIKS9_SD_EEEJEEEPT_DpOT0_ENKUlPSL_E_clESR_
FNDA:0,_ZZN8nlohmann16json_abi_v3_11_310basic_jsonISt3mapSt6vectorNSt7__cxx1112basic_stringIcSt11char_traitsIcESaIcEEEblmdSaNS0_14adl_serializerES3_IhSaIhEEvE6createIS2_IS9_SD_St4lessIvESaISt4pairIKS9_SD_EEEJRKSL_EEEPT_DpOT0_ENKUlPSL_E_clEST_
FNDA:0,_ZZN8nlohmann16json_abi_v3_11_310basic_jsonISt3mapSt6vectorNSt7__cxx1112basic_stringIcSt11char_traitsIcESaIcEEEblmdSaNS0_14adl_serializerES3_IhSaIhEEvE6createIS3_ISD_SaISD_EEJEEEPT_DpOT0_ENKUlPSG_E_clESM_
FNDA:0,_ZZN8nlohmann16json_abi_v3_11_310basic_jsonISt3mapSt6vectorNSt7__cxx1112basic_stringIcSt11char_traitsIcESaIcEEEblmdSaNS0_14adl_serializerES3_IhSaIhEEvE6createIS3_ISD_SaISD_EEJPKNS0_6detail8json_refISD_EESL_EEEPT_DpOT0_ENKUlPSG_E_clESR_
FNDA:0,_ZZN8nlohmann16json_abi_v3_11_310basic_jsonISt3mapSt6vectorNSt7__cxx1112basic_stringIcSt11char_traitsIcESaIcEEEblmdSaNS0_14adl_serializerES3_IhSaIhEEvE6createIS3_ISD_SaISD_EEJRKSG_EEEPT_DpOT0_ENKUlPSG_E_clESO_
FNDA:0,_ZZN8nlohmann16json_abi_v3_11_310basic_jsonISt3mapSt6vectorNSt7__cxx1112basic_stringIcSt11char_traitsIcESaIcEEEblmdSaNS0_14adl_serializerES3_IhSaIhEEvE6createIS9_JRA1_KcEEEPT_DpOT0_ENKUlPS9_E_clESN_
FNDA:0,_ZZN8nlohmann16json_abi_v3_11_310basic_jsonISt3mapSt6vectorNSt7__cxx1112basic_stringIcSt11char_traitsIcESaIcEEEblmdSaNS0_14adl_serializerES3_IhSaIhEEvE6createIS9_JRKS9_EEEPT_DpOT0_ENKUlPS9_E_clESM_
FNDA:0,_ZZN8nlohmann16json_abi_v3_11_310basic_jsonISt3mapSt6vectorNSt7__cxx1112basic_stringIcSt11char_traitsIcESaIcEEEblmdSaNS0_14adl_serializerES3_IhSaIhEEvE6createIS9_JS9_EEEPT_DpOT0_ENKUlPS9_E_clESK_
FNDA:40,_ZN8nlohmann16json_abi_v3_11_310basic_jsonISt3mapSt6vectorNSt7__cxx1112basic_stringIcSt11char_traitsIcESaIcEEEblmdSaNS0_14adl_serializerES3_IhSaIhEEvE10json_valueC2Eb
FNDA:0,_ZN8nlohmann16json_abi_v3_11_310basic_jsonISt3mapSt6vectorNSt7__cxx1112basic_stringIcSt11char_traitsIcESaIcEEEblmdSaNS0_14adl_serializerES3_IhSaIhEEvE10json_valueC2El
FNDA:86,_ZN8nlohmann16json_abi_v3_11_310basic_jsonISt3mapSt6vectorNSt7__cxx1112basic_stringIcSt11char_traitsIcESaIcEEEblmdSaNS0_14adl_serializerES3_IhSaIhEEvE10json_valueC2Em
FNDA:68,_ZN8nlohmann16json_abi_v3_11_310basic_jsonISt3mapSt6vectorNSt7__cxx1112basic_stringIcSt11char_traitsIcESaIcEEEblmdSaNS0_14adl_serializerES3_IhSaIhEEvE10json_valueC2Ed
FNDA:452,_ZN8nlohmann16json_abi_v3_11_310basic_jsonISt3mapSt6vectorNSt7__cxx1112basic_stringIcSt11char_traitsIcESaIcEEEblmdSaNS0_14adl_serializerES3_IhSaIhEEvE10json_valueC2ENS0_6detail7value_tE
FNDA:42,_ZN8nlohmann16json_abi_v3_11_310basic_jsonISt3mapSt6vectorNSt7__cxx1112basic_stringIcSt11char_traitsIcESaIcEEEblmdSaNS0_14adl_serializerES3_IhSaIhEEvE10json_valueC2ERKS9_
FNDA:16,_ZN8nlohmann16json_abi_v3_11_310basic_jsonISt3mapSt6vectorNSt7__cxx1112basic_stringIcSt11char_traitsIcESaIcEEEblmdSaNS0_14adl_serializerES3_IhSaIhEEvE10json_valueC2EOS9_
FNDA:0,_ZN8nlohmann16json_abi_v3_11_310basic_jsonISt3mapSt6vectorNSt7__cxx1112basic_stringIcSt11char_traitsIcESaIcEEEblmdSaNS0_14adl_serializerES3_IhSaIhEEvE10json_valueC2ERKS2_IS9_SD_St4lessIvESaISt4pairIKS9_SD_EEE
FNDA:0,_ZN8nlohmann16json_abi_v3_11_310basic_jsonISt3mapSt6vectorNSt7__cxx1112basic_stringIcSt11char_traitsIcESaIcEEEblmdSaNS0_14adl_serializerES3_IhSaIhEEvE10json_valueC2ERKS3_ISD_SaISD_EE
FNDA:0,_ZN8nlohmann16json_abi_v3_11_310basic_jsonISt3mapSt6vectorNSt7__cxx1112basic_stringIcSt11char_traitsIcESaIcEEEblmdSaNS0_14adl_serializerES3_IhSaIhEEvE10json_valueC2ERKNS0_27byte_container_with_subtypeISC_EE
FNDA:1576,_ZN8nlohmann16json_abi_v3_11_310basic_jsonISt3mapSt6vectorNSt7__cxx1112basic_stringIcSt11char_traitsIcESaIcEEEblmdSaNS0_14adl_serializerES3_IhSaIhEEvE10json_value7destroyENS0_6detail7value_tE
FNDA:4512,_ZNK8nlohmann16json_abi_v3_11_310basic_jsonISt3mapSt6vectorNSt7__cxx1112basic_stringIcSt11char_traitsIcESaIcEEEblmdSaNS0_14adl_serializerES3_IhSaIhEEvE16assert_invariantEb
FNDA:1254,_ZN8nlohmann16json_abi_v3_11_310basic_jsonISt3mapSt6vectorNSt7__cxx1112basic_stringIcSt11char_traitsIcESaIcEEEblmdSaNS0_14adl_serializerES3_IhSaIhEEvE11set_parentsEv
FNDA:116,_ZN8nlohmann16json_abi_v3_11_310basic_jsonISt3mapSt6vectorNSt7__cxx1112basic_stringIcSt11char_traitsIcESaIcEEEblmdSaNS0_14adl_serializerES3_IhSaIhEEvE10set_parentERSD_m
FNDA:452,_ZN8nlohmann16json_abi_v3_11_310basic_jsonISt3mapSt6vectorNSt7__cxx1112basic_stringIcSt11char_traitsIcESaIcEEEblmdSaNS0_14adl_serializerES3_IhSaIhEEvEC2ENS0_6detail7value_tE
FNDA:372,_ZN8nlohmann16json_abi_v3_11_310basic_jsonISt3mapSt6vectorNSt7__cxx1112basic_stringIcSt11char_traitsIcESaIcEEEblmdSaNS0_14adl_serializerES3_IhSaIhEEvEC2EDn
FNDA:42,_ZN8nlohmann16json_abi_v3_11_310basic_jsonISt3mapSt6vectorNSt7__cxx1112basic_stringIcSt11char_traitsIcESaIcEEEblmdSaNS0_14adl_serializerES3_IhSaIhEEvEC2IRS9_S9_Li0EEEOT_
FNDA:24,_ZN8nlohmann16json_abi_v3_11_310basic_jsonISt3mapSt6vectorNSt7__cxx1112basic_stringIcSt11char_traitsIcESaIcEEEblmdSaNS0_14adl_serializerES3_IhSaIhEEvEC2IRbbLi0EEEOT_
FNDA:50,_ZN8nlohmann16json_abi_v3_11_310basic_jsonISt3mapSt6vectorNSt7__cxx1112basic_stringIcSt11char_traitsIcESaIcEEEblmdSaNS0_14adl_serializerES3_IhSaIhEEvEC2IRddLi0EEEOT_
FNDA:0,_ZN8nlohmann16json_abi_v3_11_310basic_jsonISt3mapSt6vectorNSt7__cxx1112basic_stringIcSt11char_traitsIcESaIcEEEblmdSaNS0_14adl_serializerES3_IhSaIhEEvEC2IRllLi0EEEOT_
FNDA:86,_ZN8nlohmann16json_abi_v3_11_310basic_jsonISt3mapSt6vectorNSt7__cxx1112basic_stringIcSt11char_traitsIcESaIcEEEblmdSaNS0_14adl_serializerES3_IhSaIhEEvEC2IRmmLi0EEEOT_
FNDA:16,_ZN8nlohmann16json_abi_v3_11_310basic_jsonISt3mapSt6vectorNSt7__cxx1112basic_stringIcSt11char_traitsIcESaIcEEEblmdSaNS0_14adl_serializerES3_IhSaIhEEvEC2IS9_S9_Li0EEEOT_
FNDA:16,_ZN8nlohmann16json_abi_v3_11_310basic_jsonISt3mapSt6vectorNSt7__cxx1112basic_stringIcSt11char_traitsIcESaIcEEEblmdSaNS0_14adl_serializerES3_IhSaIhEEvEC2IbbLi0EEEOT_
FNDA:18,_ZN8nlohmann16json_abi_v3_11_310basic_jsonISt3mapSt6vectorNSt7__cxx1112basic_stringIcSt11char_traitsIcESaIcEEEblmdSaNS0_14adl_serializerES3_IhSaIhEEvEC2IddLi0EEEOT_
FNDA:0,_ZN8nlohmann16json_abi_v3_11_310basic_jsonISt3mapSt6vectorNSt7__cxx1112basic_stringIcSt11char_traitsIcESaIcEEEblmdSaNS0_14adl_serializerES3_IhSaIhEEvEC2ESt16initializer_listINS0_6detail8json_refISD_EEEbNSF_7value_tE
FNDA:0,_ZZN8nlohmann16json_abi_v3_11_310basic_jsonISt3mapSt6vectorNSt7__cxx1112basic_stringIcSt11char_traitsIcESaIcEEEblmdSaNS0_14adl_serializerES3_IhSaIhEEvEC4ESt16initializer_listINS0_6detail8json_refISD_EEEbNSF_7value_tEENKUlRKSH_E_clESL_
FNDA:0,_ZN8nlohmann16json_abi_v3_11_310basic_jsonISt3mapSt6vectorNSt7__cxx1112basic_stringIcSt11char_traitsIcESaIcEEEblmdSaNS0_14adl_serializerES3_IhSaIhEEvE5arrayESt16initializer_listINS0_6detail8json_refISD_EEE
FNDA:0,_ZN8nlohmann16json_abi_v3_11_310basic_jsonISt3mapSt6vectorNSt7__cxx1112basic_stringIcSt11char_traitsIcESaIcEEEblmdSaNS0_14adl_serializerES3_IhSaIhEEvEC2INS0_6detail8json_refISD_EELi0EEERKT_
FNDA:0,_ZN8nlohmann16json_abi_v3_11_310basic_jsonISt3mapSt6vectorNSt7__cxx1112basic_stringIcSt11char_traitsIcESaIcEEEblmdSaNS0_14adl_serializerES3_IhSaIhEEvEC2ERKSD_
FNDA:620,_ZN8nlohmann16json_abi_v3_11_310basic_jsonISt3mapSt6vectorNSt7__cxx1112basic_stringIcSt11char_traitsIcESaIcEEEblmdSaNS0_14adl_serializerES3_IhSaIhEEvEC2EOSD_
FNDA:304,_ZN8nlohmann16json_abi_v3_11_310basic_jsonISt3mapSt6vectorNSt7__cxx1112basic_stringIcSt11char_traitsIcESaIcEEEblmdSaNS0_14adl_serializerES3_IhSaIhEEvEaSESD_
FNDA:1324,_ZN8nlohmann16json_abi_v3_11_310basic_jsonISt3mapSt6vectorNSt7__cxx1112basic_stringIcSt11char_traitsIcESaIcEEEblmdSaNS0_14adl_serializerES3_IhSaIhEEvED2Ev
FNDA:4,_ZNK8nlohmann16json_abi_v3_11_310basic_jsonISt3mapSt6vectorNSt7__cxx1112basic_stringIcSt11char_traitsIcESaIcEEEblmdSaNS0_14adl_serializerES3_IhSaIhEEvE4dumpEicbNS0_6detail15error_handler_tE
FNDA:8,_ZNK8nlohmann16json_abi_v3_11_310basic_jsonISt3mapSt6vectorNSt7__cxx1112basic_stringIcSt11char_traitsIcESaIcEEEblmdSaNS0_14adl_serializerES3_IhSaIhEEvE4typeEv
FNDA:0,_ZNK8nlohmann16json_abi_v3_11_310basic_jsonISt3mapSt6vectorNSt7__cxx1112basic_stringIcSt11char_traitsIcESaIcEEEblmdSaNS0_14adl_serializerES3_IhSaIhEEvE13is_structuredEv
FNDA:122,_ZNK8nlohmann16json_abi_v3_11_310basic_jsonISt3mapSt6vectorNSt7__cxx1112basic_stringIcSt11char_traitsIcESaIcEEEblmdSaNS0_14adl_serializerES3_IhSaIhEEvE7is_nullEv
FNDA:0,_ZNK8nlohmann16json_abi_v3_11_310basic_jsonISt3mapSt6vectorNSt7__cxx1112basic_stringIcSt11char_traitsIcESaIcEEEblmdSaNS0_14adl_serializerES3_IhSaIhEEvE9is_numberEv
FNDA:0,_ZNK8nlohmann16json_abi_v3_11_310basic_jsonISt3mapSt6vectorNSt7__cxx1112basic_stringIcSt11char_traitsIcESaIcEEEblmdSaNS0_14adl_serializerES3_IhSaIhEEvE17is_number_integerEv
FNDA:18,_ZNK8nlohmann16json_abi_v3_11_310basic_jsonISt3mapSt6vectorNSt7__cxx1112basic_stringIcSt11char_traitsIcESaIcEEEblmdSaNS0_14adl_serializerES3_IhSaIhEEvE18is_number_unsignedEv
FNDA:18,_ZNK8nlohmann16json_abi_v3_11_310basic_jsonISt3mapSt6vectorNSt7__cxx1112basic_stringIcSt11char_traitsIcESaIcEEEblmdSaNS0_14adl_serializerES3_IhSaIhEEvE15is_number_floatEv
FNDA:1264,_ZNK8nlohmann16json_abi_v3_11_310basic_jsonISt3mapSt6vectorNSt7__cxx1112basic_stringIcSt11char_traitsIcESaIcEEEblmdSaNS0_14adl_serializerES3_IhSaIhEEvE9is_objectEv
FNDA:840,_ZNK8nlohmann16json_abi_v3_11_310basic_jsonISt3mapSt6vectorNSt7__cxx1112basic_stringIcSt11char_traitsIcESaIcEEEblmdSaNS0_14adl_serializerES3_IhSaIhEEvE8is_arrayEv
FNDA:4,_ZNK8nlohmann16json_abi_v3_11_310basic_jsonISt3mapSt6vectorNSt7__cxx1112basic_stringIcSt11char_traitsIcESaIcEEEblmdSaNS0_14adl_serializerES3_IhSaIhEEvE9is_stringEv
FNDA:0,_ZNK8nlohmann16json_abi_v3_11_310basic_jsonISt3mapSt6vectorNSt7__cxx1112basic_stringIcSt11char_traitsIcESaIcEEEblmdSaNS0_14adl_serializerES3_IhSaIhEEvE9is_binaryEv
FNDA:0,_ZNK8nlohmann16json_abi_v3_11_310basic_jsonISt3mapSt6vectorNSt7__cxx1112basic_stringIcSt11char_traitsIcESaIcEEEblmdSaNS0_14adl_serializerES3_IhSaIhEEvE12is_discardedEv
FNDA:36,_ZNK8nlohmann16json_abi_v3_11_310basic_jsonISt3mapSt6vectorNSt7__cxx1112basic_stringIcSt11char_traitsIcESaIcEEEblmdSaNS0_14adl_serializerES3_IhSaIhEEvEcvNS0_6detail7value_tEEv
FNDA:2,_ZNK8nlohmann16json_abi_v3_11_310basic_jsonISt3mapSt6vectorNSt7__cxx1112basic_stringIcSt11char_traitsIcESaIcEEEblmdSaNS0_14adl_serializerES3_IhSaIhEEvE12get_impl_ptrEPKS9_
FNDA:0,_ZNK8nlohmann16json_abi_v3_11_310basic_jsonISt3mapSt6vectorNSt7__cxx1112basic_stringIcSt11char_traitsIcESaIcEEEblmdSaNS0_14adl_serializerES3_IhSaIhEEvE12get_impl_ptrEPKl
FNDA:18,_ZNK8nlohmann16json_abi_v3_11_310basic_jsonISt3mapSt6vectorNSt7__cxx1112basic_stringIcSt11char_traitsIcESaIcEEEblmdSaNS0_14adl_serializerES3_IhSaIhEEvE12get_impl_ptrEPKm
FNDA:18,_ZNK8nlohmann16json_abi_v3_11_310basic_jsonISt3mapSt6vectorNSt7__cxx1112basic_stringIcSt11char_traitsIcESaIcEEEblmdSaNS0_14adl_serializerES3_IhSaIhEEvE12get_impl_ptrEPKd
FNDA:2,_ZNK8nlohmann16json_abi_v3_11_310basic_jsonISt3mapSt6vectorNSt7__cxx1112basic_stringIcSt11char_traitsIcESaIcEEEblmdSaNS0_14adl_serializerES3_IhSaIhEEvE7get_ptrIPKS9_Li0EEEDTcldtclL_ZSt7declvalIRKSD_EDTcl9__declvalIT_ELi0EEEvEE12get_impl_ptrcl7declvalISK_EEEEv
FNDA:18,_ZNK8nlohmann16json_abi_v3_11_310basic_jsonISt3mapSt6vectorNSt7__cxx1112basic_stringIcSt11char_traitsIcESaIcEEEblmdSaNS0_14adl_serializerES3_IhSaIhEEvE7get_ptrIPKdLi0EEEDTcldtclL_ZSt7declvalIRKSD_EDTcl9__declvalIT_ELi0EEEvEE12get_impl_ptrcl7declvalISK_EEEEv
FNDA:0,_ZNK8nlohmann16json_abi_v3_11_310basic_jsonISt3mapSt6vectorNSt7__cxx1112basic_stringIcSt11char_traitsIcESaIcEEEblmdSaNS0_14adl_serializerES3_IhSaIhEEvE7get_ptrIPKlLi0EEEDTcldtclL_ZSt7declvalIRKSD_EDTcl9__declvalIT_ELi0EEEvEE12get_impl_ptrcl7declvalISK_EEEEv
FNDA:18,_ZNK8nlohmann16json_abi_v3_11_310basic_jsonISt3mapSt6vectorNSt7__cxx1112basic_stringIcSt11char_traitsIcESaIcEEEblmdSaNS0_14adl_serializerES3_IhSaIhEEvE7get_ptrIPKmLi0EEEDTcldtclL_ZSt7declvalIRKSD_EDTcl9__declvalIT_ELi0EEEvEE12get_impl_ptrcl7declvalISK_EEEEv
FNDA:2,_ZNK8nlohmann16json_abi_v3_11_310basic_jsonISt3mapSt6vectorNSt7__cxx1112basic_stringIcSt11char_traitsIcESaIcEEEblmdSaNS0_14adl_serializerES3_IhSaIhEEvE8get_implIS9_Li0EEET_NS0_6detail12priority_tagILj0EEE
FNDA:36,_ZNK8nlohmann16json_abi_v3_11_310basic_jsonISt3mapSt6vectorNSt7__cxx1112basic_stringIcSt11char_traitsIcESaIcEEEblmdSaNS0_14adl_serializerES3_IhSaIhEEvE8get_implIdLi0EEET_NS0_6detail12priority_tagILj0EEE
FNDA:2,_ZNK8nlohmann16json_abi_v3_11_310basic_jsonISt3mapSt6vectorNSt7__cxx1112basic_stringIcSt11char_traitsIcESaIcEEEblmdSaNS0_14adl_serializerES3_IhSaIhEEvE3getIS9_S9_EEDTcldtclL_ZSt7declvalIRKSD_EDTcl9__declvalIT_ELi0EEEvEE8get_implIT0_EcvNS0_6detail12priority_tagILj4EEEilEEEv
FNDA:36,_ZNK8nlohmann16json_abi_v3_11_310basic_jsonISt3mapSt6vectorNSt7__cxx1112basic_stringIcSt11char_traitsIcESaIcEEEblmdSaNS0_14adl_serializerES3_IhSaIhEEvE3getIddEEDTcldtclL_ZSt7declvalIRKSD_EDTcl9__declvalIT_ELi0EEEvEE8get_implIT0_EcvNS0_6detail12priority_tagILj4EEEilEEEv
FNDA:2,_ZNK8nlohmann16json_abi_v3_11_310basic_jsonISt3mapSt6vectorNSt7__cxx1112basic_stringIcSt11char_traitsIcESaIcEEEblmdSaNS0_14adl_serializerES3_IhSaIhEEvEcvT_IS9_Li0EEEv
FNDA:36,_ZNK8nlohmann16json_abi_v3_11_310basic_jsonISt3mapSt6vectorNSt7__cxx1112basic_stringIcSt11char_traitsIcESaIcEEEblmdSaNS0_14adl_serializerES3_IhSaIhEEvEcvT_IdLi0EEEv
FNDA:6,_ZN8nlohmann16json_abi_v3_11_310basic_jsonISt3mapSt6vectorNSt7__cxx1112basic_stringIcSt11char_traitsIcESaIcEEEblmdSaNS0_14adl_serializerES3_IhSaIhEEvEixEm
FNDA:8,_ZNK8nlohmann16json_abi_v3_11_310basic_jsonISt3mapSt6vectorNSt7__cxx1112basic_stringIcSt11char_traitsIcESaIcEEEblmdSaNS0_14adl_serializerES3_IhSaIhEEvEixEm
FNDA:116,_ZN8nlohmann16json_abi_v3_11_310basic_jsonISt3mapSt6vectorNSt7__cxx1112basic_stringIcSt11char_traitsIcESaIcEEEblmdSaNS0_14adl_serializerES3_IhSaIhEEvEixES9_
FNDA:8,_ZNK8nlohmann16json_abi_v3_11_310basic_jsonISt3mapSt6vectorNSt7__cxx1112basic_stringIcSt11char_traitsIcESaIcEEEblmdSaNS0_14adl_serializerES3_IhSaIhEEvEixERKS9_
FNDA:116,_ZN8nlohmann16json_abi_v3_11_310basic_jsonISt3mapSt6vectorNSt7__cxx1112basic_stringIcSt11char_traitsIcESaIcEEEblmdSaNS0_14adl_serializerES3_IhSaIhEEvEixIKcEERSD_PT_
FNDA:8,_ZNK8nlohmann16json_abi_v3_11_310basic_jsonISt3mapSt6vectorNSt7__cxx1112basic_stringIcSt11char_traitsIcESaIcEEEblmdSaNS0_14adl_serializerES3_IhSaIhEEvEixIKcEERKSD_PT_
FNDA:0,_ZN8nlohmann16json_abi_v3_11_310basic_jsonISt3mapSt6vectorNSt7__cxx1112basic_stringIcSt11char_traitsIcESaIcEEEblmdSaNS0_14adl_serializerES3_IhSaIhEEvE5eraseINS0_6detail9iter_implISD_EELi0EEET_SI_
FNDA:28,_ZNK8nlohmann16json_abi_v3_11_310basic_jsonISt3mapSt6vectorNSt7__cxx1112basic_stringIcSt11char_traitsIcESaIcEEEblmdSaNS0_14adl_serializerES3_IhSaIhEEvE8containsIRA10_KcLi0EEEbOT_
FNDA:14,_ZNK8nlohmann16json_abi_v3_11_310basic_jsonISt3mapSt6vectorNSt7__cxx1112basic_stringIcSt11char_traitsIcESaIcEEEblmdSaNS0_14adl_serializerES3_IhSaIhEEvE8containsIRA19_KcLi0EEEbOT_
FNDA:4,_ZNK8nlohmann16json_abi_v3_11_310basic_jsonISt3mapSt6vectorNSt7__cxx1112basic_stringIcSt11char_traitsIcESaIcEEEblmdSaNS0_14adl_serializerES3_IhSaIhEEvE8containsIRA20_KcLi0EEEbOT_
FNDA:4,_ZNK8nlohmann16json_abi_v3_11_310basic_jsonISt3mapSt6vectorNSt7__cxx1112basic_stringIcSt11char_traitsIcESaIcEEEblmdSaNS0_14adl_serializerES3_IhSaIhEEvE8containsIRA21_KcLi0EEEbOT_
FNDA:2,_ZNK8nlohmann16json_abi_v3_11_310basic_jsonISt3mapSt6vectorNSt7__cxx1112basic_stringIcSt11char_traitsIcESaIcEEEblmdSaNS0_14adl_serializerES3_IhSaIhEEvE8containsIRA23_KcLi0EEEbOT_
FNDA:16,_ZNK8nlohmann16json_abi_v3_11_310basic_jsonISt3mapSt6vectorNSt7__cxx1112basic_stringIcSt11char_traitsIcESaIcEEEblmdSaNS0_14adl_serializerES3_IhSaIhEEvE8containsIRA8_KcLi0EEEbOT_
FNDA:8,_ZN8nlohmann16json_abi_v3_11_310basic_jsonISt3mapSt6vectorNSt7__cxx1112basic_stringIcSt11char_traitsIcESaIcEEEblmdSaNS0_14adl_serializerES3_IhSaIhEEvE5beginEv
FNDA:8,_ZN8nlohmann16json_abi_v3_11_310basic_jsonISt3mapSt6vectorNSt7__cxx1112basic_stringIcSt11char_traitsIcESaIcEEEblmdSaNS0_14adl_serializerES3_IhSaIhEEvE3endEv
FNDA:0,_ZNK8nlohmann16json_abi_v3_11_310basic_jsonISt3mapSt6vectorNSt7__cxx1112basic_stringIcSt11char_traitsIcESaIcEEEblmdSaNS0_14adl_serializerES3_IhSaIhEEvE4sizeEv
FNDA:0,_ZNK8nlohmann16json_abi_v3_11_310basic_jsonISt3mapSt6vectorNSt7__cxx1112basic_stringIcSt11char_traitsIcESaIcEEEblmdSaNS0_14adl_serializerES3_IhSaIhEEvE8max_sizeEv
FNDA:0,_ZN8nlohmann16json_abi_v3_11_310basic_jsonISt3mapSt6vectorNSt7__cxx1112basic_stringIcSt11char_traitsIcESaIcEEEblmdSaNS0_14adl_serializerES3_IhSaIhEEvE9push_backERKSD_
FNDA:0,_ZN8nlohmann16json_abi_v3_11_310basic_jsonISt3mapSt6vectorNSt7__cxx1112basic_stringIcSt11char_traitsIcESaIcEEEblmdSaNS0_14adl_serializerES3_IhSaIhEEvE18compares_unorderedERKSD_SF_b
FNDA:4,_ZN8nlohmann16json_abi_v3_11_3eqERKNS0_10basic_jsonISt3mapSt6vectorNSt7__cxx1112basic_stringIcSt11char_traitsIcESaIcEEEblmdSaNS0_14adl_serializerES3_IhSaIhEEvEESF_
FNDA:4,_ZN8nlohmann16json_abi_v3_11_3eqIbLi0EEEbRKNS0_10basic_jsonISt3mapSt6vectorNSt7__cxx1112basic_stringIcSt11char_traitsIcESaIcEEEblmdSaNS0_14adl_serializerES4_IhSaIhEEvEET_
FNDA:0,_ZN8nlohmann16json_abi_v3_11_3lsERSoRKNS0_10basic_jsonISt3mapSt6vectorNSt7__cxx1112basic_stringIcSt11char_traitsIcESaIcEEEblmdSaNS0_14adl_serializerES4_IhSaIhEEvEE
FNDA:14,_ZN8nlohmann16json_abi_v3_11_3rsERSiRNS0_10basic_jsonISt3mapSt6vectorNSt7__cxx1112basic_stringIcSt11char_traitsIcESaIcEEEblmdSaNS0_14adl_serializerES4_IhSaIhEEvEE
FNDA:0,_ZNK8nlohmann16json_abi_v3_11_310basic_jsonISt3mapSt6vectorNSt7__cxx1112basic_stringIcSt11char_traitsIcESaIcEEEblmdSaNS0_14adl_serializerES3_IhSaIhEEvE9type_nameEv
FNDA:452,_ZN8nlohmann16json_abi_v3_11_310basic_jsonISt3mapSt6vectorNSt7__cxx1112basic_stringIcSt11char_traitsIcESaIcEEEblmdSaNS0_14adl_serializerES3_IhSaIhEEvE4dataC2ENS0_6detail7value_tE
FNDA:252,_ZN8nlohmann16json_abi_v3_11_310basic_jsonISt3mapSt6vectorNSt7__cxx1112basic_stringIcSt11char_traitsIcESaIcEEEblmdSaNS0_14adl_serializerES3_IhSaIhEEvE4dataC2Ev
FNDA:1324,_ZN8nlohmann16json_abi_v3_11_310basic_jsonISt3mapSt6vectorNSt7__cxx1112basic_stringIcSt11char_traitsIcESaIcEEEblmdSaNS0_14adl_serializerES3_IhSaIhEEvE4dataD2Ev
FNDA:0,_ZN8nlohmann16json_abi_v3_11_36detail17replace_substringINSt7__cxx1112basic_stringIcSt11char_traitsIcESaIcEEEEEvRT_RKS9_SC_
FNDA:0,_ZN8nlohmann16json_abi_v3_11_36detailL8unescapeINSt7__cxx1112basic_stringIcSt11char_traitsIcESaIcEEEEEvRT_
FNDA:2,_ZNK8nlohmann16json_abi_v3_11_36detail10position_tcvmEv
FNDA:12,_ZN8nlohmann16json_abi_v3_11_36detail13concat_lengthEv
FNDA:4,_ZN8nlohmann16json_abi_v3_11_36detail13concat_lengthIJEEEmcDpRKT_
FNDA:2,_ZN8nlohmann16json_abi_v3_11_36detail13concat_lengthIJNSt7__cxx1112basic_stringIcSt11char_traitsIcESaIcEEEA3_cEEEmcDpRKT_
FNDA:2,_ZN8nlohmann16json_abi_v3_11_36detail13concat_lengthIJA15_cNSt7__cxx1112basic_stringIcSt11char_traitsIcESaIcEEEcEEEmPKcDpRKT_
FNDA:4,_ZN8nlohmann16json_abi_v3_11_36detail13concat_lengthIJEEEmPKcDpRKT_
FNDA:2,_ZN8nlohmann16json_abi_v3_11_36detail13concat_lengthIJNSt7__cxx1112basic_stringIcSt11char_traitsIcESaIcEEEA10_cS8_EEEmPKcDpRKT_
FNDA:2,_ZN8nlohmann16json_abi_v3_11_36detail13concat_lengthIJNSt7__cxx1112basic_stringIcSt11char_traitsIcESaIcEEEA3_cS8_S8_EEEmPKcDpRKT_
FNDA:0,_ZN8nlohmann16json_abi_v3_11_36detail13concat_lengthIJNSt7__cxx1112basic_stringIcSt11char_traitsIcESaIcEEEA5_cS8_EEEmPKcDpRKT_
FNDA:2,_ZN8nlohmann16json_abi_v3_11_36detail13concat_lengthIJNSt7__cxx1112basic_stringIcSt11char_traitsIcESaIcEEEEEEmPKcDpRKT_
FNDA:2,_ZN8nlohmann16json_abi_v3_11_36detail13concat_lengthIJNSt7__cxx1112basic_stringIcSt11char_traitsIcESaIcEEES8_EEEmPKcDpRKT_
FNDA:4,_ZN8nlohmann16json_abi_v3_11_36detail13concat_lengthIJNSt7__cxx1112basic_stringIcSt11char_traitsIcESaIcEEEcEEEmPKcDpRKT_
FNDA:2,_ZN8nlohmann16json_abi_v3_11_36detail13concat_lengthIJNSt7__cxx1112basic_stringIcSt11char_traitsIcESaIcEEEcS8_A3_cEEEmPKcDpRKT_
FNDA:2,_ZN8nlohmann16json_abi_v3_11_36detail13concat_lengthIJPKcEEEmS4_DpRKT_
FNDA:2,_ZN8nlohmann16json_abi_v3_11_36detail13concat_lengthINSt7__cxx1112basic_stringIcSt11char_traitsIcESaIcEEEJA10_cS8_EEEmRKT_DpRKT0_
FNDA:2,_ZN8nlohmann16json_abi_v3_11_36detail13concat_lengthINSt7__cxx1112basic_stringIcSt11char_traitsIcESaIcEEEJA12_cS8_A3_cS8_S8_EEEmRKT_DpRKT0_
FNDA:2,_ZN8nlohmann16json_abi_v3_11_36detail13concat_lengthINSt7__cxx1112basic_stringIcSt11char_traitsIcESaIcEEEJA3_cEEEmRKT_DpRKT0_
FNDA:2,_ZN8nlohmann16json_abi_v3_11_36detail13concat_lengthINSt7__cxx1112basic_stringIcSt11char_traitsIcESaIcEEEJA3_cS8_S8_EEEmRKT_DpRKT0_
FNDA:0,_ZN8nlohmann16json_abi_v3_11_36detail13concat_lengthINSt7__cxx1112basic_stringIcSt11char_traitsIcESaIcEEEJA5_cS8_EEEmRKT_DpRKT0_
FNDA:4,_ZN8nlohmann16json_abi_v3_11_36detail13concat_lengthINSt7__cxx1112basic_stringIcSt11char_traitsIcESaIcEEEJEEEmRKT_DpRKT0_
FNDA:2,_ZN8nlohmann16json_abi_v3_11_36detail13concat_lengthINSt7__cxx1112basic_stringIcSt11char_traitsIcESaIcEEEJS8_EEEmRKT_DpRKT0_
FNDA:0,_ZN8nlohmann16json_abi_v3_11_36detail13concat_lengthINSt7__cxx1112basic_stringIcSt11char_traitsIcESaIcEEEJS8_S8_EEEmRKT_DpRKT0_
FNDA:4,_ZN8nlohmann16json_abi_v3_11_36detail13concat_lengthINSt7__cxx1112basic_stringIcSt11char_traitsIcESaIcEEEJcEEEmRKT_DpRKT0_
FNDA:2,_ZN8nlohmann16json_abi_v3_11_36detail13concat_lengthINSt7__cxx1112basic_stringIcSt11char_traitsIcESaIcEEEJcS8_A3_cEEEmRKT_DpRKT0_
FNDA:12,_ZN8nlohmann16json_abi_v3_11_36detail11concat_intoINSt7__cxx1112basic_stringIcSt11char_traitsIcESaIcEEEEEvRT_
FNDA:2,_ZN8nlohmann16json_abi_v3_11_36detail11concat_intoINSt7__cxx1112basic_stringIcSt11char_traitsIcESaIcEEEPKcJELi0EEEvRT_OT0_DpOT1_
FNDA:2,_ZN8nlohmann16json_abi_v3_11_36detail11concat_intoINSt7__cxx1112basic_stringIcSt11char_traitsIcESaIcEEEPKcJRA15_S9_S8_cELi0EEEvRT_OT0_DpOT1_
FNDA:2,_ZN8nlohmann16json_abi_v3_11_36detail11concat_intoINSt7__cxx1112basic_stringIcSt11char_traitsIcESaIcEEERA10_KcJS8_ELi0EEEvRT_OT0_DpOT1_
FNDA:2,_ZN8nlohmann16json_abi_v3_11_36detail11concat_intoINSt7__cxx1112basic_stringIcSt11char_traitsIcESaIcEEERA10_KcJS8_SB_S8_ELi0EEEvRT_OT0_DpOT1_
FNDA:2,_ZN8nlohmann16json_abi_v3_11_36detail11concat_intoINSt7__cxx1112basic_stringIcSt11char_traitsIcESaIcEEERA12_KcJPS9_ELi0EEEvRT_OT0_DpOT1_
FNDA:2,_ZN8nlohmann16json_abi_v3_11_36detail11concat_intoINSt7__cxx1112basic_stringIcSt11char_traitsIcESaIcEEERA12_KcJS8_RA3_S9_S8_RKS8_ELi0EEEvRT_OT0_DpOT1_
FNDA:2,_ZN8nlohmann16json_abi_v3_11_36detail11concat_intoINSt7__cxx1112basic_stringIcSt11char_traitsIcESaIcEEERA15_KcJRKS8_cELi0EEEvRT_OT0_DpOT1_
FNDA:2,_ZN8nlohmann16json_abi_v3_11_36detail11concat_intoINSt7__cxx1112basic_stringIcSt11char_traitsIcESaIcEEERA15_KcJS8_cELi0EEEvRT_OT0_DpOT1_
FNDA:2,_ZN8nlohmann16json_abi_v3_11_36detail11concat_intoINSt7__cxx1112basic_stringIcSt11char_traitsIcESaIcEEERA17_KcJRKS8_cS8_RA3_S9_ELi0EEEvRT_OT0_DpOT1_
FNDA:0,_ZN8nlohmann16json_abi_v3_11_36detail11concat_intoINSt7__cxx1112basic_stringIcSt11char_traitsIcESaIcEEERA23_KcJS8_ELi0EEEvRT_OT0_DpOT1_
FNDA:0,_ZN8nlohmann16json_abi_v3_11_36detail11concat_intoINSt7__cxx1112basic_stringIcSt11char_traitsIcESaIcEEERA24_KcJS8_ELi0EEEvRT_OT0_DpOT1_
FNDA:0,_ZN8nlohmann16json_abi_v3_11_36detail11concat_intoINSt7__cxx1112basic_stringIcSt11char_traitsIcESaIcEEERA25_KcJPS9_ELi0EEEvRT_OT0_DpOT1_
FNDA:0,_ZN8nlohmann16json_abi_v3_11_36detail11concat_intoINSt7__cxx1112basic_stringIcSt11char_traitsIcESaIcEEERA26_KcJS8_cELi0EEEvRT_OT0_DpOT1_
FNDA:0,_ZN8nlohmann16json_abi_v3_11_36detail11concat_intoINSt7__cxx1112basic_stringIcSt11char_traitsIcESaIcEEERA29_KcJPS9_ELi0EEEvRT_OT0_DpOT1_
FNDA:0,_ZN8nlohmann16json_abi_v3_11_36detail11concat_intoINSt7__cxx1112basic_stringIcSt11char_traitsIcESaIcEEERA29_KcJS8_RA5_S9_S8_ELi0EEEvRT_OT0_DpOT1_
FNDA:0,_ZN8nlohmann16json_abi_v3_11_36detail11concat_intoINSt7__cxx1112basic_stringIcSt11char_traitsIcESaIcEEERA39_KcJS8_ELi0EEEvRT_OT0_DpOT1_
FNDA:2,_ZN8nlohmann16json_abi_v3_11_36detail11concat_intoINSt7__cxx1112basic_stringIcSt11char_traitsIcESaIcEEERA3_KcJELi0EEEvRT_OT0_DpOT1_
FNDA:2,_ZN8nlohmann16json_abi_v3_11_36detail11concat_intoINSt7__cxx1112basic_stringIcSt11char_traitsIcESaIcEEERA3_KcJS8_RKS8_ELi0EEEvRT_OT0_DpOT1_
FNDA:0,_ZN8nlohmann16json_abi_v3_11_36detail11concat_intoINSt7__cxx1112basic_stringIcSt11char_traitsIcESaIcEEERA51_KcJPS9_ELi0EEEvRT_OT0_DpOT1_
FNDA:0,_ZN8nlohmann16json_abi_v3_11_36detail11concat_intoINSt7__cxx1112basic_stringIcSt11char_traitsIcESaIcEEERA52_KcJPS9_ELi0EEEvRT_OT0_DpOT1_
FNDA:0,_ZN8nlohmann16json_abi_v3_11_36detail11concat_intoINSt7__cxx1112basic_stringIcSt11char_traitsIcESaIcEEERA5_KcJS8_ELi0EEEvRT_OT0_DpOT1_
FNDA:2,_ZN8nlohmann16json_abi_v3_11_36detail11concat_intoINSt7__cxx1112basic_stringIcSt11char_traitsIcESaIcEEERKS8_JELi0EEEvRT_OT0_DpOT1_
FNDA:2,_ZN8nlohmann16json_abi_v3_11_36detail11concat_intoINSt7__cxx1112basic_stringIcSt11char_traitsIcESaIcEEERKS8_JcELi0EEEvRT_OT0_DpOT1_
FNDA:2,_ZN8nlohmann16json_abi_v3_11_36detail11concat_intoINSt7__cxx1112basic_stringIcSt11char_traitsIcESaIcEEERKS8_JcS8_RA3_KcELi0EEEvRT_OT0_DpOT1_
FNDA:2,_ZN8nlohmann16json_abi_v3_11_36detail11concat_intoINSt7__cxx1112basic_stringIcSt11char_traitsIcESaIcEEES8_JELi0EEEvRT_OT0_DpOT1_
FNDA:2,_ZN8nlohmann16json_abi_v3_11_36detail11concat_intoINSt7__cxx1112basic_stringIcSt11char_traitsIcESaIcEEES8_JRA10_KcS8_ELi0EEEvRT_OT0_DpOT1_
FNDA:2,_ZN8nlohmann16json_abi_v3_11_36detail11concat_intoINSt7__cxx1112basic_stringIcSt11char_traitsIcESaIcEEES8_JRA12_KcS8_RA3_S9_S8_RKS8_ELi0EEEvRT_OT0_DpOT1_
FNDA:2,_ZN8nlohmann16json_abi_v3_11_36detail11concat_intoINSt7__cxx1112basic_stringIcSt11char_traitsIcESaIcEEES8_JRA3_KcELi0EEEvRT_OT0_DpOT1_
FNDA:2,_ZN8nlohmann16json_abi_v3_11_36detail11concat_intoINSt7__cxx1112basic_stringIcSt11char_traitsIcESaIcEEES8_JRA3_KcS8_RKS8_ELi0EEEvRT_OT0_DpOT1_
FNDA:0,_ZN8nlohmann16json_abi_v3_11_36detail11concat_intoINSt7__cxx1112basic_stringIcSt11char_traitsIcESaIcEEES8_JRA5_KcS8_ELi0EEEvRT_OT0_DpOT1_
FNDA:2,_ZN8nlohmann16json_abi_v3_11_36detail11concat_intoINSt7__cxx1112basic_stringIcSt11char_traitsIcESaIcEEES8_JRKS8_ELi0EEEvRT_OT0_DpOT1_
FNDA:0,_ZN8nlohmann16json_abi_v3_11_36detail11concat_intoINSt7__cxx1112basic_stringIcSt11char_traitsIcESaIcEEES8_JS8_RKS8_ELi0EEEvRT_OT0_DpOT1_
FNDA:2,_ZN8nlohmann16json_abi_v3_11_36detail11concat_intoINSt7__cxx1112basic_stringIcSt11char_traitsIcESaIcEEES8_JcELi0EEEvRT_OT0_DpOT1_
FNDA:4,_ZN8nlohmann16json_abi_v3_11_36detail11concat_intoINSt7__cxx1112basic_stringIcSt11char_traitsIcESaIcEEEcJELi0EEEvRT_OT0_DpOT1_
FNDA:2,_ZN8nlohmann16json_abi_v3_11_36detail11concat_intoINSt7__cxx1112basic_stringIcSt11char_traitsIcESaIcEEEcJS8_RA3_KcELi0EEEvRT_OT0_DpOT1_
FNDA:2,_ZN8nlohmann16json_abi_v3_11_36detail6concatINSt7__cxx1112basic_stringIcSt11char_traitsIcESaIcEEEJPKcRA15_S9_S8_cEEET_DpOT0_
FNDA:2,_ZN8nlohmann16json_abi_v3_11_36detail6concatINSt7__cxx1112basic_stringIcSt11char_traitsIcESaIcEEEJRA10_KcS8_SB_S8_EEET_DpOT0_
FNDA:2,_ZN8nlohmann16json_abi_v3_11_36detail6concatINSt7__cxx1112basic_stringIcSt11char_traitsIcESaIcEEEJRA12_KcPS9_EEET_DpOT0_
FNDA:2,_ZN8nlohmann16json_abi_v3_11_36detail6concatINSt7__cxx1112basic_stringIcSt11char_traitsIcESaIcEEEJRA15_KcRKS8_cEEET_DpOT0_
FNDA:2,_ZN8nlohmann16json_abi_v3_11_36detail6concatINSt7__cxx1112basic_stringIcSt11char_traitsIcESaIcEEEJRA17_KcRKS8_cS8_RA3_S9_EEET_DpOT0_
FNDA:0,_ZN8nlohmann16json_abi_v3_11_36detail6concatINSt7__cxx1112basic_stringIcSt11char_traitsIcESaIcEEEJRA23_KcS8_EEET_DpOT0_
FNDA:0,_ZN8nlohmann16json_abi_v3_11_36detail6concatINSt7__cxx1112basic_stringIcSt11char_traitsIcESaIcEEEJRA24_KcS8_EEET_DpOT0_
FNDA:0,_ZN8nlohmann16json_abi_v3_11_36detail6concatINSt7__cxx1112basic_stringIcSt11char_traitsIcESaIcEEEJRA25_KcPS9_EEET_DpOT0_
FNDA:0,_ZN8nlohmann16json_abi_v3_11_36detail6concatINSt7__cxx1112basic_stringIcSt11char_traitsIcESaIcEEEJRA26_KcS8_cEEET_DpOT0_
FNDA:0,_ZN8nlohmann16json_abi_v3_11_36detail6concatINSt7__cxx1112basic_stringIcSt11char_traitsIcESaIcEEEJRA29_KcPS9_EEET_DpOT0_
FNDA:0,_ZN8nlohmann16json_abi_v3_11_36detail6concatINSt7__cxx1112basic_stringIcSt11char_traitsIcESaIcEEEJRA29_KcS8_RA5_S9_S8_EEET_DpOT0_
FNDA:0,_ZN8nlohmann16json_abi_v3_11_36detail6concatINSt7__cxx1112basic_stringIcSt11char_traitsIcESaIcEEEJRA39_KcS8_EEET_DpOT0_
FNDA:0,_ZN8nlohmann16json_abi_v3_11_36detail6concatINSt7__cxx1112basic_stringIcSt11char_traitsIcESaIcEEEJRA51_KcPS9_EEET_DpOT0_
FNDA:0,_ZN8nlohmann16json_abi_v3_11_36detail6concatINSt7__cxx1112basic_stringIcSt11char_traitsIcESaIcEEEJRA52_KcPS9_EEET_DpOT0_
FNDA:2,_ZN8nlohmann16json_abi_v3_11_36detail6concatINSt7__cxx1112basic_stringIcSt11char_traitsIcESaIcEEEJS8_RA12_KcS8_RA3_S9_S8_RKS8_EEET_DpOT0_
FNDA:0,_ZN8nlohmann16json_abi_v3_11_36detail6concatINSt7__cxx1112basic_stringIcSt11char_traitsIcESaIcEEEJS8_S8_RKS8_EEET_DpOT0_
FNDA:0,_ZNK8nlohmann16json_abi_v3_11_36detail9exception4whatEv
FNDA:2,_ZN8nlohmann16json_abi_v3_11_36detail9exceptionC2EiPKc
FNDA:2,_ZN8nlohmann16json_abi_v3_11_36detail9exception4nameERKNSt7__cxx1112basic_stringIcSt11char_traitsIcESaIcEEEi
FNDA:2,_ZN8nlohmann16json_abi_v3_11_36detail9exception11diagnosticsB5cxx11EDn
FNDA:0,_ZN8nlohmann16json_abi_v3_11_36detail9exception11diagnosticsINS0_10basic_jsonISt3mapSt6vectorNSt7__cxx1112basic_stringIcSt11char_traitsIcESaIcEEEblmdSaNS0_14adl_serializerES6_IhSaIhEEvEEEESC_PKT_
FNDA:2,_ZN8nlohmann16json_abi_v3_11_36detail11parse_error6createIDnLi0EEES2_iRKNS1_10position_tERKNSt7__cxx1112basic_stringIcSt11char_traitsIcESaIcEEET_
FNDA:2,_ZN8nlohmann16json_abi_v3_11_36detail11parse_errorC2EimPKc
FNDA:2,_ZN8nlohmann16json_abi_v3_11_36detail11parse_error15position_stringB5cxx11ERKNS1_10position_tE
FNDA:0,_ZN8nlohmann16json_abi_v3_11_36detail16invalid_iterator6createIPNS0_10basic_jsonISt3mapSt6vectorNSt7__cxx1112basic_stringIcSt11char_traitsIcESaIcEEEblmdSaNS0_14adl_serializerES6_IhSaIhEEvEELi0EEES2_iRKSC_T_
FNDA:0,_ZN8nlohmann16json_abi_v3_11_36detail16invalid_iteratorC2EiPKc
FNDA:0,_ZN8nlohmann16json_abi_v3_11_36detail10type_error6createIDnLi0EEES2_iRKNSt7__cxx1112basic_stringIcSt11char_traitsIcESaIcEEET_
FNDA:0,_ZN8nlohmann16json_abi_v3_11_36detail10type_error6createIPKNS0_10basic_jsonISt3mapSt6vectorNSt7__cxx1112basic_stringIcSt11char_traitsIcESaIcEEEblmdSaNS0_14adl_serializerES6_IhSaIhEEvEELi0EEES2_iRKSC_T_
FNDA:0,_ZN8nlohmann16json_abi_v3_11_36detail10type_error6createIPNS0_10basic_jsonISt3mapSt6vectorNSt7__cxx1112basic_stringIcSt11char_traitsIcESaIcEEEblmdSaNS0_14adl_serializerES6_IhSaIhEEvEELi0EEES2_iRKSC_T_
FNDA:0,_ZN8nlohmann16json_abi_v3_11_36detail10type_errorC2EiPKc
FNDA:0,_ZN8nlohmann16json_abi_v3_11_36detail12out_of_range6createIDnLi0EEES2_iRKNSt7__cxx1112basic_stringIcSt11char_traitsIcESaIcEEET_
FNDA:0,_ZN8nlohmann16json_abi_v3_11_36detail12out_of_range6createIPNS0_10basic_jsonISt3mapSt6vectorNSt7__cxx1112basic_stringIcSt11char_traitsIcESaIcEEEblmdSaNS0_14adl_serializerES6_IhSaIhEEvEELi0EEES2_iRKSC_T_
FNDA:0,_ZN8nlohmann16json_abi_v3_11_36detail12out_of_rangeC2EiPKc
FNDA:0,_ZN8nlohmann16json_abi_v3_11_36detail11other_error6createIDnLi0EEES2_iRKNSt7__cxx1112basic_stringIcSt11char_traitsIcESaIcEEET_
FNDA:0,_ZN8nlohmann16json_abi_v3_11_36detail11other_errorC2EiPKc
FNDA:36,_ZN8nlohmann16json_abi_v3_11_36detail20get_arithmetic_valueINS0_10basic_jsonISt3mapSt6vectorNSt7__cxx1112basic_stringIcSt11char_traitsIcESaIcEEEblmdSaNS0_14adl_serializerES5_IhSaIhEEvEEdLi0EEEvRKT_RT0_
FNDA:2,_ZN8nlohmann16json_abi_v3_11_36detail9from_jsonINS0_10basic_jsonISt3mapSt6vectorNSt7__cxx1112basic_stringIcSt11char_traitsIcESaIcEEEblmdSaNS0_14adl_serializerES5_IhSaIhEEvEEEEvRKT_RNSG_8string_tE
FNDA:36,_ZN8nlohmann16json_abi_v3_11_36detail9from_jsonINS0_10basic_jsonISt3mapSt6vectorNSt7__cxx1112basic_stringIcSt11char_traitsIcESaIcEEEblmdSaNS0_14adl_serializerES5_IhSaIhEEvEEEEvRKT_RNSG_14number_float_tE
FNDA:2,_ZNK8nlohmann16json_abi_v3_11_36detail12from_json_fnclINS0_10basic_jsonISt3mapSt6vectorNSt7__cxx1112basic_stringIcSt11char_traitsIcESaIcEEEblmdSaNS0_14adl_serializerES6_IhSaIhEEvEERSC_EEDTcl9from_jsonfp_cl7forwardIT0_Efp0_EEERKT_OSI_
FNDA:36,_ZNK8nlohmann16json_abi_v3_11_36detail12from_json_fnclINS0_10basic_jsonISt3mapSt6vectorNSt7__cxx1112basic_stringIcSt11char_traitsIcESaIcEEEblmdSaNS0_14adl_serializerES6_IhSaIhEEvEERdEEDTcl9from_jsonfp_cl7forwardIT0_Efp0_EEERKT_OSI_
FNDA:40,_ZN8nlohmann16json_abi_v3_11_36detail20external_constructorILNS1_7value_tE4EE9constructINS0_10basic_jsonISt3mapSt6vectorNSt7__cxx1112basic_stringIcSt11char_traitsIcESaIcEEEblmdSaNS0_14adl_serializerES8_IhSaIhEEvEEEEvRT_NSJ_9boolean_tE
FNDA:42,_ZN8nlohmann16json_abi_v3_11_36detail20external_constructorILNS1_7value_tE3EE9constructINS0_10basic_jsonISt3mapSt6vectorNSt7__cxx1112basic_stringIcSt11char_traitsIcESaIcEEEblmdSaNS0_14adl_serializerES8_IhSaIhEEvEEEEvRT_RKNSJ_8string_tE
FNDA:16,_ZN8nlohmann16json_abi_v3_11_36detail20external_constructorILNS1_7value_tE3EE9constructINS0_10basic_jsonISt3mapSt6vectorNSt7__cxx1112basic_stringIcSt11char_traitsIcESaIcEEEblmdSaNS0_14adl_serializerES8_IhSaIhEEvEEEEvRT_ONSJ_8string_tE
FNDA:68,_ZN8nlohmann16json_abi_v3_11_36detail20external_constructorILNS1_7value_tE7EE9constructINS0_10basic_jsonISt3mapSt6vectorNSt7__cxx1112basic_stringIcSt11char_traitsIcESaIcEEEblmdSaNS0_14adl_serializerES8_IhSaIhEEvEEEEvRT_NSJ_14number_float_tE
FNDA:86,_ZN8nlohmann16json_abi_v3_11_36detail20external_constructorILNS1_7value_tE6EE9constructINS0_10basic_jsonISt3mapSt6vectorNSt7__cxx1112basic_stringIcSt11char_traitsIcESaIcEEEblmdSaNS0_14adl_serializerES8_IhSaIhEEvEEEEvRT_NSJ_17number_unsigned_tE
FNDA:0,_ZN8nlohmann16json_abi_v3_11_36detail20external_constructorILNS1_7value_tE5EE9constructINS0_10basic_jsonISt3mapSt6vectorNSt7__cxx1112basic_stringIcSt11char_traitsIcESaIcEEEblmdSaNS0_14adl_serializerES8_IhSaIhEEvEEEEvRT_NSJ_16number_integer_tE
FNDA:40,_ZN8nlohmann16json_abi_v3_11_36detail7to_jsonINS0_10basic_jsonISt3mapSt6vectorNSt7__cxx1112basic_stringIcSt11char_traitsIcESaIcEEEblmdSaNS0_14adl_serializerES5_IhSaIhEEvEEbLi0EEEvRT_T0_
FNDA:42,_ZN8nlohmann16json_abi_v3_11_36detail7to_jsonINS0_10basic_jsonISt3mapSt6vectorNSt7__cxx1112basic_stringIcSt11char_traitsIcESaIcEEEblmdSaNS0_14adl_serializerES5_IhSaIhEEvEESB_Li0EEEvRT_RKT0_
FNDA:16,_ZN8nlohmann16json_abi_v3_11_36detail7to_jsonINS0_10basic_jsonISt3mapSt6vectorNSt7__cxx1112basic_stringIcSt11char_traitsIcESaIcEEEblmdSaNS0_14adl_serializerES5_IhSaIhEEvEEEEvRT_ONSG_8string_tE
FNDA:68,_ZN8nlohmann16json_abi_v3_11_36detail7to_jsonINS0_10basic_jsonISt3mapSt6vectorNSt7__cxx1112basic_stringIcSt11char_traitsIcESaIcEEEblmdSaNS0_14adl_serializerES5_IhSaIhEEvEEdLi0EEEvRT_T0_
FNDA:86,_ZN8nlohmann16json_abi_v3_11_36detail7to_jsonINS0_10basic_jsonISt3mapSt6vectorNSt7__cxx1112basic_stringIcSt11char_traitsIcESaIcEEEblmdSaNS0_14adl_serializerES5_IhSaIhEEvEEmLi0EEEvRT_T0_
FNDA:0,_ZN8nlohmann16json_abi_v3_11_36detail7to_jsonINS0_10basic_jsonISt3mapSt6vectorNSt7__cxx1112basic_stringIcSt11char_traitsIcESaIcEEEblmdSaNS0_14adl_serializerES5_IhSaIhEEvEElLi0EEEvRT_T0_
FNDA:42,_ZNK8nlohmann16json_abi_v3_11_36detail10to_json_fnclINS0_10basic_jsonISt3mapSt6vectorNSt7__cxx1112basic_stringIcSt11char_traitsIcESaIcEEEblmdSaNS0_14adl_serializerES6_IhSaIhEEvEERSC_EEDTcmcl7to_jsonfp_cl7forwardIT0_Efp0_EEcvv_EERT_OSI_
FNDA:24,_ZNK8nlohmann16json_abi_v3_11_36detail10to_json_fnclINS0_10basic_jsonISt3mapSt6vectorNSt7__cxx1112basic_stringIcSt11char_traitsIcESaIcEEEblmdSaNS0_14adl_serializerES6_IhSaIhEEvEERbEEDTcmcl7to_jsonfp_cl7forwardIT0_Efp0_EEcvv_EERT_OSI_
FNDA:50,_ZNK8nlohmann16json_abi_v3_11_36detail10to_json_fnclINS0_10basic_jsonISt3mapSt6vectorNSt7__cxx1112basic_stringIcSt11char_traitsIcESaIcEEEblmdSaNS0_14adl_serializerES6_IhSaIhEEvEERdEEDTcmcl7to_jsonfp_cl7forwardIT0_Efp0_EEcvv_EERT_OSI_
FNDA:0,_ZNK8nlohmann16json_abi_v3_11_36detail10to_json_fnclINS0_10basic_jsonISt3mapSt6vectorNSt7__cxx1112basic_stringIcSt11char_traitsIcESaIcEEEblmdSaNS0_14adl_serializerES6_IhSaIhEEvEERlEEDTcmcl7to_jsonfp_cl7forwardIT0_Efp0_EEcvv_EERT_OSI_
FNDA:86,_ZNK8nlohmann16json_abi_v3_11_36detail10to_json_fnclINS0_10basic_jsonISt3mapSt6vectorNSt7__cxx1112basic_stringIcSt11char_traitsIcESaIcEEEblmdSaNS0_14adl_serializerES6_IhSaIhEEvEERmEEDTcmcl7to_jsonfp_cl7forwardIT0_Efp0_EEcvv_EERT_OSI_
FNDA:16,_ZNK8nlohmann16json_abi_v3_11_36detail10to_json_fnclINS0_10basic_jsonISt3mapSt6vectorNSt7__cxx1112basic_stringIcSt11char_traitsIcESaIcEEEblmdSaNS0_14adl_serializerES6_IhSaIhEEvEESC_EEDTcmcl7to_jsonfp_cl7forwardIT0_Efp0_EEcvv_EERT_OSH_
FNDA:16,_ZNK8nlohmann16json_abi_v3_11_36detail10to_json_fnclINS0_10basic_jsonISt3mapSt6vectorNSt7__cxx1112basic_stringIcSt11char_traitsIcESaIcEEEblmdSaNS0_14adl_serializerES6_IhSaIhEEvEEbEEDTcmcl7to_jsonfp_cl7forwardIT0_Efp0_EEcvv_EERT_OSH_
FNDA:18,_ZNK8nlohmann16json_abi_v3_11_36detail10to_json_fnclINS0_10basic_jsonISt3mapSt6vectorNSt7__cxx1112basic_stringIcSt11char_traitsIcESaIcEEEblmdSaNS0_14adl_serializerES6_IhSaIhEEvEEdEEDTcmcl7to_jsonfp_cl7forwardIT0_Efp0_EEcvv_EERT_OSH_
FNDA:2,_ZN8nlohmann16json_abi_v3_11_314adl_serializerINSt7__cxx1112basic_stringIcSt11char_traitsIcESaIcEEEvE9from_jsonIRKNS0_10basic_jsonISt3mapSt6vectorS7_blmdSaS1_SC_IhSaIhEEvEES7_EEDTcmclL_ZNS0_12_GLOBAL__N_19from_jsonEEcl7forwardIT_Efp_Efp0_Ecvv_EEOSJ_RT0_
FNDA:36,_ZN8nlohmann16json_abi_v3_11_314adl_serializerIdvE9from_jsonIRKNS0_10basic_jsonISt3mapSt6vectorNSt7__cxx1112basic_stringIcSt11char_traitsIcESaIcEEEblmdSaS1_S6_IhSaIhEEvEEdEEDTcmclL_ZNS0_12_GLOBAL__N_19from_jsonEEcl7forwardIT_Efp_Efp0_Ecvv_EEOSJ_RT0_
FNDA:42,_ZN8nlohmann16json_abi_v3_11_314adl_serializerINSt7__cxx1112basic_stringIcSt11char_traitsIcESaIcEEEvE7to_jsonINS0_10basic_jsonISt3mapSt6vectorS7_blmdSaS1_SC_IhSaIhEEvEERS7_EEDTcmclL_ZNS0_12_GLOBAL__N_17to_jsonEEfp_cl7forwardIT0_Efp0_EEcvv_EERT_OSI_
FNDA:16,_ZN8nlohmann16json_abi_v3_11_314adl_serializerINSt7__cxx1112basic_stringIcSt11char_traitsIcESaIcEEEvE7to_jsonINS0_10basic_jsonISt3mapSt6vectorS7_blmdSaS1_SC_IhSaIhEEvEES7_EEDTcmclL_ZNS0_12_GLOBAL__N_17to_jsonEEfp_cl7forwardIT0_Efp0_EEcvv_EERT_OSH_
FNDA:24,_ZN8nlohmann16json_abi_v3_11_314adl_serializerIbvE7to_jsonINS0_10basic_jsonISt3mapSt6vectorNSt7__cxx1112basic_stringIcSt11char_traitsIcESaIcEEEblmdSaS1_S6_IhSaIhEEvEERbEEDTcmclL_ZNS0_12_GLOBAL__N_17to_jsonEEfp_cl7forwardIT0_Efp0_EEcvv_EERT_OSI_
FNDA:16,_ZN8nlohmann16json_abi_v3_11_314adl_serializerIbvE7to_jsonINS0_10basic_jsonISt3mapSt6vectorNSt7__cxx1112basic_stringIcSt11char_traitsIcESaIcEEEblmdSaS1_S6_IhSaIhEEvEEbEEDTcmclL_ZNS0_12_GLOBAL__N_17to_jsonEEfp_cl7forwardIT0_Efp0_EEcvv_EERT_OSH_
FNDA:50,_ZN8nlohmann16json_abi_v3_11_314adl_serializerIdvE7to_jsonINS0_10basic_jsonISt3mapSt6vectorNSt7__cxx1112basic_stringIcSt11char_traitsIcESaIcEEEblmdSaS1_S6_IhSaIhEEvEERdEEDTcmclL_ZNS0_12_GLOBAL__N_17to_jsonEEfp_cl7forwardIT0_Efp0_EEcvv_EERT_OSI_
FNDA:18,_ZN8nlohmann16json_abi_v3_11_314adl_serializerIdvE7to_jsonINS0_10basic_jsonISt3mapSt6vectorNSt7__cxx1112basic_stringIcSt11char_traitsIcESaIcEEEblmdSaS1_S6_IhSaIhEEvEEdEEDTcmclL_ZNS0_12_GLOBAL__N_17to_jsonEEfp_cl7forwardIT0_Efp0_EEcvv_EERT_OSH_
FNDA:0,_ZN8nlohmann16json_abi_v3_11_314adl_serializerIlvE7to_jsonINS0_10basic_jsonISt3mapSt6vectorNSt7__cxx1112basic_stringIcSt11char_traitsIcESaIcEEEblmdSaS1_S6_IhSaIhEEvEERlEEDTcmclL_ZNS0_12_GLOBAL__N_17to_jsonEEfp_cl7forwardIT0_Efp0_EEcvv_EERT_OSI_
FNDA:86,_ZN8nlohmann16json_abi_v3_11_314adl_serializerImvE7to_jsonINS0_10basic_jsonISt3mapSt6vectorNSt7__cxx1112basic_stringIcSt11char_traitsIcESaIcEEEblmdSaS1_S6_IhSaIhEEvEERmEEDTcmclL_ZNS0_12_GLOBAL__N_17to_jsonEEfp_cl7forwardIT0_Efp0_EEcvv_EERT_OSI_
FNDA:0,_ZN8nlohmann16json_abi_v3_11_327byte_container_with_subtypeISt6vectorIhSaIhEEEC2Ev
FNDA:0,_ZNK8nlohmann16json_abi_v3_11_327byte_container_with_subtypeISt6vectorIhSaIhEEEeqERKS5_
FNDA:0,_ZNK8nlohmann16json_abi_v3_11_327byte_container_with_subtypeISt6vectorIhSaIhEEE7subtypeEv
FNDA:0,_ZNK8nlohmann16json_abi_v3_11_327byte_container_with_subtypeISt6vectorIhSaIhEEE11has_subtypeEv
FNDA:28,_ZN8nlohmann16json_abi_v3_11_36detail20input_stream_adapterD2Ev
FNDA:14,_ZN8nlohmann16json_abi_v3_11_36detail20input_stream_adapterC2ERSi
FNDA:14,_ZN8nlohmann16json_abi_v3_11_36detail20input_stream_adapterC2EOS2_
FNDA:8128,_ZN8nlohmann16json_abi_v3_11_36detail20input_stream_adapter13get_characterEv
FNDA:14,_ZN8nlohmann16json_abi_v3_11_36detail13input_adapterERSi
FNDA:14,_ZN8nlohmann16json_abi_v3_11_36detail19json_sax_dom_parserINS0_10basic_jsonISt3mapSt6vectorNSt7__cxx1112basic_stringIcSt11char_traitsIcESaIcEEEblmdSaNS0_14adl_serializerES5_IhSaIhEEvEEEC2ERSF_b
FNDA:14,_ZN8nlohmann16json_abi_v3_11_36detail19json_sax_dom_parserINS0_10basic_jsonISt3mapSt6vectorNSt7__cxx1112basic_stringIcSt11char_traitsIcESaIcEEEblmdSaNS0_14adl_serializerES5_IhSaIhEEvEEED2Ev
FNDA:0,_ZN8nlohmann16json_abi_v3_11_36detail19json_sax_dom_parserINS0_10basic_jsonISt3mapSt6vectorNSt7__cxx1112basic_stringIcSt11char_traitsIcESaIcEEEblmdSaNS0_14adl_serializerES5_IhSaIhEEvEEE4nullEv
FNDA:20,_ZN8nlohmann16json_abi_v3_11_36detail19json_sax_dom_parserINS0_10basic_jsonISt3mapSt6vectorNSt7__cxx1112basic_stringIcSt11char_traitsIcESaIcEEEblmdSaNS0_14adl_serializerES5_IhSaIhEEvEEE7booleanEb
FNDA:0,_ZN8nlohmann16json_abi_v3_11_36detail19json_sax_dom_parserINS0_10basic_jsonISt3mapSt6vectorNSt7__cxx1112basic_stringIcSt11char_traitsIcESaIcEEEblmdSaNS0_14adl_serializerES5_IhSaIhEEvEEE14number_integerEl
FNDA:86,_ZN8nlohmann16json_abi_v3_11_36detail19json_sax_dom_parserINS0_10basic_jsonISt3mapSt6vectorNSt7__cxx1112basic_stringIcSt11char_traitsIcESaIcEEEblmdSaNS0_14adl_serializerES5_IhSaIhEEvEEE15number_unsignedEm
FNDA:50,_ZN8nlohmann16json_abi_v3_11_36detail19json_sax_dom_parserINS0_10basic_jsonISt3mapSt6vectorNSt7__cxx1112basic_stringIcSt11char_traitsIcESaIcEEEblmdSaNS0_14adl_serializerES5_IhSaIhEEvEEE12number_floatEdRKSB_
FNDA:42,_ZN8nlohmann16json_abi_v3_11_36detail19json_sax_dom_parserINS0_10basic_jsonISt3mapSt6vectorNSt7__cxx1112basic_stringIcSt11char_traitsIcESaIcEEEblmdSaNS0_14adl_serializerES5_IhSaIhEEvEEE6stringERSB_
FNDA:68,_ZN8nlohmann16json_abi_v3_11_36detail19json_sax_dom_parserINS0_10basic_jsonISt3mapSt6vectorNSt7__cxx1112basic_stringIcSt11char_traitsIcESaIcEEEblmdSaNS0_14adl_serializerES5_IhSaIhEEvEEE12start_objectEm
FNDA:240,_ZN8nlohmann16json_abi_v3_11_36detail19json_sax_dom_parserINS0_10basic_jsonISt3mapSt6vectorNSt7__cxx1112basic_stringIcSt11char_traitsIcESaIcEEEblmdSaNS0_14adl_serializerES5_IhSaIhEEvEEE3keyERSB_
FNDA:66,_ZN8nlohmann16json_abi_v3_11_36detail19json_sax_dom_parserINS0_10basic_jsonISt3mapSt6vectorNSt7__cxx1112basic_stringIcSt11char_traitsIcESaIcEEEblmdSaNS0_14adl_serializerES5_IhSaIhEEvEEE10end_objectEv
FNDA:12,_ZN8nlohmann16json_abi_v3_11_36detail19json_sax_dom_parserINS0_10basic_jsonISt3mapSt6vectorNSt7__cxx1112basic_stringIcSt11char_traitsIcESaIcEEEblmdSaNS0_14adl_serializerES5_IhSaIhEEvEEE11start_arrayEm
FNDA:12,_ZN8nlohmann16json_abi_v3_11_36detail19json_sax_dom_parserINS0_10basic_jsonISt3mapSt6vectorNSt7__cxx1112basic_stringIcSt11char_traitsIcESaIcEEEblmdSaNS0_14adl_serializerES5_IhSaIhEEvEEE9end_arrayEv
FNDA:2,_ZN8nlohmann16json_abi_v3_11_36detail19json_sax_dom_parserINS0_10basic_jsonISt3mapSt6vectorNSt7__cxx1112basic_stringIcSt11char_traitsIcESaIcEEEblmdSaNS0_14adl_serializerES5_IhSaIhEEvEEE11parse_errorINS1_11parse_errorEEEbmRKSB_RKT_
FNDA:0,_ZN8nlohmann16json_abi_v3_11_36detail19json_sax_dom_parserINS0_10basic_jsonISt3mapSt6vectorNSt7__cxx1112basic_stringIcSt11char_traitsIcESaIcEEEblmdSaNS0_14adl_serializerES5_IhSaIhEEvEEE11parse_errorINS1_12out_of_rangeEEEbmRKSB_RKT_
FNDA:12,_ZNK8nlohmann16json_abi_v3_11_36detail19json_sax_dom_parserINS0_10basic_jsonISt3mapSt6vectorNSt7__cxx1112basic_stringIcSt11char_traitsIcESaIcEEEblmdSaNS0_14adl_serializerES5_IhSaIhEEvEEE10is_erroredEv
FNDA:0,_ZN8nlohmann16json_abi_v3_11_36detail19json_sax_dom_parserINS0_10basic_jsonISt3mapSt6vectorNSt7__cxx1112basic_stringIcSt11char_traitsIcESaIcEEEblmdSaNS0_14adl_serializerES5_IhSaIhEEvEEE12handle_valueIDnEEPSF_OT_
FNDA:80,_ZN8nlohmann16json_abi_v3_11_36detail19json_sax_dom_parserINS0_10basic_jsonISt3mapSt6vectorNSt7__cxx1112basic_stringIcSt11char_traitsIcESaIcEEEblmdSaNS0_14adl_serializerES5_IhSaIhEEvEEE12handle_valueINS1_7value_tEEEPSF_OT_
FNDA:42,_ZN8nlohmann16json_abi_v3_11_36detail19json_sax_dom_parserINS0_10basic_jsonISt3mapSt6vectorNSt7__cxx1112basic_stringIcSt11char_traitsIcESaIcEEEblmdSaNS0_14adl_serializerES5_IhSaIhEEvEEE12handle_valueIRSB_EEPSF_OT_
FNDA:20,_ZN8nlohmann16json_abi_v3_11_36detail19json_sax_dom_parserINS0_10basic_jsonISt3mapSt6vectorNSt7__cxx1112basic_stringIcSt11char_traitsIcESaIcEEEblmdSaNS0_14adl_serializerES5_IhSaIhEEvEEE12handle_valueIRbEEPSF_OT_
FNDA:50,_ZN8nlohmann16json_abi_v3_11_36detail19json_sax_dom_parserINS0_10basic_jsonISt3mapSt6vectorNSt7__cxx1112basic_stringIcSt11char_traitsIcESaIcEEEblmdSaNS0_14adl_serializerES5_IhSaIhEEvEEE12handle_valueIRdEEPSF_OT_
FNDA:0,_ZN8nlohmann16json_abi_v3_11_36detail19json_sax_dom_parserINS0_10basic_jsonISt3mapSt6vectorNSt7__cxx1112basic_stringIcSt11char_traitsIcESaIcEEEblmdSaNS0_14adl_serializerES5_IhSaIhEEvEEE12handle_valueIRlEEPSF_OT_
FNDA:86,_ZN8nlohmann16json_abi_v3_11_36detail19json_sax_dom_parserINS0_10basic_jsonISt3mapSt6vectorNSt7__cxx1112basic_stringIcSt11char_traitsIcESaIcEEEblmdSaNS0_14adl_serializerES5_IhSaIhEEvEEE12handle_valueIRmEEPSF_OT_
FNDA:0,_ZN8nlohmann16json_abi_v3_11_36detail28json_sax_dom_callback_parserINS0_10basic_jsonISt3mapSt6vectorNSt7__cxx1112basic_stringIcSt11char_traitsIcESaIcEEEblmdSaNS0_14adl_serializerES5_IhSaIhEEvEEEC2ERSF_St8functionIFbiNS1_13parse_event_tESH_EEb
FNDA:0,_ZN8nlohmann16json_abi_v3_11_36detail28json_sax_dom_callback_parserINS0_10basic_jsonISt3mapSt6vectorNSt7__cxx1112basic_stringIcSt11char_traitsIcESaIcEEEblmdSaNS0_14adl_serializerES5_IhSaIhEEvEEED2Ev
FNDA:0,_ZN8nlohmann16json_abi_v3_11_36detail28json_sax_dom_callback_parserINS0_10basic_jsonISt3mapSt6vectorNSt7__cxx1112basic_stringIcSt11char_traitsIcESaIcEEEblmdSaNS0_14adl_serializerES5_IhSaIhEEvEEE4nullEv
FNDA:0,_ZN8nlohmann16json_abi_v3_11_36detail28json_sax_dom_callback_parserINS0_10basic_jsonISt3mapSt6vectorNSt7__cxx1112basic_stringIcSt11char_traitsIcESaIcEEEblmdSaNS0_14adl_serializerES5_IhSaIhEEvEEE7booleanEb
FNDA:0,_ZN8nlohmann16json_abi_v3_11_36detail28json_sax_dom_callback_parserINS0_10basic_jsonISt3mapSt6vectorNSt7__cxx1112basic_stringIcSt11char_traitsIcESaIcEEEblmdSaNS0_14adl_serializerES5_IhSaIhEEvEEE14number_integerEl
FNDA:0,_ZN8nlohmann16json_abi_v3_11_36detail28json_sax_dom_callback_parserINS0_10basic_jsonISt3mapSt6vectorNSt7__cxx1112basic_stringIcSt11char_traitsIcESaIcEEEblmdSaNS0_14adl_serializerES5_IhSaIhEEvEEE15number_unsignedEm
FNDA:0,_ZN8nlohmann16json_abi_v3_11_36detail28json_sax_dom_callback_parserINS0_10basic_jsonISt3mapSt6vectorNSt7__cxx1112basic_stringIcSt11char_traitsIcESaIcEEEblmdSaNS0_14adl_serializerES5_IhSaIhEEvEEE12number_floatEdRKSB_
FNDA:0,_ZN8nlohmann16json_abi_v3_11_36detail28json_sax_dom_callback_parserINS0_10basic_jsonISt3mapSt6vectorNSt7__cxx1112basic_stringIcSt11char_traitsIcESaIcEEEblmdSaNS0_14adl_serializerES5_IhSaIhEEvEEE6stringERSB_
FNDA:0,_ZN8nlohmann16json_abi_v3_11_36detail28json_sax_dom_callback_parserINS0_10basic_jsonISt3mapSt6vectorNSt7__cxx1112basic_stringIcSt11char_traitsIcESaIcEEEblmdSaNS0_14adl_serializerES5_IhSaIhEEvEEE12start_objectEm
FNDA:0,_ZN8nlohmann16json_abi_v3_11_36detail28json_sax_dom_callback_parserINS0_10basic_jsonISt3mapSt6vectorNSt7__cxx1112basic_stringIcSt11char_traitsIcESaIcEEEblmdSaNS0_14adl_serializerES5_IhSaIhEEvEEE3keyERSB_
FNDA:0,_ZN8nlohmann16json_abi_v3_11_36detail28json_sax_dom_callback_parserINS0_10basic_jsonISt3mapSt6vectorNSt7__cxx1112basic_stringIcSt11char_traitsIcESaIcEEEblmdSaNS0_14adl_serializerES5_IhSaIhEEvEEE10end_objectEv
FNDA:0,_ZN8nlohmann16json_abi_v3_11_36detail28json_sax_dom_callback_parserINS0_10basic_jsonISt3mapSt6vectorNSt7__cxx1112basic_stringIcSt11char_traitsIcESaIcEEEblmdSaNS0_14adl_serializerES5_IhSaIhEEvEEE11start_arrayEm
FNDA:0,_ZN8nlohmann16json_abi_v3_11_36detail28json_sax_dom_callback_parserINS0_10basic_jsonISt3mapSt6vectorNSt7__cxx1112basic_stringIcSt11char_traitsIcESaIcEEEblmdSaNS0_14adl_serializerES5_IhSaIhEEvEEE9end_arrayEv
FNDA:0,_ZN8nlohmann16json_abi_v3_11_36detail28json_sax_dom_callback_parserINS0_10basic_jsonISt3mapSt6vectorNSt7__cxx1112basic_stringIcSt11char_traitsIcESaIcEEEblmdSaNS0_14adl_serializerES5_IhSaIhEEvEEE11parse_errorINS1_11parse_errorEEEbmRKSB_RKT_
FNDA:0,_ZN8nlohmann16json_abi_v3_11_36detail28json_sax_dom_callback_parserINS0_10basic_jsonISt3mapSt6vectorNSt7__cxx1112basic_stringIcSt11char_traitsIcESaIcEEEblmdSaNS0_14adl_serializerES5_IhSaIhEEvEEE11parse_errorINS1_12out_of_rangeEEEbmRKSB_RKT_
FNDA:0,_ZNK8nlohmann16json_abi_v3_11_36detail28json_sax_dom_callback_parserINS0_10basic_jsonISt3mapSt6vectorNSt7__cxx1112basic_stringIcSt11char_traitsIcESaIcEEEblmdSaNS0_14adl_serializerES5_IhSaIhEEvEEE10is_erroredEv
FNDA:0,_ZN8nlohmann16json_abi_v3_11_36detail28json_sax_dom_callback_parserINS0_10basic_jsonISt3mapSt6vectorNSt7__cxx1112basic_stringIcSt11char_traitsIcESaIcEEEblmdSaNS0_14adl_serializerES5_IhSaIhEEvEEE12handle_valueIDnEESt4pairIbPSF_EOT_b
FNDA:0,_ZN8nlohmann16json_abi_v3_11_36detail28json_sax_dom_callback_parserINS0_10basic_jsonISt3mapSt6vectorNSt7__cxx1112basic_stringIcSt11char_traitsIcESaIcEEEblmdSaNS0_14adl_serializerES5_IhSaIhEEvEEE12handle_valueINS1_7value_tEEESt4pairIbPSF_EOT_b
FNDA:0,_ZN8nlohmann16json_abi_v3_11_36detail28json_sax_dom_callback_parserINS0_10basic_jsonISt3mapSt6vectorNSt7__cxx1112basic_stringIcSt11char_traitsIcESaIcEEEblmdSaNS0_14adl_serializerES5_IhSaIhEEvEEE12handle_valueIRSB_EESt4pairIbPSF_EOT_b
FNDA:0,_ZN8nlohmann16json_abi_v3_11_36detail28json_sax_dom_callback_parserINS0_10basic_jsonISt3mapSt6vectorNSt7__cxx1112basic_stringIcSt11char_traitsIcESaIcEEEblmdSaNS0_14adl_serializerES5_IhSaIhEEvEEE12handle_valueIRbEESt4pairIbPSF_EOT_b
FNDA:0,_ZN8nlohmann16json_abi_v3_11_36detail28json_sax_dom_callback_parserINS0_10basic_jsonISt3mapSt6vectorNSt7__cxx1112basic_stringIcSt11char_traitsIcESaIcEEEblmdSaNS0_14adl_serializerES5_IhSaIhEEvEEE12handle_valueIRdEESt4pairIbPSF_EOT_b
FNDA:0,_ZN8nlohmann16json_abi_v3_11_36detail28json_sax_dom_callback_parserINS0_10basic_jsonISt3mapSt6vectorNSt7__cxx1112basic_stringIcSt11char_traitsIcESaIcEEEblmdSaNS0_14adl_serializerES5_IhSaIhEEvEEE12handle_valueIRlEESt4pairIbPSF_EOT_b
FNDA:0,_ZN8nlohmann16json_abi_v3_11_36detail28json_sax_dom_callback_parserINS0_10basic_jsonISt3mapSt6vectorNSt7__cxx1112basic_stringIcSt11char_traitsIcESaIcEEEblmdSaNS0_14adl_serializerES5_IhSaIhEEvEEE12handle_valueIRmEESt4pairIbPSF_EOT_b
FNDA:2,_ZN8nlohmann16json_abi_v3_11_36detail10lexer_baseINS0_10basic_jsonISt3mapSt6vectorNSt7__cxx1112basic_stringIcSt11char_traitsIcESaIcEEEblmdSaNS0_14adl_serializerES5_IhSaIhEEvEEE15token_type_nameENSG_10token_typeE
FNDA:14,_ZN8nlohmann16json_abi_v3_11_36detail5lexerINS0_10basic_jsonISt3mapSt6vectorNSt7__cxx1112basic_stringIcSt11char_traitsIcESaIcEEEblmdSaNS0_14adl_serializerES5_IhSaIhEEvEENS1_20input_stream_adapterEEC2EOSG_b
FNDA:14,_ZN8nlohmann16json_abi_v3_11_36detail5lexerINS0_10basic_jsonISt3mapSt6vectorNSt7__cxx1112basic_stringIcSt11char_traitsIcESaIcEEEblmdSaNS0_14adl_serializerES5_IhSaIhEEvEENS1_20input_stream_adapterEED2Ev
FNDA:14,_ZN8nlohmann16json_abi_v3_11_36detail5lexerINS0_10basic_jsonISt3mapSt6vectorNSt7__cxx1112basic_stringIcSt11char_traitsIcESaIcEEEblmdSaNS0_14adl_serializerES5_IhSaIhEEvEENS1_20input_stream_adapterEE17get_decimal_pointEv
FNDA:0,_ZN8nlohmann16json_abi_v3_11_36detail5lexerINS0_10basic_jsonISt3mapSt6vectorNSt7__cxx1112basic_stringIcSt11char_traitsIcESaIcEEEblmdSaNS0_14adl_serializerES5_IhSaIhEEvEENS1_20input_stream_adapterEE13get_codepointEv
FNDA:0,_ZN8nlohmann16json_abi_v3_11_36detail5lexerINS0_10basic_jsonISt3mapSt6vectorNSt7__cxx1112basic_stringIcSt11char_traitsIcESaIcEEEblmdSaNS0_14adl_serializerES5_IhSaIhEEvEENS1_20input_stream_adapterEE18next_byte_in_rangeESt16initializer_listIiE
FNDA:282,_ZN8nlohmann16json_abi_v3_11_36detail5lexerINS0_10basic_jsonISt3mapSt6vectorNSt7__cxx1112basic_stringIcSt11char_traitsIcESaIcEEEblmdSaNS0_14adl_serializerES5_IhSaIhEEvEENS1_20input_stream_adapterEE11scan_stringEv
FNDA:0,_ZN8nlohmann16json_abi_v3_11_36detail5lexerINS0_10basic_jsonISt3mapSt6vectorNSt7__cxx1112basic_stringIcSt11char_traitsIcESaIcEEEblmdSaNS0_14adl_serializerES5_IhSaIhEEvEENS1_20input_stream_adapterEE12scan_commentEv
FNDA:50,_ZN8nlohmann16json_abi_v3_11_36detail5lexerINS0_10basic_jsonISt3mapSt6vectorNSt7__cxx1112basic_stringIcSt11char_traitsIcESaIcEEEblmdSaNS0_14adl_serializerES5_IhSaIhEEvEENS1_20input_stream_adapterEE6strtofERdPKcPPc
FNDA:136,_ZN8nlohmann16json_abi_v3_11_36detail5lexerINS0_10basic_jsonISt3mapSt6vectorNSt7__cxx1112basic_stringIcSt11char_traitsIcESaIcEEEblmdSaNS0_14adl_serializerES5_IhSaIhEEvEENS1_20input_stream_adapterEE11scan_numberEv
FNDA:20,_ZN8nlohmann16json_abi_v3_11_36detail5lexerINS0_10basic_jsonISt3mapSt6vectorNSt7__cxx1112basic_stringIcSt11char_traitsIcESaIcEEEblmdSaNS0_14adl_serializerES5_IhSaIhEEvEENS1_20input_stream_adapterEE12scan_literalEPKcmNS1_10lexer_baseISF_E10token_typeE
FNDA:418,_ZN8nlohmann16json_abi_v3_11_36detail5lexerINS0_10basic_jsonISt3mapSt6vectorNSt7__cxx1112basic_stringIcSt11char_traitsIcESaIcEEEblmdSaNS0_14adl_serializerES5_IhSaIhEEvEENS1_20input_stream_adapterEE5resetEv
FNDA:8278,_ZN8nlohmann16json_abi_v3_11_36detail5lexerINS0_10basic_jsonISt3mapSt6vectorNSt7__cxx1112basic_stringIcSt11char_traitsIcESaIcEEEblmdSaNS0_14adl_serializerES5_IhSaIhEEvEENS1_20input_stream_adapterEE3getEv
FNDA:150,_ZN8nlohmann16json_abi_v3_11_36detail5lexerINS0_10basic_jsonISt3mapSt6vectorNSt7__cxx1112basic_stringIcSt11char_traitsIcESaIcEEEblmdSaNS0_14adl_serializerES5_IhSaIhEEvEENS1_20input_stream_adapterEE5ungetEv
FNDA:3434,_ZN8nlohmann16json_abi_v3_11_36detail5lexerINS0_10basic_jsonISt3mapSt6vectorNSt7__cxx1112basic_stringIcSt11char_traitsIcESaIcEEEblmdSaNS0_14adl_serializerES5_IhSaIhEEvEENS1_20input_stream_adapterEE3addEi
FNDA:0,_ZNK8nlohmann16json_abi_v3_11_36detail5lexerINS0_10basic_jsonISt3mapSt6vectorNSt7__cxx1112basic_stringIcSt11char_traitsIcESaIcEEEblmdSaNS0_14adl_serializerES5_IhSaIhEEvEENS1_20input_stream_adapterEE18get_number_integerEv
FNDA:86,_ZNK8nlohmann16json_abi_v3_11_36detail5lexerINS0_10basic_jsonISt3mapSt6vectorNSt7__cxx1112basic_stringIcSt11char_traitsIcESaIcEEEblmdSaNS0_14adl_serializerES5_IhSaIhEEvEENS1_20input_stream_adapterEE19get_number_unsignedEv
FNDA:50,_ZNK8nlohmann16json_abi_v3_11_36detail5lexerINS0_10basic_jsonISt3mapSt6vectorNSt7__cxx1112basic_stringIcSt11char_traitsIcESaIcEEEblmdSaNS0_14adl_serializerES5_IhSaIhEEvEENS1_20input_stream_adapterEE16get_number_floatEv
FNDA:332,_ZN8nlohmann16json_abi_v3_11_36detail5lexerINS0_10basic_jsonISt3mapSt6vectorNSt7__cxx1112basic_stringIcSt11char_traitsIcESaIcEEEblmdSaNS0_14adl_serializerES5_IhSaIhEEvEENS1_20input_stream_adapterEE10get_stringEv
FNDA:4,_ZNK8nlohmann16json_abi_v3_11_36detail5lexerINS0_10basic_jsonISt3mapSt6vectorNSt7__cxx1112basic_stringIcSt11char_traitsIcESaIcEEEblmdSaNS0_14adl_serializerES5_IhSaIhEEvEENS1_20input_stream_adapterEE12get_positionEv
FNDA:4,_ZNK8nlohmann16json_abi_v3_11_36detail5lexerINS0_10basic_jsonISt3mapSt6vectorNSt7__cxx1112basic_stringIcSt11char_traitsIcESaIcEEEblmdSaNS0_14adl_serializerES5_IhSaIhEEvEENS1_20input_stream_adapterEE16get_token_stringEv
FNDA:2,_ZNK8nlohmann16json_abi_v3_11_36detail5lexerINS0_10basic_jsonISt3mapSt6vectorNSt7__cxx1112basic_stringIcSt11char_traitsIcESaIcEEEblmdSaNS0_14adl_serializerES5_IhSaIhEEvEENS1_20input_stream_adapterEE17get_error_messageEv
FNDA:14,_ZN8nlohmann16json_abi_v3_11_36detail5lexerINS0_10basic_jsonISt3mapSt6vectorNSt7__cxx1112basic_stringIcSt11char_traitsIcESaIcEEEblmdSaNS0_14adl_serializerES5_IhSaIhEEvEENS1_20input_stream_adapterEE8skip_bomEv
FNDA:1024,_ZN8nlohmann16json_abi_v3_11_36detail5lexerINS0_10basic_jsonISt3mapSt6vectorNSt7__cxx1112basic_stringIcSt11char_traitsIcESaIcEEEblmdSaNS0_14adl_serializerES5_IhSaIhEEvEENS1_20input_stream_adapterEE15skip_whitespaceEv
FNDA:1024,_ZN8nlohmann16json_abi_v3_11_36detail5lexerINS0_10basic_jsonISt3mapSt6vectorNSt7__cxx1112basic_stringIcSt11char_traitsIcESaIcEEEblmdSaNS0_14adl_serializerES5_IhSaIhEEvEENS1_20input_stream_adapterEE4scanEv
FNF:388
FNH:244
DA:3001,0
DA:3004,0
DA:3005,0
DA:3006,0
DA:3007,0
DA:3008,0
DA:3010,0
DA:3035,0
DA:3037,0
DA:3038,0
DA:3039,0
DA:3075,2
DA:3077,2
DA:4264,12
DA:4266,12
DA:4276,6
DA:4278,6
DA:4282,22
DA:4285,22
DA:4289,20
DA:4291,20
DA:4295,12
DA:4296,12
DA:4342,42
DA:4344,42
DA:4345,42
DA:4346,42
DA:4351,6
DA:4353,6
DA:4354,6
DA:4355,6
DA:4379,12
DA:4381,12
DA:4382,12
DA:4383,12
DA:4384,12
DA:4385,0
DA:4405,0
DA:4407,0
DA:4415,2
DA:4417,2
DA:4419,2
DA:4422,2
DA:4424,4
DA:4428,0
DA:4488,0
DA:4512,2
DA:4514,6
DA:4516,4
DA:4517,2
DA:4540,2
DA:4541,2
DA:4543,2
DA:4545,4
DA:4546,6
DA:4556,0
DA:4558,0
DA:4559,0
DA:4560,0
DA:4564,0
DA:4565,0
DA:4574,0
DA:4576,0
DA:4577,0
DA:4578,0
DA:4582,0
DA:4591,0
DA:4593,0
DA:4594,0
DA:4595,0
DA:4599,0
DA:4608,0
DA:4610,0
DA:4611,0
DA:4612,0
DA:4616,0
DA:4726,36
DA:4728,36
DA:4730,18
DA:4732,18
DA:4733,18
DA:4735,0
DA:4737,0
DA:4738,0
DA:4740,18
DA:4742,18
DA:4743,18
DA:4746,0
DA:4754,0
DA:4756,36
DA:4769,2
DA:4771,2
DA:4773,0
DA:4775,2
DA:4776,2
DA:4796,36
DA:4798,36
DA:4799,36
DA:5149,38
DA:5153,38
DA:5476,40
DA:5478,40
DA:5479,40
DA:5480,40
DA:5481,40
DA:5482,40
DA:5489,42
DA:5491,42
DA:5492,42
DA:5493,42
DA:5494,42
DA:5495,42
DA:5498,16
DA:5500,16
DA:5501,16
DA:5502,16
DA:5503,16
DA:5504,16
DA:5544,68
DA:5546,68
DA:5547,68
DA:5548,68
DA:5549,68
DA:5550,68
DA:5557,86
DA:5559,86
DA:5560,86
DA:5561,86
DA:5562,86
DA:5563,86
DA:5570,0
DA:5572,0
DA:5573,0
DA:5574,0
DA:5575,0
DA:5576,0
DA:5709,40
DA:5711,40
DA:5712,40
DA:5729,42
DA:5731,42
DA:5732,42
DA:5735,16
DA:5737,16
DA:5738,16
DA:5742,68
DA:5744,68
DA:5745,68
DA:5749,86
DA:5751,86
DA:5752,86
DA:5756,0
DA:5758,0
DA:5759,0
DA:5870,252
DA:5873,252
DA:5905,38
DA:5909,38
DA:5910,38
DA:5925,252
DA:5929,252
DA:5930,252
DA:5965,0
DA:5966,0
DA:5967,0
DA:5993,0
DA:5995,0
DA:5996,0
DA:6014,0
DA:6016,0
DA:6021,0
DA:6023,0
DA:6298,28
DA:6302,28
DA:6304,14
DA:6306,28
DA:6308,14
DA:6309,14
DA:6310,14
DA:6317,14
DA:6318,14
DA:6320,14
DA:6321,14
DA:6322,14
DA:6327,8128
DA:6329,8128
DA:6331,8128
DA:6333,0
DA:6335,8128
DA:6635,14
DA:6637,14
DA:6881,14
DA:6882,14
DA:6883,14
DA:6890,14
DA:6892,0
DA:6894,0
DA:6895,0
DA:6898,20
DA:6900,20
DA:6901,20
DA:6904,0
DA:6906,0
DA:6907,0
DA:6910,86
DA:6912,86
DA:6913,86
DA:6916,50
DA:6918,50
DA:6919,50
DA:6922,42
DA:6924,42
DA:6925,42
DA:6934,68
DA:6936,68
DA:6938,68
DA:6940,0
DA:6943,68
DA:6946,240
DA:6948,240
DA:6949,240
DA:6952,240
DA:6953,240
DA:6956,66
DA:6958,66
DA:6959,66
DA:6961,66
DA:6962,66
DA:6963,66
DA:6966,12
DA:6968,12
DA:6970,12
DA:6972,0
DA:6975,12
DA:6978,12
DA:6980,12
DA:6981,12
DA:6983,12
DA:6984,12
DA:6985,12
DA:6989,2
DA:6992,2
DA:6994,2
DA:6996,2
DA:6998,0
DA:7001,12
DA:7003,12
DA:7015,278
DA:7017,278
DA:7019,14
DA:7020,14
DA:7023,264
DA:7025,264
DA:7027,24
DA:7028,24
DA:7031,240
DA:7032,240
DA:7033,240
DA:7034,240
DA:7061,0
DA:7064,0
DA:7066,0
DA:7067,0
DA:7074,0
DA:7076,0
DA:7078,0
DA:7079,0
DA:7082,0
DA:7084,0
DA:7085,0
DA:7088,0
DA:7090,0
DA:7091,0
DA:7094,0
DA:7096,0
DA:7097,0
DA:7100,0
DA:7102,0
DA:7103,0
DA:7106,0
DA:7108,0
DA:7109,0
DA:7118,0
DA:7121,0
DA:7122,0
DA:7124,0
DA:7125,0
DA:7128,0
DA:7130,0
DA:7133,0
DA:7136,0
DA:7138,0
DA:7141,0
DA:7142,0
DA:7145,0
DA:7147,0
DA:7150,0
DA:7151,0
DA:7153,0
DA:7155,0
DA:7157,0
DA:7160,0
DA:7164,0
DA:7168,0
DA:7169,0
DA:7170,0
DA:7171,0
DA:7173,0
DA:7176,0
DA:7178,0
DA:7180,0
DA:7181,0
DA:7186,0
DA:7189,0
DA:7191,0
DA:7192,0
DA:7194,0
DA:7195,0
DA:7198,0
DA:7200,0
DA:7203,0
DA:7206,0
DA:7208,0
DA:7210,0
DA:7212,0
DA:7213,0
DA:7215,0
DA:7220,0
DA:7224,0
DA:7225,0
DA:7226,0
DA:7227,0
DA:7230,0
DA:7232,0
DA:7235,0
DA:7239,0
DA:7242,0
DA:7244,0
DA:7246,0
DA:7248,0
DA:7251,0
DA:7253,0
DA:7273,0
DA:7275,0
DA:7279,0
DA:7281,0
DA:7285,0
DA:7288,0
DA:7291,0
DA:7293,0
DA:7296,0
DA:7298,0
DA:7299,0
DA:7304,0
DA:7306,0
DA:7310,0
DA:7313,0
DA:7315,0
DA:7316,0
DA:7320,0
DA:7322,0
DA:7323,0
DA:7324,0
DA:7326,0
DA:7328,0
DA:7331,0
DA:7332,0
DA:7333,0
DA:7334,0
DA:7502,2
DA:7504,2
DA:7506,0
DA:7507,0
DA:7508,0
DA:7509,0
DA:7510,0
DA:7511,0
DA:7512,0
DA:7513,0
DA:7514,2
DA:7515,2
DA:7516,0
DA:7519,0
DA:7520,0
DA:7521,0
DA:7522,0
DA:7523,0
DA:7524,0
DA:7525,0
DA:7526,0
DA:7527,0
DA:7528,0
DA:7529,0
DA:7530,0
DA:7531,0
DA:7532,0
DA:7533,0
DA:7534,0
DA:7535,0
DA:7536,0
DA:7537,0
DA:7563,14
DA:7564,14
DA:7565,14
DA:7566,14
DA:7567,14
DA:7574,14
DA:7583,14
DA:7585,14
DA:7586,14
DA:7587,14
DA:7609,0
DA:7612,0
DA:7613,0
DA:7615,0
DA:7616,0
DA:7618,0
DA:7620,0
DA:7622,0
DA:7624,0
DA:7626,0
DA:7628,0
DA:7630,0
DA:7634,0
DA:7638,0
DA:7639,0
DA:7657,0
DA:7659,0
DA:7660,0
DA:7662,0
DA:7664,0
DA:7665,0
DA:7667,0
DA:7671,0
DA:7672,0
DA:7676,0
DA:7694,282
DA:7697,282
DA:7700,282
DA:7702,3106
DA:7705,3388
DA:7708,0
DA:7710,0
DA:7711,0
DA:7715,282
DA:7717,282
DA:7721,0
DA:7723,0
DA:7726,0
DA:7727,0
DA:7728,0
DA:7730,0
DA:7731,0
DA:7732,0
DA:7734,0
DA:7735,0
DA:7736,0
DA:7738,0
DA:7739,0
DA:7740,0
DA:7742,0
DA:7743,0
DA:7744,0
DA:7746,0
DA:7747,0
DA:7748,0
DA:7750,0
DA:7751,0
DA:7752,0
DA:7754,0
DA:7755,0
DA:7756,0
DA:7759,0
DA:7761,0
DA:7762,0
DA:7764,0
DA:7766,0
DA:7767,0
DA:7771,0
DA:7774,0
DA:7776,0
DA:7778,0
DA:7780,0
DA:7781,0
DA:7785,0
DA:7788,0
DA:7790,0
DA:7792,0
DA:7796,0
DA:7800,0
DA:7801,0
DA:7806,0
DA:7807,0
DA:7809,0
DA:7812,0
DA:7814,0
DA:7815,0
DA:7820,0
DA:7823,0
DA:7826,0
DA:7828,0
DA:7831,0
DA:7832,0
DA:7834,0
DA:7837,0
DA:7838,0
DA:7839,0
DA:7844,0
DA:7845,0
DA:7846,0
DA:7847,0
DA:7850,0
DA:7854,0
DA:7855,0
DA:7856,0
DA:7859,0
DA:7863,0
DA:7865,0
DA:7866,0
DA:7869,0
DA:7871,0
DA:7872,0
DA:7875,0
DA:7877,0
DA:7878,0
DA:7881,0
DA:7883,0
DA:7884,0
DA:7887,0
DA:7889,0
DA:7890,0
DA:7893,0
DA:7895,0
DA:7896,0
DA:7899,0
DA:7901,0
DA:7902,0
DA:7905,0
DA:7907,0
DA:7908,0
DA:7911,0
DA:7913,0
DA:7914,0
DA:7917,0
DA:7919,0
DA:7920,0
DA:7923,0
DA:7925,0
DA:7926,0
DA:7929,0
DA:7931,0
DA:7932,0
DA:7935,0
DA:7937,0
DA:7938,0
DA:7941,0
DA:7943,0
DA:7944,0
DA:7947,0
DA:7949,0
DA:7950,0
DA:7953,0
DA:7955,0
DA:7956,0
DA:7959,0
DA:7961,0
DA:7962,0
DA:7965,0
DA:7967,0
DA:7968,0
DA:7971,0
DA:7973,0
DA:7974,0
DA:7977,0
DA:7979,0
DA:7980,0
DA:7983,0
DA:7985,0
DA:7986,0
DA:7989,0
DA:7991,0
DA:7992,0
DA:7995,0
DA:7997,0
DA:7998,0
DA:8001,0
DA:8003,0
DA:8004,0
DA:8007,0
DA:8009,0
DA:8010,0
DA:8013,0
DA:8015,0
DA:8016,0
DA:8019,0
DA:8021,0
DA:8022,0
DA:8025,0
DA:8027,0
DA:8028,0
DA:8031,0
DA:8033,0
DA:8034,0
DA:8037,0
DA:8039,0
DA:8040,0
DA:8043,0
DA:8045,0
DA:8046,0
DA:8049,0
DA:8051,0
DA:8052,0
DA:8056,3106
DA:8151,3106
DA:8152,3106
DA:8156,0
DA:8187,0
DA:8189,0
DA:8191,0
DA:8195,0
DA:8197,0
DA:8199,0
DA:8201,0
DA:8206,0
DA:8221,0
DA:8223,0
DA:8225,0
DA:8229,0
DA:8231,0
DA:8233,0
DA:8235,0
DA:8239,0
DA:8241,0
DA:8243,0
DA:8245,0
DA:8249,0
DA:8253,0
DA:8255,0
DA:8257,0
DA:8261,0
DA:8263,0
DA:8265,0
DA:8267,0
DA:8271,0
DA:8273,0
DA:8274,0
DA:8284,0
DA:8286,0
DA:8289,0
DA:8293,0
DA:8295,0
DA:8299,0
DA:8301,0
DA:8302,0
DA:8308,0
DA:8312,0
DA:8314,0
DA:8317,0
DA:8318,0
DA:8321,0
DA:8323,0
DA:8325,0
DA:8326,0
DA:8328,0
DA:8330,0
DA:8331,0
DA:8336,0
DA:8337,0
DA:8343,0
DA:8345,0
DA:8346,0
DA:8358,50
DA:8360,50
DA:8361,50
DA:8409,136
DA:8412,136
DA:8416,136
DA:8419,136
DA:8421,0
DA:8423,0
DA:8424,0
DA:8427,10
DA:8429,10
DA:8430,10
DA:8433,126
DA:8443,126
DA:8444,126
DA:8452,0
DA:8454,0
DA:8455,0
DA:8457,0
DA:8459,0
DA:8460,0
DA:8463,0
DA:8473,0
DA:8474,0
DA:8477,0
DA:8479,0
DA:8480,0
DA:8484,10
DA:8486,10
DA:8488,10
DA:8490,10
DA:8491,10
DA:8494,0
DA:8497,0
DA:8498,0
DA:8501,0
DA:8502,0
DA:8505,126
DA:8507,198
DA:8509,72
DA:8520,72
DA:8521,72
DA:8524,40
DA:8526,40
DA:8527,40
DA:8530,0
DA:8533,0
DA:8534,0
DA:8537,86
DA:8538,86
DA:8541,50
DA:8543,50
DA:8544,50
DA:8546,50
DA:8557,50
DA:8558,50
DA:8561,0
DA:8563,0
DA:8564,0
DA:8568,70
DA:8570,70
DA:8572,20
DA:8583,20
DA:8584,20
DA:8587,0
DA:8590,0
DA:8591,0
DA:8594,50
DA:8595,50
DA:8598,0
DA:8600,0
DA:8601,0
DA:8603,0
DA:8606,0
DA:8607,0
DA:8610,0
DA:8621,0
DA:8622,0
DA:8625,0
DA:8627,0
DA:8629,0
DA:8633,0
DA:8635,0
DA:8637,0
DA:8648,0
DA:8649,0
DA:8652,0
DA:8654,0
DA:8655,0
DA:8659,0
DA:8661,0
DA:8663,0
DA:8674,0
DA:8675,0
DA:8678,0
DA:8679,0
DA:8682,136
DA:8685,136
DA:8687,136
DA:8688,136
DA:8691,136
DA:8693,86
DA:8696,86
DA:8698,86
DA:8700,86
DA:8701,86
DA:8703,86
DA:8707,50
DA:8709,0
DA:8712,0
DA:8714,0
DA:8716,0
DA:8717,0
DA:8719,0
DA:8726,50
DA:8729,50
DA:8731,50
DA:8740,20
DA:8743,20
DA:8744,80
DA:8746,60
DA:8748,0
DA:8749,0
DA:8752,20
DA:8760,418
DA:8762,418
DA:8763,418
DA:8764,418
DA:8765,418
DA:8777,8278
DA:8779,8278
DA:8780,8278
DA:8782,8278
DA:8785,150
DA:8789,8128
DA:8792,8278
DA:8794,8278
DA:8797,8278
DA:8799,364
DA:8800,364
DA:8803,8278
DA:8814,150
DA:8816,150
DA:8818,150
DA:8821,150
DA:8823,24
DA:8825,24
DA:8830,126
DA:8833,150
DA:8835,150
DA:8836,150
DA:8838,150
DA:8841,3434
DA:8843,3434
DA:8844,3434
DA:8852,0
DA:8854,0
DA:8858,86
DA:8860,86
DA:8864,50
DA:8866,50
DA:8870,332
DA:8872,332
DA:8880,4
DA:8882,4
DA:8888,4
DA:8891,4
DA:8892,44
DA:8894,40
DA:8897,0
DA:8898,0
DA:8899,0
DA:8904,40
DA:8908,4
DA:8909,0
DA:8913,2
DA:8915,2
DA:8926,14
DA:8928,14
DA:8931,0
DA:8936,14
DA:8937,14
DA:8940,1024
DA:8944,4488
DA:8946,4488
DA:8947,1024
DA:8949,1024
DA:8952,1024
DA:8954,0
DA:8955,0
DA:8959,1024
DA:8962,1024
DA:8964,0
DA:8966,0
DA:8970,0
DA:8973,1024
DA:8976,12
DA:8977,12
DA:8978,12
DA:8979,12
DA:8980,68
DA:8981,68
DA:8982,66
DA:8983,66
DA:8984,240
DA:8985,240
DA:8986,186
DA:8987,186
DA:8990,20
DA:8992,20
DA:8993,40
DA:8995,0
DA:8997,0
DA:8998,0
DA:9000,0
DA:9002,0
DA:9003,0
DA:9007,282
DA:9008,282
DA:9011,136
DA:9022,136
DA:9026,0
DA:9028,0
DA:9031,2
DA:9032,2
DA:9033,2
DA:12307,14
DA:12311,14
DA:12312,14
DA:12313,14
DA:12316,14
DA:12317,14
DA:12329,14
DA:12331,14
DA:12333,0
DA:12334,0
DA:12337,0
DA:12339,0
DA:12341,0
DA:12346,0
DA:12348,0
DA:12349,0
DA:12354,0
DA:12356,0
DA:12358,0
DA:12361,14
DA:12362,14
DA:12365,12
DA:12367,0
DA:12369,0
DA:12373,12
DA:12375,0
DA:12376,0
DA:12378,14
DA:12380,12
DA:12416,14
DA:12420,14
DA:12422,14
DA:12424,342
DA:12426,356
DA:12429,278
DA:12431,68
DA:12433,68
DA:12435,0
DA:12439,68
DA:12441,0
DA:12443,0
DA:12445,0
DA:12449,68
DA:12451,0
DA:12453,0
DA:12455,68
DA:12457,0
DA:12461,68
DA:12463,0
DA:12465,0
DA:12469,68
DA:12472,68
DA:12473,68
DA:12476,12
DA:12478,12
DA:12480,0
DA:12484,12
DA:12486,0
DA:12488,0
DA:12490,0
DA:12494,12
DA:12497,12
DA:12500,50
DA:12502,50
DA:12504,50
DA:12506,0
DA:12508,0
DA:12511,50
DA:12513,0
DA:12516,50
DA:12519,0
DA:12521,0
DA:12523,0
DA:12525,0
DA:12528,0
DA:12530,0
DA:12532,0
DA:12534,0
DA:12537,20
DA:12539,20
DA:12541,0
DA:12543,20
DA:12546,0
DA:12548,0
DA:12550,0
DA:12552,0
DA:12555,42
DA:12557,42
DA:12559,0
DA:12561,42
DA:12564,86
DA:12566,86
DA:12568,0
DA:12570,86
DA:12573,0
DA:12576,0
DA:12578,0
DA:12580,0
DA:12582,0
DA:12584,0
DA:12586,0
DA:12587,0
DA:12590,0
DA:12592,0
DA:12594,0
DA:12602,0
DA:12604,0
DA:12606,80
DA:12610,78
DA:12614,276
DA:12617,12
DA:12620,264
DA:12623,24
DA:12626,12
DA:12627,12
DA:12631,12
DA:12633,12
DA:12635,0
DA:12642,12
DA:12643,12
DA:12644,12
DA:12645,12
DA:12648,0
DA:12650,0
DA:12656,240
DA:12659,174
DA:12661,14
DA:12663,4
DA:12666,172
DA:12668,0
DA:12672,172
DA:12674,0
DA:12676,0
DA:12680,172
DA:12681,172
DA:12685,66
DA:12687,66
DA:12689,0
DA:12696,66
DA:12697,66
DA:12698,66
DA:12699,66
DA:12702,0
DA:12704,0
DA:12706,14
DA:12709,1024
DA:12711,1024
DA:12714,2
DA:12716,2
DA:12718,2
DA:12720,2
DA:12723,2
DA:12725,2
DA:12727,2
DA:12728,4
DA:12732,0
DA:12735,2
DA:12737,2
DA:12740,2
DA:12741,0
DA:12818,0
DA:12820,0
DA:12821,0
DA:12824,0
DA:12826,0
DA:12827,0
DA:12830,0
DA:12832,0
DA:12841,0
DA:12843,0
DA:12863,0
DA:12865,0
DA:12866,0
DA:13036,16
DA:13038,16
DA:13040,16
DA:13042,0
DA:13044,0
DA:13045,0
DA:13048,16
DA:13050,16
DA:13051,16
DA:13054,0
DA:13064,0
DA:13065,0
DA:13068,16
DA:13111,0
DA:13112,0
DA:13113,0
DA:13133,8
DA:13135,8
DA:13137,8
DA:13139,0
DA:13141,0
DA:13142,0
DA:13145,8
DA:13147,8
DA:13148,8
DA:13151,0
DA:13154,0
DA:13155,0
DA:13158,0
DA:13167,0
DA:13168,0
DA:13171,8
DA:13177,8
DA:13179,8
DA:13181,8
DA:13183,0
DA:13185,0
DA:13186,0
DA:13189,8
DA:13191,8
DA:13192,8
DA:13195,0
DA:13205,0
DA:13206,0
DA:13209,8
DA:13216,16
DA:13218,16
DA:13220,16
DA:13222,0
DA:13224,0
DA:13225,0
DA:13228,16
DA:13230,16
DA:13231,16
DA:13234,0
DA:13235,0
DA:13237,0
DA:13246,0
DA:13248,0
DA:13251,0
DA:13260,0
DA:13262,0
DA:13264,0
DA:13266,0
DA:13268,0
DA:13269,0
DA:13272,0
DA:13274,0
DA:13275,0
DA:13278,0
DA:13288,0
DA:13290,0
DA:13293,0
DA:13313,16
DA:13315,16
DA:13317,16
DA:13319,0
DA:13321,0
DA:13322,0
DA:13325,16
DA:13327,16
DA:13328,16
DA:13331,0
DA:13341,0
DA:13342,0
DA:13346,16
DA:13405,24
DA:13408,24
DA:13410,0
DA:13413,24
DA:13415,24
DA:13417,0
DA:13418,0
DA:13420,24
DA:13421,24
DA:13423,0
DA:13432,0
DA:13441,24
DA:13443,24
DA:14918,0
DA:14920,0
DA:14922,0
DA:14924,0
DA:14927,0
DA:14929,0
DA:14932,0
DA:14934,0
DA:15016,4
DA:15018,4
DA:15059,0
DA:15060,0
DA:15061,0
DA:15063,0
DA:15065,0
DA:15066,0
DA:15069,0
DA:15071,0
DA:15072,0
DA:15084,4
DA:15085,4
DA:15086,4
DA:15088,180
DA:15090,180
DA:15091,180
DA:15094,488
DA:15096,488
DA:15097,488
DA:15112,0
DA:15113,0
DA:15116,4
DA:15117,4
DA:15119,4
DA:15121,4
DA:16931,0
DA:16933,0
DA:17023,20
DA:17028,20
DA:17029,20
DA:17039,260
DA:17045,40
DA:17047,40
DA:17048,40
DA:17050,40
DA:17057,60
DA:17084,60
DA:17085,60
DA:17086,60
DA:17087,60
DA:17089,60
DA:17090,60
DA:17091,60
DA:17092,60
DA:17094,60
DA:17095,60
DA:17096,60
DA:17097,60
DA:17098,60
DA:17100,60
DA:17111,60
DA:17113,60
DA:17115,60
DA:17122,40
DA:17124,40
DA:17126,460
DA:17128,420
DA:17129,420
DA:17132,40
DA:17139,20
DA:17141,20
DA:17143,20
DA:17144,20
DA:17146,20
DA:17164,20
DA:17166,20
DA:17167,20
DA:17179,20
DA:17180,20
DA:17181,20
DA:17182,20
DA:17186,20
DA:17187,20
DA:17188,20
DA:17190,20
DA:17191,20
DA:17192,20
DA:17216,20
DA:17217,20
DA:17218,20
DA:17219,20
DA:17220,16
DA:17223,20
DA:17226,20
DA:17228,20
DA:17303,20
DA:17355,20
DA:17356,20
DA:17447,20
DA:17448,20
DA:17449,20
DA:17450,20
DA:17452,20
DA:17453,20
DA:17454,40
DA:17456,20
DA:17457,20
DA:17458,20
DA:17460,20
DA:17467,20
DA:17476,20
DA:17478,0
DA:17479,0
DA:17481,20
DA:17483,0
DA:17484,0
DA:17486,20
DA:17488,0
DA:17489,0
DA:17491,20
DA:17493,4
DA:17494,4
DA:17496,16
DA:17498,12
DA:17499,12
DA:17501,4
DA:17503,4
DA:17504,4
DA:17506,0
DA:17508,0
DA:17509,0
DA:17511,0
DA:17513,0
DA:17514,0
DA:17517,0
DA:17518,0
DA:17521,20
DA:17524,20
DA:17525,20
DA:17526,20
DA:17527,20
DA:17548,20
DA:17549,12
DA:17550,20
DA:17552,0
DA:17553,0
DA:17554,0
DA:17556,20
DA:17562,20
DA:17580,20
DA:17581,20
DA:17583,20
DA:17584,20
DA:17593,20
DA:17595,20
DA:17596,20
DA:17602,20
DA:17604,20
DA:17605,20
DA:17625,20
DA:17626,44
DA:17632,44
DA:17633,44
DA:17638,44
DA:17639,44
DA:17643,44
DA:17644,44
DA:17658,44
DA:17659,44
DA:17663,20
DA:17674,20
DA:17675,20
DA:17677,20
DA:17680,24
DA:17725,0
DA:17727,0
DA:17736,0
DA:17737,0
DA:17738,0
DA:17739,0
DA:17745,0
DA:17746,0
DA:17750,0
DA:17751,0
DA:17761,0
DA:17762,0
DA:17763,0
DA:17765,0
DA:17767,0
DA:17771,0
DA:17779,0
DA:17780,0
DA:17803,20
DA:17806,20
DA:17807,20
DA:17818,20
DA:17820,20
DA:17823,20
DA:17824,20
DA:17825,20
DA:17848,20
DA:17849,20
DA:17851,20
DA:17853,20
DA:17854,20
DA:17863,20
DA:17868,20
DA:17869,20
DA:17890,20
DA:17893,20
DA:17894,20
DA:17903,0
DA:17905,0
DA:17906,0
DA:17908,0
DA:17910,0
DA:17911,0
DA:17915,0
DA:17918,0
DA:17919,0
DA:17923,0
DA:17924,0
DA:17926,0
DA:17928,0
DA:17929,0
DA:17930,0
DA:17934,0
DA:17935,0
DA:17936,0
DA:17937,0
DA:17938,0
DA:17941,0
DA:17955,20
DA:17958,20
DA:17959,20
DA:17961,20
DA:17962,20
DA:17968,20
DA:17973,4
DA:17975,4
DA:17976,4
DA:17977,4
DA:17980,16
DA:17985,12
DA:17987,12
DA:17988,12
DA:17989,12
DA:17992,4
DA:17997,4
DA:17998,4
DA:17999,4
DA:18000,4
DA:18001,4
DA:18004,0
DA:18009,0
DA:18016,0
DA:18017,0
DA:18018,0
DA:18021,0
DA:18022,0
DA:18040,20
DA:18043,20
DA:18046,20
DA:18048,0
DA:18049,0
DA:18056,20
DA:18058,0
DA:18060,0
DA:18061,0
DA:18062,0
DA:18068,20
DA:18074,20
DA:18075,20
DA:18076,20
DA:18078,20
DA:18081,20
DA:18083,20
DA:18085,20
DA:18086,20
DA:18087,20
DA:18089,20
DA:18143,4
DA:18145,4
DA:18146,8
DA:18147,4
DA:18148,4
DA:18149,4
DA:18150,4
DA:18151,8
DA:18152,4
DA:18159,4
DA:18183,104
DA:18189,104
DA:18191,24
DA:18193,24
DA:18195,0
DA:18196,0
DA:18199,24
DA:18201,24
DA:18204,24
DA:18205,24
DA:18207,0
DA:18211,24
DA:18212,92
DA:18214,68
DA:18215,68
DA:18216,68
DA:18217,68
DA:18218,68
DA:18219,68
DA:18223,24
DA:18224,48
DA:18225,24
DA:18226,24
DA:18227,24
DA:18228,24
DA:18229,24
DA:18231,24
DA:18232,24
DA:18233,24
DA:18237,0
DA:18240,0
DA:18241,0
DA:18243,0
DA:18244,0
DA:18245,0
DA:18246,0
DA:18247,0
DA:18251,0
DA:18252,0
DA:18253,0
DA:18254,0
DA:18255,0
DA:18256,0
DA:18258,0
DA:18261,24
DA:18264,4
DA:18266,4
DA:18268,0
DA:18269,0
DA:18272,4
DA:18274,4
DA:18277,4
DA:18278,4
DA:18280,0
DA:18284,4
DA:18285,8
DA:18287,4
DA:18288,4
DA:18289,4
DA:18293,4
DA:18294,4
DA:18295,4
DA:18297,4
DA:18298,4
DA:18299,4
DA:18303,0
DA:18306,0
DA:18307,0
DA:18309,0
DA:18310,0
DA:18314,0
DA:18315,0
DA:18317,0
DA:18320,4
DA:18323,16
DA:18325,16
DA:18326,16
DA:18327,16
DA:18328,16
DA:18331,0
DA:18333,0
DA:18335,0
DA:18338,0
DA:18339,0
DA:18341,0
DA:18344,0
DA:18346,0
DA:18348,0
DA:18350,0
DA:18351,0
DA:18353,0
DA:18354,0
DA:18356,0
DA:18359,0
DA:18360,0
DA:18362,0
DA:18363,0
DA:18365,0
DA:18369,0
DA:18371,0
DA:18372,0
DA:18373,0
DA:18377,0
DA:18379,0
DA:18381,0
DA:18382,0
DA:18384,0
DA:18385,0
DA:18387,0
DA:18390,0
DA:18391,0
DA:18393,0
DA:18394,0
DA:18398,0
DA:18401,0
DA:18404,8
DA:18406,8
DA:18408,8
DA:18412,0
DA:18414,8
DA:18417,0
DA:18419,0
DA:18420,0
DA:18423,32
DA:18425,32
DA:18426,32
DA:18429,20
DA:18431,20
DA:18432,20
DA:18435,0
DA:18437,0
DA:18438,0
DA:18441,0
DA:18443,0
DA:18444,0
DA:18467,108
DA:18469,108
DA:18470,108
DA:18471,108
DA:18474,108
DA:18475,108
DA:18477,1328
DA:18479,1220
DA:18481,1220
DA:18483,1220
DA:18485,1220
DA:18487,0
DA:18489,0
DA:18490,0
DA:18491,0
DA:18494,0
DA:18496,0
DA:18497,0
DA:18498,0
DA:18501,0
DA:18503,0
DA:18504,0
DA:18505,0
DA:18508,0
DA:18510,0
DA:18511,0
DA:18512,0
DA:18515,0
DA:18517,0
DA:18518,0
DA:18519,0
DA:18522,0
DA:18524,0
DA:18525,0
DA:18526,0
DA:18529,0
DA:18531,0
DA:18532,0
DA:18533,0
DA:18536,1220
DA:18540,1220
DA:18542,0
DA:18545,0
DA:18547,0
DA:18552,0
DA:18553,0
DA:18554,0
DA:18555,0
DA:18562,1220
DA:18564,1220
DA:18571,2440
DA:18573,0
DA:18574,0
DA:18578,1220
DA:18579,1220
DA:18580,1220
DA:18583,0
DA:18585,0
DA:18587,0
DA:18589,0
DA:18592,0
DA:18599,0
DA:18601,0
DA:18606,0
DA:18608,0
DA:18611,0
DA:18613,0
DA:18614,0
DA:18615,0
DA:18616,0
DA:18617,0
DA:18618,0
DA:18622,0
DA:18623,0
DA:18624,0
DA:18630,0
DA:18632,0
DA:18633,0
DA:18636,0
DA:18639,0
DA:18642,0
DA:18643,0
DA:18649,0
DA:18652,0
DA:18654,0
DA:18657,0
DA:18659,0
DA:18660,0
DA:18666,108
DA:18669,108
DA:18671,216
DA:18677,0
DA:18679,0
DA:18681,0
DA:18684,0
DA:18687,0
DA:18688,0
DA:18691,0
DA:18694,0
DA:18696,0
DA:18698,0
DA:18702,0
DA:18704,0
DA:18711,108
DA:18722,32
DA:18724,32
DA:18727,32
DA:18729,8
DA:18731,24
DA:18733,24
DA:18735,0
DA:18737,0
DA:18739,0
DA:18741,0
DA:18743,0
DA:18744,0
DA:18753,0
DA:18755,0
DA:18756,0
DA:18757,0
DA:18758,0
DA:18759,0
DA:18760,0
DA:18764,0
DA:18766,0
DA:18770,32
DA:18772,32
DA:18790,32
DA:18809,32
DA:18811,0
DA:18812,0
DA:18816,32
DA:18820,32
DA:18822,32
DA:18824,0
DA:18825,0
DA:18828,0
DA:18832,32
DA:18833,32
DA:18837,64
DA:18841,32
DA:18845,32
DA:18847,0
DA:18848,0
DA:18849,0
DA:18850,0
DA:18853,32
DA:18855,24
DA:18856,24
DA:18857,24
DA:18861,8
DA:18864,64
DA:18875,20
DA:18878,20
DA:18880,0
DA:18881,0
DA:18893,20
DA:18896,20
DA:18898,20
DA:18899,40
DA:18901,20
DA:18902,20
DA:18976,1220
DA:18998,2440
DA:18999,1220
DA:19001,2440
DA:19002,1220
DA:19003,1220
DA:19005,1220
DA:19006,1220
DA:19007,1220
DA:19008,1220
DA:19031,0
DA:19033,0
DA:19034,0
DA:19502,14
DA:19509,14
DA:19510,28
DA:19748,138
DA:19753,138
DA:19755,0
DA:19757,138
DA:19758,138
DA:19759,138
DA:19760,276
DA:19761,138
DA:19815,40
DA:19817,0
DA:19819,86
DA:19821,68
DA:19823,452
DA:19825,452
DA:19827,68
DA:19829,68
DA:19830,68
DA:19833,12
DA:19835,12
DA:19836,12
DA:19839,0
DA:19841,0
DA:19842,0
DA:19845,0
DA:19847,0
DA:19848,0
DA:19851,0
DA:19853,0
DA:19854,0
DA:19857,0
DA:19859,0
DA:19860,0
DA:19863,0
DA:19865,0
DA:19866,0
DA:19869,0
DA:19871,0
DA:19872,0
DA:19875,372
DA:19877,372
DA:19878,372
DA:19881,0
DA:19884,0
DA:19885,0
DA:19889,0
DA:19892,452
DA:19895,42
DA:19898,16
DA:19901,0
DA:19907,0
DA:19919,0
DA:19924,1576
DA:19926,1576
DA:19927,1576
DA:19928,1576
DA:19929,1576
DA:19930,0
DA:19934,0
DA:19936,1576
DA:19939,80
DA:19942,80
DA:19944,12
DA:19945,12
DA:19949,68
DA:19950,70
DA:19952,2
DA:19956,624
DA:19959,272
DA:19960,272
DA:19964,272
DA:19966,0
DA:19968,0
DA:19970,272
DA:19972,312
DA:19974,246
DA:19977,66
DA:19983,80
DA:19985,1576
DA:19987,68
DA:19990,68
DA:19991,68
DA:19992,68
DA:19995,12
DA:19998,12
DA:19999,12
DA:20000,12
DA:20003,58
DA:20006,58
DA:20007,58
DA:20008,58
DA:20011,0
DA:20014,0
DA:20015,0
DA:20016,0
DA:20019,1438
DA:20027,1438
DA:20052,4512
DA:20054,4512
DA:20055,4512
DA:20056,4512
DA:20057,4512
DA:20071,4512
DA:20073,1254
DA:20108,1254
DA:20123,116
DA:20158,116
DA:20185,452
DA:20186,452
DA:20188,452
DA:20189,452
DA:20193,372
DA:20194,372
DA:20196,372
DA:20197,372
DA:20205,252
DA:20208,252
DA:20209,252
DA:20210,252
DA:20211,252
DA:20212,252
DA:20272,0
DA:20275,0
DA:20278,0
DA:20279,0
DA:20284,0
DA:20288,0
DA:20291,0
DA:20293,0
DA:20297,0
DA:20299,0
DA:20303,0
DA:20306,0
DA:20307,0
DA:20309,0
DA:20311,0
DA:20312,0
DA:20313,0
DA:20314,0
DA:20320,0
DA:20321,0
DA:20324,0
DA:20325,0
DA:20326,0
DA:20375,0
DA:20377,0
DA:20511,0
DA:20515,0
DA:20516,0
DA:20518,0
DA:20520,0
DA:20522,0
DA:20524,0
DA:20526,0
DA:20527,0
DA:20530,0
DA:20532,0
DA:20533,0
DA:20536,0
DA:20538,0
DA:20539,0
DA:20542,0
DA:20544,0
DA:20545,0
DA:20548,0
DA:20550,0
DA:20551,0
DA:20554,0
DA:20556,0
DA:20557,0
DA:20560,0
DA:20562,0
DA:20563,0
DA:20566,0
DA:20568,0
DA:20569,0
DA:20572,0
DA:20575,0
DA:20578,0
DA:20579,0
DA:20580,0
DA:20584,620
DA:20585,620
DA:20586,620
DA:20589,620
DA:20592,620
DA:20593,620
DA:20595,620
DA:20596,620
DA:20597,620
DA:20601,304
DA:20610,304
DA:20613,304
DA:20614,304
DA:20615,304
DA:20617,304
DA:20618,304
DA:20619,304
DA:20624,1324
DA:20626,1324
DA:20627,1324
DA:20642,4
DA:20647,4
DA:20648,4
DA:20650,4
DA:20652,4
DA:20656,0
DA:20659,8
DA:20660,4
DA:20664,8
DA:20666,8
DA:20678,0
DA:20680,0
DA:20685,122
DA:20687,122
DA:20699,0
DA:20701,0
DA:20706,0
DA:20708,0
DA:20713,18
DA:20715,18
DA:20720,18
DA:20722,18
DA:20727,1264
DA:20729,1264
DA:20734,840
DA:20736,840
DA:20741,4
DA:20743,4
DA:20748,0
DA:20750,0
DA:20755,0
DA:20757,0
DA:20762,36
DA:20764,36
DA:20816,2
DA:20818,2
DA:20840,0
DA:20842,0
DA:20852,18
DA:20854,18
DA:20864,18
DA:20866,18
DA:20926,38
DA:20929,38
DA:20976,38
DA:20979,38
DA:20980,38
DA:20981,38
DA:20982,0
DA:21114,38
DA:21123,40
DA:21266,38
DA:21269,38
DA:21430,6
DA:21433,6
DA:21435,0
DA:21436,0
DA:21437,0
DA:21441,6
DA:21444,6
DA:21451,0
DA:21465,0
DA:21468,6
DA:21471,0
DA:21476,8
DA:21479,8
DA:21481,8
DA:21484,0
DA:21489,116
DA:21492,116
DA:21494,0
DA:21495,0
DA:21496,0
DA:21500,116
DA:21502,116
DA:21503,232
DA:21506,0
DA:21511,8
DA:21514,8
DA:21516,8
DA:21517,8
DA:21518,16
DA:21521,0
DA:21527,116
DA:21529,232
DA:21533,8
DA:21535,16
DA:21799,0
DA:21802,0
DA:21804,0
DA:21807,0
DA:21809,0
DA:21811,0
DA:21818,0
DA:21820,0
DA:21823,0
DA:21826,0
DA:21827,0
DA:21828,0
DA:21830,0
DA:21833,0
DA:21834,0
DA:21835,0
DA:21838,0
DA:21839,0
DA:21840,0
DA:21843,0
DA:21845,0
DA:21846,0
DA:21849,0
DA:21851,0
DA:21852,0
DA:21855,0
DA:21858,0
DA:21861,0
DA:22108,68
DA:22110,68
DA:22138,8
DA:22140,8
DA:22141,8
DA:22142,8
DA:22163,8
DA:22165,8
DA:22166,8
DA:22167,8
DA:22315,0
DA:22317,0
DA:22319,0
DA:22322,0
DA:22325,0
DA:22328,0
DA:22331,0
DA:22334,0
DA:22337,0
DA:22347,0
DA:22354,0
DA:22356,0
DA:22358,0
DA:22361,0
DA:22364,0
DA:22367,0
DA:22370,0
DA:22381,0
DA:22491,0
DA:22494,0
DA:22496,0
DA:22500,0
DA:22502,0
DA:22503,0
DA:22504,0
DA:22508,0
DA:22509,0
DA:22510,0
DA:22511,0
DA:23027,0
DA:23029,0
DA:23030,0
DA:23032,0
DA:23038,0
DA:23156,4
DA:23162,4
DA:23172,4
DA:23174,4
DA:23345,0
DA:23348,0
DA:23349,0
DA:23352,0
DA:23355,0
DA:23356,0
DA:23357,0
DA:23358,0
DA:23513,14
DA:23515,20
DA:23516,12
DA:23528,0
DA:23530,0
DA:23532,0
DA:23533,0
DA:23534,0
DA:23535,0
DA:23536,0
DA:23537,0
DA:23538,0
DA:23539,0
DA:23540,0
DA:23541,0
DA:23542,0
DA:23543,0
DA:23544,0
DA:23545,0
DA:23546,0
DA:23550,0
DA:23567,452
DA:23568,452
DA:23570,452
DA:23578,252
DA:23584,1324
DA:23586,1324
DA:23587,1324
LF:2172
LH:1004
end_of_record
TN:
SF:/home/fares/Desktop/NeuroClues/src/CSVHandler.cpp
FN:25,90,_ZN10CSVHandler11processDataEv
FN:3,5,_ZNK10CSVHandler7getDataB5cxx11Ev
FN:8,22,_ZN10CSVHandler8readFileERKNSt7__cxx1112basic_stringIcSt11char_traitsIcESaIcEEE
FN:93,103,_ZN10CSVHandler9writeFileERKNSt7__cxx1112basic_stringIcSt11char_traitsIcESaIcEEE
FNDA:10,_ZN10CSVHandler11processDataEv
FNDA:6,_ZNK10CSVHandler7getDataB5cxx11Ev
FNDA:14,_ZN10CSVHandler8readFileERKNSt7__cxx1112basic_stringIcSt11char_traitsIcESaIcEEE
FNDA:4,_ZN10CSVHandler9writeFileERKNSt7__cxx1112basic_stringIcSt11char_traitsIcESaIcEEE
FNF:4
FNH:4
DA:3,6
DA:4,6
DA:8,14
DA:9,14
DA:10,14
DA:11,2
DA:14,12
DA:15,48
DA:16,36
DA:18,12
DA:21,12
DA:22,14
DA:25,10
DA:26,10
DA:29,20
DA:32,10
DA:33,10
DA:34,10
DA:36,480
DA:37,470
DA:41,40
DA:42,30
DA:46,10
DA:47,510
DA:48,500
DA:49,500
DA:51,10
DA:54,10
DA:55,10
DA:56,10
DA:57,10
DA:58,10
DA:61,30
DA:62,20
DA:63,20
DA:66,960
DA:67,940
DA:71,20
DA:72,20
DA:75,20
DA:78,20
DA:79,20
DA:80,20
DA:83,20
DA:84,1020
DA:85,1000
DA:86,1000
DA:88,20
DA:89,20
DA:90,10
DA:93,4
DA:94,4
DA:95,4
DA:96,0
DA:99,16
DA:100,12
DA:102,4
DA:103,4
LF:58
LH:57
end_of_record
TN:
SF:/home/fares/Desktop/NeuroClues/src/FactoryUtils.cpp
FN:13,27,_Z10getFactoryRKNSt7__cxx1112basic_stringIcSt11char_traitsIcESaIcEEE
FN:18,18,_ZZ10getFactoryRKNSt7__cxx1112basic_stringIcSt11char_traitsIcESaIcEEEENKUlhE_clEh
FN:5,11,_Z12getExtensionRKNSt7__cxx1112basic_stringIcSt11char_traitsIcESaIcEEE
FNDA:7,_Z10getFactoryRKNSt7__cxx1112basic_stringIcSt11char_traitsIcESaIcEEE
FNDA:24,_ZZ10getFactoryRKNSt7__cxx1112basic_stringIcSt11char_traitsIcESaIcEEEENKUlhE_clEh
FNDA:16,_Z12getExtensionRKNSt7__cxx1112basic_stringIcSt11char_traitsIcESaIcEEE
FNF:3
FNH:3
DA:5,16
DA:6,16
DA:7,16
DA:8,12
DA:10,8
DA:13,7
DA:14,7
DA:17,7
DA:18,24
DA:20,7
DA:21,3
DA:22,4
DA:23,3
DA:25,1
DA:27,7
LF:15
LH:15
end_of_record
TN:
SF:/home/fares/Desktop/NeuroClues/src/JSONHandler.cpp
FN:23,57,_ZN11JSONHandler11processDataEv
FN:60,67,_ZN11JSONHandler9writeFileERKNSt7__cxx1112basic_stringIcSt11char_traitsIcESaIcEEE
FN:69,75,_ZN11JSONHandler11ensureArrayEv
FN:77,79,_ZNK11JSONHandler11getJsonDataB5cxx11Ev
FN:9,20,_ZN11JSONHandler8readFileERKNSt7__cxx1112basic_stringIcSt11char_traitsIcESaIcEEE
FNDA:8,_ZN11JSONHandler11processDataEv
FNDA:4,_ZN11JSONHandler9writeFileERKNSt7__cxx1112basic_stringIcSt11char_traitsIcESaIcEEE
FNDA:8,_ZN11JSONHandler11ensureArrayEv
FNDA:4,_ZNK11JSONHandler11getJsonDataB5cxx11Ev
FNDA:14,_ZN11JSONHandler8readFileERKNSt7__cxx1112basic_stringIcSt11char_traitsIcESaIcEEE
FNF:5
FNH:5
DA:9,14
DA:10,14
DA:11,14
DA:12,2
DA:16,12
DA:17,2
DA:18,2
DA:19,2
DA:20,14
DA:23,8
DA:24,8
DA:27,8
DA:28,8
DA:31,8
DA:32,8
DA:33,8
DA:36,24
DA:37,16
DA:38,14
DA:40,14
DA:41,6
DA:42,6
DA:43,6
DA:46,14
DA:47,12
DA:48,12
DA:49,12
DA:54,16
DA:55,16
DA:57,8
DA:60,4
DA:61,4
DA:62,4
DA:63,0
DA:65,4
DA:66,4
DA:67,4
DA:69,8
DA:70,8
DA:71,0
DA:72,0
DA:73,0
DA:74,0
DA:75,8
DA:77,4
DA:78,4
LF:46
LH:41
end_of_record
TN:
SF:/home/fares/Desktop/NeuroClues/tests/test_CSVHandler.cpp
FN:14,14,_ZN41CSVHandlerTest_FailsOnMissingCSVFile_Test8TestBodyEv
FN:14,14,_ZN41CSVHandlerTest_FailsOnMissingCSVFile_TestC2Ev
FN:14,14,_ZN41CSVHandlerTest_FailsOnMissingCSVFile_TestD0Ev
FN:14,14,_ZN41CSVHandlerTest_FailsOnMissingCSVFile_TestD2Ev
FN:20,20,_ZN40CSVHandlerTest_CanWriteProcessedCSV_Test8TestBodyEv
FN:20,20,_ZN40CSVHandlerTest_CanWriteProcessedCSV_TestC2Ev
FN:20,20,_ZN40CSVHandlerTest_CanWriteProcessedCSV_TestD0Ev
FN:20,20,_ZN40CSVHandlerTest_CanWriteProcessedCSV_TestD2Ev
FN:32,32,_ZN48CSVHandlerTest_AddsProcessedColumnsToHeader_Test8TestBodyEv
FN:32,32,_ZN48CSVHandlerTest_AddsProcessedColumnsToHeader_TestC2Ev
FN:32,32,_ZN48CSVHandlerTest_AddsProcessedColumnsToHeader_TestD0Ev
FN:32,32,_ZN48CSVHandlerTest_AddsProcessedColumnsToHeader_TestD2Ev
FN:47,47,_ZN50CSVHandlerTest_CalculatesRetinaFocusIntensity_Test8TestBodyEv
FN:47,47,_ZN50CSVHandlerTest_CalculatesRetinaFocusIntensity_TestC2Ev
FN:47,47,_ZN50CSVHandlerTest_CalculatesRetinaFocusIntensity_TestD0Ev
FN:47,47,_ZN50CSVHandlerTest_CalculatesRetinaFocusIntensity_TestD2Ev
FN:70,70,_ZN46CSVHandlerTest_AddsCorrectTimestampFormat_Test8TestBodyEv
FN:70,70,_ZN46CSVHandlerTest_AddsCorrectTimestampFormat_TestC2Ev
FN:70,70,_ZN46CSVHandlerTest_AddsCorrectTimestampFormat_TestD0Ev
FN:70,70,_ZN46CSVHandlerTest_AddsCorrectTimestampFormat_TestD2Ev
FN:8,8,_ZN35CSVHandlerTest_CanReadValidCSV_Test8TestBodyEv
FN:8,8,_ZN35CSVHandlerTest_CanReadValidCSV_TestC2Ev
FN:8,8,_ZN35CSVHandlerTest_CanReadValidCSV_TestD0Ev
FN:8,8,_ZN35CSVHandlerTest_CanReadValidCSV_TestD2Ev
FN:93,118,_ZN39CSVHandlerTest_FullWorkflowWithCSV_Test8TestBodyEv
FN:93,118,_ZN39CSVHandlerTest_FullWorkflowWithCSV_TestC2Ev
FN:93,118,_ZN39CSVHandlerTest_FullWorkflowWithCSV_TestD0Ev
FN:93,118,_ZN39CSVHandlerTest_FullWorkflowWithCSV_TestD2Ev
FNDA:2,_ZN41CSVHandlerTest_FailsOnMissingCSVFile_Test8TestBodyEv
FNDA:2,_ZN41CSVHandlerTest_FailsOnMissingCSVFile_TestC2Ev
FNDA:2,_ZN41CSVHandlerTest_FailsOnMissingCSVFile_TestD0Ev
FNDA:2,_ZN41CSVHandlerTest_FailsOnMissingCSVFile_TestD2Ev
FNDA:2,_ZN40CSVHandlerTest_CanWriteProcessedCSV_Test8TestBodyEv
FNDA:2,_ZN40CSVHandlerTest_CanWriteProcessedCSV_TestC2Ev
FNDA:2,_ZN40CSVHandlerTest_CanWriteProcessedCSV_TestD0Ev
FNDA:2,_ZN40CSVHandlerTest_CanWriteProcessedCSV_TestD2Ev
FNDA:2,_ZN48CSVHandlerTest_AddsProcessedColumnsToHeader_Test8TestBodyEv
FNDA:2,_ZN48CSVHandlerTest_AddsProcessedColumnsToHeader_TestC2Ev
FNDA:2,_ZN48CSVHandlerTest_AddsProcessedColumnsToHeader_TestD0Ev
FNDA:2,_ZN48CSVHandlerTest_AddsProcessedColumnsToHeader_TestD2Ev
FNDA:2,_ZN50CSVHandlerTest_CalculatesRetinaFocusIntensity_Test8TestBodyEv
FNDA:2,_ZN50CSVHandlerTest_CalculatesRetinaFocusIntensity_TestC2Ev
FNDA:2,_ZN50CSVHandlerTest_CalculatesRetinaFocusIntensity_TestD0Ev
FNDA:2,_ZN50CSVHandlerTest_CalculatesRetinaFocusIntensity_TestD2Ev
FNDA:2,_ZN46CSVHandlerTest_AddsCorrectTimestampFormat_Test8TestBodyEv
FNDA:2,_ZN46CSVHandlerTest_AddsCorrectTimestampFormat_TestC2Ev
FNDA:2,_ZN46CSVHandlerTest_AddsCorrectTimestampFormat_TestD0Ev
FNDA:2,_ZN46CSVHandlerTest_AddsCorrectTimestampFormat_TestD2Ev
FNDA:2,_ZN35CSVHandlerTest_CanReadValidCSV_Test8TestBodyEv
FNDA:2,_ZN35CSVHandlerTest_CanReadValidCSV_TestC2Ev
FNDA:2,_ZN35CSVHandlerTest_CanReadValidCSV_TestD0Ev
FNDA:2,_ZN35CSVHandlerTest_CanReadValidCSV_TestD2Ev
FNDA:2,_ZN39CSVHandlerTest_FullWorkflowWithCSV_Test8TestBodyEv
FNDA:2,_ZN39CSVHandlerTest_FullWorkflowWithCSV_TestC2Ev
FNDA:2,_ZN39CSVHandlerTest_FullWorkflowWithCSV_TestD0Ev
FNDA:2,_ZN39CSVHandlerTest_FullWorkflowWithCSV_TestD2Ev
FNF:28
FNH:28
DA:8,8
DA:9,2
DA:10,2
DA:11,2
DA:12,2
DA:14,8
DA:15,2
DA:16,2
DA:17,2
DA:18,2
DA:20,8
DA:21,2
DA:22,2
DA:23,2
DA:24,2
DA:27,2
DA:28,2
DA:29,2
DA:30,2
DA:32,8
DA:33,2
DA:34,2
DA:35,2
DA:36,2
DA:38,2
DA:39,2
DA:42,2
DA:43,2
DA:44,2
DA:45,2
DA:47,8
DA:48,2
DA:49,2
DA:50,2
DA:51,2
DA:53,2
DA:54,2
DA:57,4
DA:58,4
DA:59,4
DA:60,102
DA:61,100
DA:65,2
DA:66,2
DA:67,2
DA:70,8
DA:71,2
DA:72,2
DA:73,2
DA:74,2
DA:76,2
DA:77,2
DA:80,4
DA:81,4
DA:82,4
DA:83,102
DA:84,100
DA:88,4
DA:89,2
DA:90,2
DA:91,2
DA:93,8
DA:94,2
DA:96,2
DA:97,2
DA:99,2
DA:100,2
DA:103,2
DA:104,2
DA:107,2
DA:108,2
DA:109,2
DA:110,2
DA:111,2
DA:112,2
DA:113,2
DA:116,2
DA:117,2
DA:118,2
LF:79
LH:79
end_of_record
TN:
SF:/home/fares/Desktop/NeuroClues/tests/test_FileHandlerFactory.cpp
FN:18,18,_ZN55FileHandlerFactoryTest_ReturnsCorrectFactoryForCSV_Test8TestBodyEv
FN:18,18,_ZN55FileHandlerFactoryTest_ReturnsCorrectFactoryForCSV_TestC2Ev
FN:18,18,_ZN55FileHandlerFactoryTest_ReturnsCorrectFactoryForCSV_TestD0Ev
FN:18,18,_ZN55FileHandlerFactoryTest_ReturnsCorrectFactoryForCSV_TestD2Ev
FN:23,23,_ZN56FileHandlerFactoryTest_ReturnsCorrectFactoryForJSON_Test8TestBodyEv
FN:23,23,_ZN56FileHandlerFactoryTest_ReturnsCorrectFactoryForJSON_TestC2Ev
FN:23,23,_ZN56FileHandlerFactoryTest_ReturnsCorrectFactoryForJSON_TestD0Ev
FN:23,23,_ZN56FileHandlerFactoryTest_ReturnsCorrectFactoryForJSON_TestD2Ev
FN:28,28,_ZN56FileHandlerFactoryTest_ThrowsForUnsupportedFileType_Test8TestBodyEv
FN:28,28,_ZN56FileHandlerFactoryTest_ThrowsForUnsupportedFileType_TestC2Ev
FN:28,28,_ZN56FileHandlerFactoryTest_ThrowsForUnsupportedFileType_TestD0Ev
FN:28,28,_ZN56FileHandlerFactoryTest_ThrowsForUnsupportedFileType_TestD2Ev
FN:4,4,_ZN34UtilityTest_ExtractsExtension_Test8TestBodyEv
FN:4,4,_ZN34UtilityTest_ExtractsExtension_TestC2Ev
FN:4,4,_ZN34UtilityTest_ExtractsExtension_TestD0Ev
FN:4,4,_ZN34UtilityTest_ExtractsExtension_TestD2Ev
FN:9,9,_ZN33UtilityTest_HandlesEdgeCases_Test8TestBodyEv
FN:9,9,_ZN33UtilityTest_HandlesEdgeCases_TestC2Ev
FN:9,9,_ZN33UtilityTest_HandlesEdgeCases_TestD0Ev
FN:9,9,_ZN33UtilityTest_HandlesEdgeCases_TestD2Ev
FNDA:1,_ZN55FileHandlerFactoryTest_ReturnsCorrectFactoryForCSV_Test8TestBodyEv
FNDA:1,_ZN55FileHandlerFactoryTest_ReturnsCorrectFactoryForCSV_TestC2Ev
FNDA:1,_ZN55FileHandlerFactoryTest_ReturnsCorrectFactoryForCSV_TestD0Ev
FNDA:1,_ZN55FileHandlerFactoryTest_ReturnsCorrectFactoryForCSV_TestD2Ev
FNDA:1,_ZN56FileHandlerFactoryTest_ReturnsCorrectFactoryForJSON_Test8TestBodyEv
FNDA:1,_ZN56FileHandlerFactoryTest_ReturnsCorrectFactoryForJSON_TestC2Ev
FNDA:1,_ZN56FileHandlerFactoryTest_ReturnsCorrectFactoryForJSON_TestD0Ev
FNDA:1,_ZN56FileHandlerFactoryTest_ReturnsCorrectFactoryForJSON_TestD2Ev
FNDA:1,_ZN56FileHandlerFactoryTest_ThrowsForUnsupportedFileType_Test8TestBodyEv
FNDA:1,_ZN56FileHandlerFactoryTest_ThrowsForUnsupportedFileType_TestC2Ev
FNDA:1,_ZN56FileHandlerFactoryTest_ThrowsForUnsupportedFileType_TestD0Ev
FNDA:1,_ZN56FileHandlerFactoryTest_ThrowsForUnsupportedFileType_TestD2Ev
FNDA:1,_ZN34UtilityTest_ExtractsExtension_Test8TestBodyEv
FNDA:1,_ZN34UtilityTest_ExtractsExtension_TestC2Ev
FNDA:1,_ZN34UtilityTest_ExtractsExtension_TestD0Ev
FNDA:1,_ZN34UtilityTest_ExtractsExtension_TestD2Ev
FNDA:1,_ZN33UtilityTest_HandlesEdgeCases_Test8TestBodyEv
FNDA:1,_ZN33UtilityTest_HandlesEdgeCases_TestC2Ev
FNDA:1,_ZN33UtilityTest_HandlesEdgeCases_TestD0Ev
FNDA:1,_ZN33UtilityTest_HandlesEdgeCases_TestD2Ev
FNF:20
FNH:20
DA:4,4
DA:5,2
DA:6,2
DA:7,2
DA:8,1
DA:9,4
DA:10,2
DA:11,2
DA:12,2
DA:13,2
DA:14,2
DA:15,2
DA:16,1
DA:18,4
DA:19,1
DA:20,1
DA:21,1
DA:23,4
DA:24,1
DA:25,1
DA:26,1
DA:28,4
DA:29,3
DA:30,1
LF:24
LH:24
end_of_record
TN:
SF:/home/fares/Desktop/NeuroClues/tests/test_JSONHandler.cpp
FN:15,15,_ZN41JSONHandlerTest_FailsOnMalformedJSON_Test8TestBodyEv
FN:15,15,_ZN41JSONHandlerTest_FailsOnMalformedJSON_TestC2Ev
FN:15,15,_ZN41JSONHandlerTest_FailsOnMalformedJSON_TestD0Ev
FN:15,15,_ZN41JSONHandlerTest_FailsOnMalformedJSON_TestD2Ev
FN:21,21,_ZN39JSONHandlerTest_FailsOnMissingFile_Test8TestBodyEv
FN:21,21,_ZN39JSONHandlerTest_FailsOnMissingFile_TestC2Ev
FN:21,21,_ZN39JSONHandlerTest_FailsOnMissingFile_TestD0Ev
FN:21,21,_ZN39JSONHandlerTest_FailsOnMissingFile_TestD2Ev
FN:28,28,_ZN38JSONHandlerTest_CanWriteValidJSON_Test8TestBodyEv
FN:28,28,_ZN38JSONHandlerTest_CanWriteValidJSON_TestC2Ev
FN:28,28,_ZN38JSONHandlerTest_CanWriteValidJSON_TestD0Ev
FN:28,28,_ZN38JSONHandlerTest_CanWriteValidJSON_TestD2Ev
FN:41,41,_ZN48JSONHandlerTest_AddsValidProcessedTimestamp_Test8TestBodyEv
FN:41,41,_ZN48JSONHandlerTest_AddsValidProcessedTimestamp_TestC2Ev
FN:41,41,_ZN48JSONHandlerTest_AddsValidProcessedTimestamp_TestD0Ev
FN:41,41,_ZN48JSONHandlerTest_AddsValidProcessedTimestamp_TestD2Ev
FN:59,59,_ZN51JSONHandlerTest_HandlesMissingFieldsGracefully_Test8TestBodyEv
FN:59,59,_ZN51JSONHandlerTest_HandlesMissingFieldsGracefully_TestC2Ev
FN:59,59,_ZN51JSONHandlerTest_HandlesMissingFieldsGracefully_TestD0Ev
FN:59,59,_ZN51JSONHandlerTest_HandlesMissingFieldsGracefully_TestD2Ev
FN:81,109,_ZN44JSONHandlerTest_FullWorkflowIntegration_Test8TestBodyEv
FN:81,109,_ZN44JSONHandlerTest_FullWorkflowIntegration_TestC2Ev
FN:81,109,_ZN44JSONHandlerTest_FullWorkflowIntegration_TestD0Ev
FN:81,109,_ZN44JSONHandlerTest_FullWorkflowIntegration_TestD2Ev
FN:9,9,_ZN37JSONHandlerTest_CanReadValidJSON_Test8TestBodyEv
FN:9,9,_ZN37JSONHandlerTest_CanReadValidJSON_TestC2Ev
FN:9,9,_ZN37JSONHandlerTest_CanReadValidJSON_TestD0Ev
FN:9,9,_ZN37JSONHandlerTest_CanReadValidJSON_TestD2Ev
FNDA:2,_ZN41JSONHandlerTest_FailsOnMalformedJSON_Test8TestBodyEv
FNDA:2,_ZN41JSONHandlerTest_FailsOnMalformedJSON_TestC2Ev
FNDA:2,_ZN41JSONHandlerTest_FailsOnMalformedJSON_TestD0Ev
FNDA:2,_ZN41JSONHandlerTest_FailsOnMalformedJSON_TestD2Ev
FNDA:2,_ZN39JSONHandlerTest_FailsOnMissingFile_Test8TestBodyEv
FNDA:2,_ZN39JSONHandlerTest_FailsOnMissingFile_TestC2Ev
FNDA:2,_ZN39JSONHandlerTest_FailsOnMissingFile_TestD0Ev
FNDA:2,_ZN39JSONHandlerTest_FailsOnMissingFile_TestD2Ev
FNDA:2,_ZN38JSONHandlerTest_CanWriteValidJSON_Test8TestBodyEv
FNDA:2,_ZN38JSONHandlerTest_CanWriteValidJSON_TestC2Ev
FNDA:2,_ZN38JSONHandlerTest_CanWriteValidJSON_TestD0Ev
FNDA:2,_ZN38JSONHandlerTest_CanWriteValidJSON_TestD2Ev
FNDA:2,_ZN48JSONHandlerTest_AddsValidProcessedTimestamp_Test8TestBodyEv
FNDA:2,_ZN48JSONHandlerTest_AddsValidProcessedTimestamp_TestC2Ev
FNDA:2,_ZN48JSONHandlerTest_AddsValidProcessedTimestamp_TestD0Ev
FNDA:2,_ZN48JSONHandlerTest_AddsValidProcessedTimestamp_TestD2Ev
FNDA:2,_ZN51JSONHandlerTest_HandlesMissingFieldsGracefully_Test8TestBodyEv
FNDA:2,_ZN51JSONHandlerTest_HandlesMissingFieldsGracefully_TestC2Ev
FNDA:2,_ZN51JSONHandlerTest_HandlesMissingFieldsGracefully_TestD0Ev
FNDA:2,_ZN51JSONHandlerTest_HandlesMissingFieldsGracefully_TestD2Ev
FNDA:2,_ZN44JSONHandlerTest_FullWorkflowIntegration_Test8TestBodyEv
FNDA:2,_ZN44JSONHandlerTest_FullWorkflowIntegration_TestC2Ev
FNDA:2,_ZN44JSONHandlerTest_FullWorkflowIntegration_TestD0Ev
FNDA:2,_ZN44JSONHandlerTest_FullWorkflowIntegration_TestD2Ev
FNDA:2,_ZN37JSONHandlerTest_CanReadValidJSON_Test8TestBodyEv
FNDA:2,_ZN37JSONHandlerTest_CanReadValidJSON_TestC2Ev
FNDA:2,_ZN37JSONHandlerTest_CanReadValidJSON_TestD0Ev
FNDA:2,_ZN37JSONHandlerTest_CanReadValidJSON_TestD2Ev
FNF:28
FNH:28
DA:9,8
DA:10,2
DA:11,2
DA:12,2
DA:13,2
DA:15,8
DA:16,2
DA:17,2
DA:18,2
DA:19,2
DA:21,8
DA:22,2
DA:23,2
DA:24,2
DA:25,2
DA:28,8
DA:29,2
DA:30,2
DA:31,2
DA:32,2
DA:35,2
DA:36,2
DA:37,2
DA:39,2
DA:41,8
DA:42,2
DA:45,2
DA:46,2
DA:47,2
DA:48,2
DA:50,2
DA:51,2
DA:54,4
DA:55,2
DA:56,2
DA:57,2
DA:59,8
DA:60,2
DA:63,2
DA:64,2
DA:65,2
DA:66,2
DA:68,2
DA:71,2
DA:72,2
DA:73,2
DA:76,2
DA:77,2
DA:78,2
DA:79,2
DA:81,8
DA:82,2
DA:84,2
DA:85,2
DA:87,2
DA:88,2
DA:91,2
DA:92,2
DA:96,2
DA:97,2
DA:98,2
DA:99,2
DA:100,2
DA:102,2
DA:103,2
DA:104,2
DA:105,2
DA:108,2
DA:109,2
LF:69
LH:69
end_of_record
TN:
SF:/usr/include/c++/13/array
FN:126,127,_ZNSt5arrayIcLm64EE5beginEv
FN:200,204,_ZNSt5arrayIcLm512EEixEm
FN:208,214,_ZNKSt5arrayIN8nlohmann16json_abi_v3_11_36detail9dtoa_impl12cached_powerELm79EEixEm
FN:208,214,_ZNKSt5arrayIS_IcLm2EELm100EEixEm
FN:208,214,_ZNKSt5arrayIcLm2EEixEm
FN:208,214,_ZNKSt5arrayIhLm400EEixEm
FNDA:32,_ZNSt5arrayIcLm64EE5beginEv
FNDA:1220,_ZNSt5arrayIcLm512EEixEm
FNDA:20,_ZNKSt5arrayIN8nlohmann16json_abi_v3_11_36detail9dtoa_impl12cached_powerELm79EEixEm
FNDA:48,_ZNKSt5arrayIS_IcLm2EELm100EEixEm
FNDA:48,_ZNKSt5arrayIcLm2EEixEm
FNDA:2440,_ZNKSt5arrayIhLm400EEixEm
FNF:6
FNH:6
DA:126,32
DA:127,32
DA:187,3752
DA:200,1220
DA:203,1220
DA:208,2556
DA:213,2556
DA:277,212
LF:8
LH:8
end_of_record
TN:
SF:/usr/include/c++/13/bits/alloc_traits.h
FNF:0
FNH:0
DA:482,1046
DA:517,1046
DA:538,13524
DA:542,13604
DA:562,3259
DA:574,1112
DA:588,38
DA:661,4
DA:675,4
DA:948,684
DA:949,684
LF:11
LH:11
end_of_record
TN:
SF:/usr/include/c++/13/bits/allocated_ptr.h
FN:53,55,_ZNSt15__allocated_ptrISaISt23_Sp_counted_ptr_inplaceIN8nlohmann16json_abi_v3_11_36detail21output_stream_adapterIcEESaIvELN9__gnu_cxx12_Lock_policyE2EEEEC2ERSA_PS9_
FN:53,55,_ZNSt15__allocated_ptrISaISt23_Sp_counted_ptr_inplaceIN8nlohmann16json_abi_v3_11_36detail21output_string_adapterIcNSt7__cxx1112basic_stringIcSt11char_traitsIcESaIcEEEEESaIvELN9__gnu_cxx12_Lock_policyE2EEEEC2ERSG_PSF_
FN:71,75,_ZNSt15__allocated_ptrISaISt23_Sp_counted_ptr_inplaceIN8nlohmann16json_abi_v3_11_36detail21output_stream_adapterIcEESaIvELN9__gnu_cxx12_Lock_policyE2EEEED2Ev
FN:71,75,_ZNSt15__allocated_ptrISaISt23_Sp_counted_ptr_inplaceIN8nlohmann16json_abi_v3_11_36detail21output_string_adapterIcNSt7__cxx1112basic_stringIcSt11char_traitsIcESaIcEEEEESaIvELN9__gnu_cxx12_Lock_policyE2EEEED2Ev
FN:79,83,_ZNSt15__allocated_ptrISaISt23_Sp_counted_ptr_inplaceIN8nlohmann16json_abi_v3_11_36detail21output_stream_adapterIcEESaIvELN9__gnu_cxx12_Lock_policyE2EEEEaSEDn
FN:79,83,_ZNSt15__allocated_ptrISaISt23_Sp_counted_ptr_inplaceIN8nlohmann16json_abi_v3_11_36detail21output_string_adapterIcNSt7__cxx1112basic_stringIcSt11char_traitsIcESaIcEEEEESaIvELN9__gnu_cxx12_Lock_policyE2EEEEaSEDn
FN:86,86,_ZNSt15__allocated_ptrISaISt23_Sp_counted_ptr_inplaceIN8nlohmann16json_abi_v3_11_36detail21output_stream_adapterIcEESaIvELN9__gnu_cxx12_Lock_policyE2EEEE3getEv
FN:86,86,_ZNSt15__allocated_ptrISaISt23_Sp_counted_ptr_inplaceIN8nlohmann16json_abi_v3_11_36detail21output_string_adapterIcNSt7__cxx1112basic_stringIcSt11char_traitsIcESaIcEEEEESaIvELN9__gnu_cxx12_Lock_policyE2EEEE3getEv
FN:96,99,_ZSt18__allocate_guardedISaISt23_Sp_counted_ptr_inplaceIN8nlohmann16json_abi_v3_11_36detail21output_stream_adapterIcEESaIvELN9__gnu_cxx12_Lock_policyE2EEEESt15__allocated_ptrIT_ERSC_
FN:96,99,_ZSt18__allocate_guardedISaISt23_Sp_counted_ptr_inplaceIN8nlohmann16json_abi_v3_11_36detail21output_string_adapterIcNSt7__cxx1112basic_stringIcSt11char_traitsIcESaIcEEEEESaIvELN9__gnu_cxx12_Lock_policyE2EEEESt15__allocated_ptrIT_ERSI_
FNDA:0,_ZNSt15__allocated_ptrISaISt23_Sp_counted_ptr_inplaceIN8nlohmann16json_abi_v3_11_36detail21output_stream_adapterIcEESaIvELN9__gnu_cxx12_Lock_policyE2EEEEC2ERSA_PS9_
FNDA:8,_ZNSt15__allocated_ptrISaISt23_Sp_counted_ptr_inplaceIN8nlohmann16json_abi_v3_11_36detail21output_string_adapterIcNSt7__cxx1112basic_stringIcSt11char_traitsIcESaIcEEEEESaIvELN9__gnu_cxx12_Lock_policyE2EEEEC2ERSG_PSF_
FNDA:0,_ZNSt15__allocated_ptrISaISt23_Sp_counted_ptr_inplaceIN8nlohmann16json_abi_v3_11_36detail21output_stream_adapterIcEESaIvELN9__gnu_cxx12_Lock_policyE2EEEED2Ev
FNDA:8,_ZNSt15__allocated_ptrISaISt23_Sp_counted_ptr_inplaceIN8nlohmann16json_abi_v3_11_36detail21output_string_adapterIcNSt7__cxx1112basic_stringIcSt11char_traitsIcESaIcEEEEESaIvELN9__gnu_cxx12_Lock_policyE2EEEED2Ev
FNDA:0,_ZNSt15__allocated_ptrISaISt23_Sp_counted_ptr_inplaceIN8nlohmann16json_abi_v3_11_36detail21output_stream_adapterIcEESaIvELN9__gnu_cxx12_Lock_policyE2EEEEaSEDn
FNDA:4,_ZNSt15__allocated_ptrISaISt23_Sp_counted_ptr_inplaceIN8nlohmann16json_abi_v3_11_36detail21output_string_adapterIcNSt7__cxx1112basic_stringIcSt11char_traitsIcESaIcEEEEESaIvELN9__gnu_cxx12_Lock_policyE2EEEEaSEDn
FNDA:0,_ZNSt15__allocated_ptrISaISt23_Sp_counted_ptr_inplaceIN8nlohmann16json_abi_v3_11_36detail21output_stream_adapterIcEESaIvELN9__gnu_cxx12_Lock_policyE2EEEE3getEv
FNDA:4,_ZNSt15__allocated_ptrISaISt23_Sp_counted_ptr_inplaceIN8nlohmann16json_abi_v3_11_36detail21output_string_adapterIcNSt7__cxx1112basic_stringIcSt11char_traitsIcESaIcEEEEESaIvELN9__gnu_cxx12_Lock_policyE2EEEE3getEv
FNDA:0,_ZSt18__allocate_guardedISaISt23_Sp_counted_ptr_inplaceIN8nlohmann16json_abi_v3_11_36detail21output_stream_adapterIcEESaIvELN9__gnu_cxx12_Lock_policyE2EEEESt15__allocated_ptrIT_ERSC_
FNDA:4,_ZSt18__allocate_guardedISaISt23_Sp_counted_ptr_inplaceIN8nlohmann16json_abi_v3_11_36detail21output_string_adapterIcNSt7__cxx1112basic_stringIcSt11char_traitsIcESaIcEEEEESaIvELN9__gnu_cxx12_Lock_policyE2EEEESt15__allocated_ptrIT_ERSI_
FNF:10
FNH:5
DA:53,8
DA:54,8
DA:55,8
DA:71,8
DA:73,8
DA:74,4
DA:75,8
DA:79,4
DA:81,4
DA:82,4
DA:86,4
DA:96,4
DA:98,4
LF:13
LH:13
end_of_record
TN:
SF:/usr/include/c++/13/bits/allocator.h
FNF:0
FNH:0
DA:163,873
DA:168,73
DA:178,8
DA:184,611
LF:4
LH:4
end_of_record
TN:
SF:/usr/include/c++/13/bits/basic_string.h
FN:3528,3541,_ZSt12__str_concatINSt7__cxx1112basic_stringIcSt11char_traitsIcESaIcEEEET_PKNS6_10value_typeENS6_9size_typeES9_SA_RKNS6_14allocator_typeE
FN:3571,3579,_ZStplIcSt11char_traitsIcESaIcEENSt7__cxx1112basic_stringIT_T0_T1_EEPKS5_RKS8_
FN:3688,3690,_ZStplIcSt11char_traitsIcESaIcEENSt7__cxx1112basic_stringIT_T0_T1_EEOS8_PKS5_
FN:3710,3716,_ZSteqIcSt11char_traitsIcESaIcEEbRKNSt7__cxx1112basic_stringIT_T0_T1_EESA_
FN:3727,3732,_ZSteqIcSt11char_traitsIcESaIcEEbRKNSt7__cxx1112basic_stringIT_T0_T1_EEPKS5_
FN:3829,3832,_ZStltIcSt11char_traitsIcESaIcEEbRKNSt7__cxx1112basic_stringIT_T0_T1_EESA_
FN:3843,3845,_ZStltIcSt11char_traitsIcESaIcEEbRKNSt7__cxx1112basic_stringIT_T0_T1_EEPKS5_
FN:3856,3858,_ZStltIcSt11char_traitsIcESaIcEEbPKT_RKNSt7__cxx1112basic_stringIS3_T0_T1_EE
FN:4150,4151,_ZNSt7__cxx114stodERKNS_12basic_stringIcSt11char_traitsIcESaIcEEEPm
FN:4162,4173,_ZNSt7__cxx119to_stringEi
FN:4204,4212,_ZNSt7__cxx119to_stringEm
FN:4251,4257,_ZNSt7__cxx119to_stringEd
FN:760,770,_ZNSt7__cxx1112basic_stringIcSt11char_traitsIcESaIcEEC2IPcvEET_S7_RKS3_
FNDA:38,_ZSt12__str_concatINSt7__cxx1112basic_stringIcSt11char_traitsIcESaIcEEEET_PKNS6_10value_typeENS6_9size_typeES9_SA_RKNS6_14allocator_typeE
FNDA:5,_ZStplIcSt11char_traitsIcESaIcEENSt7__cxx1112basic_stringIT_T0_T1_EEPKS5_RKS8_
FNDA:84,_ZStplIcSt11char_traitsIcESaIcEENSt7__cxx1112basic_stringIT_T0_T1_EEOS8_PKS5_
FNDA:0,_ZSteqIcSt11char_traitsIcESaIcEEbRKNSt7__cxx1112basic_stringIT_T0_T1_EESA_
FNDA:40,_ZSteqIcSt11char_traitsIcESaIcEEbRKNSt7__cxx1112basic_stringIT_T0_T1_EEPKS5_
FNDA:1138,_ZStltIcSt11char_traitsIcESaIcEEbRKNSt7__cxx1112basic_stringIT_T0_T1_EESA_
FNDA:140,_ZStltIcSt11char_traitsIcESaIcEEbRKNSt7__cxx1112basic_stringIT_T0_T1_EEPKS5_
FNDA:58,_ZStltIcSt11char_traitsIcESaIcEEbPKT_RKNSt7__cxx1112basic_stringIS3_T0_T1_EE
FNDA:42,_ZNSt7__cxx114stodERKNS_12basic_stringIcSt11char_traitsIcESaIcEEEPm
FNDA:2,_ZNSt7__cxx119to_stringEi
FNDA:4,_ZNSt7__cxx119to_stringEm
FNDA:20,_ZNSt7__cxx119to_stringEd
FNDA:20,_ZNSt7__cxx1112basic_stringIcSt11char_traitsIcESaIcEEC2IPcvEET_S7_RKS3_
FNF:13
FNH:12
DA:355,1373
DA:760,20
DA:762,20
DA:765,20
DA:770,20
DA:3528,38
DA:3536,38
DA:3537,38
DA:3538,38
DA:3539,38
DA:3540,38
DA:3541,0
DA:3571,5
DA:3578,10
DA:3688,84
DA:3690,84
DA:3710,0
DA:3714,0
DA:3715,0
DA:3727,40
DA:3730,40
DA:3731,40
DA:3829,1138
DA:3832,1138
DA:3843,140
DA:3845,140
DA:3856,58
DA:3858,58
DA:4150,42
DA:4151,42
DA:4162,2
DA:4167,2
DA:4168,2
DA:4169,2
DA:4170,2
DA:4171,2
DA:4172,2
DA:4204,4
DA:4209,4
DA:4210,4
DA:4211,4
DA:4212,0
DA:4251,20
DA:4253,20
DA:4256,20
LF:45
LH:40
end_of_record
TN:
SF:/usr/include/c++/13/bits/basic_string.tcc
FN:221,252,_ZNSt7__cxx1112basic_stringIcSt11char_traitsIcESaIcEE12_M_constructIPKcEEvT_S8_St20forward_iterator_tag
FN:221,252,_ZNSt7__cxx1112basic_stringIcSt11char_traitsIcESaIcEE12_M_constructIPcEEvT_S7_St20forward_iterator_tag
FN:239,239,_ZZNSt7__cxx1112basic_stringIcSt11char_traitsIcESaIcEE12_M_constructIPKcEEvT_S8_St20forward_iterator_tagEN6_GuardC2EPS4_
FN:239,239,_ZZNSt7__cxx1112basic_stringIcSt11char_traitsIcESaIcEE12_M_constructIPcEEvT_S7_St20forward_iterator_tagEN6_GuardC2EPS4_
FN:242,242,_ZZNSt7__cxx1112basic_stringIcSt11char_traitsIcESaIcEE12_M_constructIPKcEEvT_S8_St20forward_iterator_tagEN6_GuardD2Ev
FN:242,242,_ZZNSt7__cxx1112basic_stringIcSt11char_traitsIcESaIcEE12_M_constructIPcEEvT_S7_St20forward_iterator_tagEN6_GuardD2Ev
FNDA:0,_ZNSt7__cxx1112basic_stringIcSt11char_traitsIcESaIcEE12_M_constructIPKcEEvT_S8_St20forward_iterator_tag
FNDA:2269,_ZNSt7__cxx1112basic_stringIcSt11char_traitsIcESaIcEE12_M_constructIPcEEvT_S7_St20forward_iterator_tag
FNDA:0,_ZZNSt7__cxx1112basic_stringIcSt11char_traitsIcESaIcEE12_M_constructIPKcEEvT_S8_St20forward_iterator_tagEN6_GuardC2EPS4_
FNDA:2269,_ZZNSt7__cxx1112basic_stringIcSt11char_traitsIcESaIcEE12_M_constructIPcEEvT_S7_St20forward_iterator_tagEN6_GuardC2EPS4_
FNDA:0,_ZZNSt7__cxx1112basic_stringIcSt11char_traitsIcESaIcEE12_M_constructIPKcEEvT_S8_St20forward_iterator_tagEN6_GuardD2Ev
FNDA:2269,_ZZNSt7__cxx1112basic_stringIcSt11char_traitsIcESaIcEE12_M_constructIPcEEvT_S7_St20forward_iterator_tagEN6_GuardD2Ev
FNF:6
FNH:3
DA:221,2269
DA:225,2269
DA:227,2269
DA:229,896
DA:230,896
DA:239,2269
DA:242,2269
DA:245,2269
DA:247,2269
DA:249,2269
DA:251,2269
DA:252,2269
LF:12
LH:12
end_of_record
TN:
SF:/usr/include/c++/13/bits/char_traits.h
FN:374,390,_ZNSt11char_traitsIcE7compareEPKcS2_m
FN:393,400,_ZNSt11char_traitsIcE6lengthEPKc
FN:427,436,_ZNSt11char_traitsIcE4copyEPcPKcm
FN:451,452,_ZNSt11char_traitsIcE12to_char_typeERKi
FN:466,467,_ZNSt11char_traitsIcE3eofEv
FNDA:26,_ZNSt11char_traitsIcE7compareEPKcS2_m
FNDA:96,_ZNSt11char_traitsIcE6lengthEPKc
FNDA:0,_ZNSt11char_traitsIcE4copyEPcPKcm
FNDA:8784,_ZNSt11char_traitsIcE12to_char_typeERKi
FNDA:16570,_ZNSt11char_traitsIcE3eofEv
FNF:5
FNH:4
DA:374,26
DA:376,26
DA:377,14
DA:389,12
DA:393,96
DA:399,96
DA:427,0
DA:429,0
DA:430,0
DA:435,0
DA:451,8784
DA:452,8784
DA:466,16570
DA:467,16570
LF:14
LH:10
end_of_record
TN:
SF:/usr/include/c++/13/bits/charconv.h
FN:55,74,_ZNSt8__detail14__to_chars_lenIjEEjT_i
FN:55,74,_ZNSt8__detail14__to_chars_lenImEEjT_i
FN:81,110,_ZNSt8__detail18__to_chars_10_implIjEEvPcjT_
FN:81,110,_ZNSt8__detail18__to_chars_10_implImEEvPcjT_
FNDA:2,_ZNSt8__detail14__to_chars_lenIjEEjT_i
FNDA:4,_ZNSt8__detail14__to_chars_lenImEEjT_i
FNDA:2,_ZNSt8__detail18__to_chars_10_implIjEEvPcjT_
FNDA:4,_ZNSt8__detail18__to_chars_10_implImEEvPcjT_
FNF:4
FNH:4
DA:55,6
DA:61,6
DA:62,6
DA:63,6
DA:64,6
DA:67,6
DA:68,4
DA:69,2
DA:70,0
DA:71,0
DA:72,0
DA:81,6
DA:87,6
DA:93,6
DA:94,8
DA:96,2
DA:97,2
DA:98,2
DA:99,2
DA:100,2
DA:102,6
DA:104,2
DA:105,2
DA:106,2
DA:109,4
DA:110,6
LF:26
LH:23
end_of_record
TN:
SF:/usr/include/c++/13/bits/chrono.h
FN:1244,1248,_ZNSt6chrono3_V212system_clock9to_time_tERKNS_10time_pointIS1_NS_8durationIlSt5ratioILl1ELl1000000000EEEEEE
FN:208,213,_ZNSt6chrono20__duration_cast_implINS_8durationIlSt5ratioILl1ELl1EEEES2_ILl1ELl1000000000EElLb1ELb0EE6__castIlS5_EES4_RKNS1_IT_T0_EE
FN:273,291,_ZNSt6chrono13duration_castINS_8durationIlSt5ratioILl1ELl1EEEElS2_ILl1ELl1000000000EEEENSt9enable_ifIXsrNS_13__is_durationIT_EE5valueES8_E4typeERKNS1_IT0_T1_EE
FN:573,574,_ZNSt6chrono8durationIlSt5ratioILl1ELl1EEEC2IlvEERKT_
FN:589,590,_ZNKSt6chrono8durationIlSt5ratioILl1ELl1000000000EEE5countEv
FN:589,590,_ZNKSt6chrono8durationIlSt5ratioILl1ELl1EEE5countEv
FN:949,950,_ZNKSt6chrono10time_pointINS_3_V212system_clockENS_8durationIlSt5ratioILl1ELl1000000000EEEEE16time_since_epochEv
FNDA:18,_ZNSt6chrono3_V212system_clock9to_time_tERKNS_10time_pointIS1_NS_8durationIlSt5ratioILl1ELl1000000000EEEEEE
FNDA:18,_ZNSt6chrono20__duration_cast_implINS_8durationIlSt5ratioILl1ELl1EEEES2_ILl1ELl1000000000EElLb1ELb0EE6__castIlS5_EES4_RKNS1_IT_T0_EE
FNDA:18,_ZNSt6chrono13duration_castINS_8durationIlSt5ratioILl1ELl1EEEElS2_ILl1ELl1000000000EEEENSt9enable_ifIXsrNS_13__is_durationIT_EE5valueES8_E4typeERKNS1_IT0_T1_EE
FNDA:67,_ZNSt6chrono8durationIlSt5ratioILl1ELl1EEEC2IlvEERKT_
FNDA:297,_ZNKSt6chrono8durationIlSt5ratioILl1ELl1000000000EEE5countEv
FNDA:67,_ZNKSt6chrono8durationIlSt5ratioILl1ELl1EEE5countEv
FNDA:116,_ZNKSt6chrono10time_pointINS_3_V212system_clockENS_8durationIlSt5ratioILl1ELl1000000000EEEEE16time_since_epochEv
FNF:7
FNH:7
DA:208,18
DA:211,36
DA:212,18
DA:273,18
DA:287,18
DA:573,67
DA:574,67
DA:589,364
DA:590,364
DA:949,116
DA:950,116
DA:1244,18
DA:1247,18
LF:13
LH:13
end_of_record
TN:
SF:/usr/include/c++/13/bits/cpp_type_traits.h
FN:607,608,_ZSt12__miter_baseIN9__gnu_cxx17__normal_iteratorIPKhSt6vectorIhSaIhEEEEET_S8_
FN:607,608,_ZSt12__miter_baseIN9__gnu_cxx17__normal_iteratorIPN8nlohmann16json_abi_v3_11_310basic_jsonISt3mapSt6vectorNSt7__cxx1112basic_stringIcSt11char_traitsIcESaIcEEEblmdSaNS3_14adl_serializerES6_IhSaIhEEvEES6_ISG_SaISG_EEEEET_SL_
FN:607,608,_ZSt12__miter_baseIPPN8nlohmann16json_abi_v3_11_310basic_jsonISt3mapSt6vectorNSt7__cxx1112basic_stringIcSt11char_traitsIcESaIcEEEblmdSaNS1_14adl_serializerES4_IhSaIhEEvEEET_SH_
FN:607,608,_ZSt12__miter_baseIPcET_S1_
FN:607,608,_ZSt12__miter_baseIPmET_S1_
FN:607,608,_ZSt12__miter_baseISt13_Bit_iteratorET_S1_
FN:607,608,_ZSt12__miter_baseISt19_Bit_const_iteratorET_S1_
FNDA:0,_ZSt12__miter_baseIN9__gnu_cxx17__normal_iteratorIPKhSt6vectorIhSaIhEEEEET_S8_
FNDA:24,_ZSt12__miter_baseIN9__gnu_cxx17__normal_iteratorIPN8nlohmann16json_abi_v3_11_310basic_jsonISt3mapSt6vectorNSt7__cxx1112basic_stringIcSt11char_traitsIcESaIcEEEblmdSaNS3_14adl_serializerES6_IhSaIhEEvEES6_ISG_SaISG_EEEEET_SL_
FNDA:0,_ZSt12__miter_baseIPPN8nlohmann16json_abi_v3_11_310basic_jsonISt3mapSt6vectorNSt7__cxx1112basic_stringIcSt11char_traitsIcESaIcEEEblmdSaNS1_14adl_serializerES4_IhSaIhEEvEEET_SH_
FNDA:0,_ZSt12__miter_baseIPcET_S1_
FNDA:28,_ZSt12__miter_baseIPmET_S1_
FNDA:28,_ZSt12__miter_baseISt13_Bit_iteratorET_S1_
FNDA:28,_ZSt12__miter_baseISt19_Bit_const_iteratorET_S1_
FNF:7
FNH:4
DA:607,108
DA:608,108
LF:2
LH:2
end_of_record
TN:
SF:/usr/include/c++/13/bits/exception.h
FN:62,62,_ZNSt9exceptionC2Ev
FN:65,65,_ZNSt9exceptionC2ERKS_
FNDA:2,_ZNSt9exceptionC2Ev
FNDA:2,_ZNSt9exceptionC2ERKS_
FNF:2
FNH:2
DA:62,2
DA:65,2
LF:2
LH:2
end_of_record
TN:
SF:/usr/include/c++/13/bits/ios_base.h
FN:130,131,_ZStorSt13_Ios_OpenmodeS_
FN:166,167,_ZStanSt12_Ios_IostateS_
FN:170,171,_ZStorSt12_Ios_IostateS_
FN:182,183,_ZStoRRSt12_Ios_IostateS_
FN:662,663,_ZNKSt8ios_base5flagsEv
FN:755,756,_ZNKSt8ios_base5widthEv
FN:764,769,_ZNSt8ios_base5widthEl
FN:806,807,_ZNKSt8ios_base6getlocEv
FN:83,84,_ZStanSt13_Ios_FmtflagsS_
FNDA:34,_ZStorSt13_Ios_OpenmodeS_
FNDA:14,_ZStanSt12_Ios_IostateS_
FNDA:0,_ZStorSt12_Ios_IostateS_
FNDA:0,_ZStoRRSt12_Ios_IostateS_
FNDA:0,_ZNKSt8ios_base5flagsEv
FNDA:0,_ZNKSt8ios_base5widthEv
FNDA:0,_ZNSt8ios_base5widthEl
FNDA:18,_ZNKSt8ios_base6getlocEv
FNDA:0,_ZStanSt13_Ios_FmtflagsS_
FNF:9
FNH:3
DA:83,0
DA:84,0
DA:130,34
DA:131,34
DA:166,14
DA:167,14
DA:170,0
DA:171,0
DA:182,0
DA:183,0
DA:662,0
DA:663,0
DA:755,0
DA:756,0
DA:764,0
DA:766,0
DA:767,0
DA:768,0
DA:806,18
DA:807,18
LF:20
LH:6
end_of_record
TN:
SF:/usr/include/c++/13/bits/move.h
FN:189,200,_ZSt4swapIN8nlohmann16json_abi_v3_11_310basic_jsonISt3mapSt6vectorNSt7__cxx1112basic_stringIcSt11char_traitsIcESaIcEEEblmdSaNS1_14adl_serializerES4_IhSaIhEEvE10json_valueEENSt9enable_ifIXsrSt6__and_IJSt6__not_ISt15__is_tuple_likeIT_EESt21is_move_constructibleISK_ESt18is_move_assignableISK_EEE5valueEvE4typeERSK_SU_
FN:189,200,_ZSt4swapIN8nlohmann16json_abi_v3_11_36detail7value_tEENSt9enable_ifIXsrSt6__and_IJSt6__not_ISt15__is_tuple_likeIT_EESt21is_move_constructibleIS8_ESt18is_move_assignableIS8_EEE5valueEvE4typeERS8_SI_
FN:51,52,_ZSt11__addressofIN8nlohmann16json_abi_v3_11_310basic_jsonISt3mapSt6vectorNSt7__cxx1112basic_stringIcSt11char_traitsIcESaIcEEEblmdSaNS1_14adl_serializerES4_IhSaIhEEvEEEPT_RSF_
FN:51,52,_ZSt11__addressofINSt7__cxx1112basic_stringIcSt11char_traitsIcESaIcEEEEPT_RS6_
FN:51,52,_ZSt11__addressofISaISt23_Sp_counted_ptr_inplaceIN8nlohmann16json_abi_v3_11_36detail21output_stream_adapterIcEESaIvELN9__gnu_cxx12_Lock_policyE2EEEEPT_RSB_
FN:51,52,_ZSt11__addressofISaISt23_Sp_counted_ptr_inplaceIN8nlohmann16json_abi_v3_11_36detail21output_string_adapterIcNSt7__cxx1112basic_stringIcSt11char_traitsIcESaIcEEEEESaIvELN9__gnu_cxx12_Lock_policyE2EEEEPT_RSH_
FN:51,52,_ZSt11__addressofISt6vectorIN8nlohmann16json_abi_v3_11_310basic_jsonISt3mapS0_NSt7__cxx1112basic_stringIcSt11char_traitsIcESaIcEEEblmdSaNS2_14adl_serializerES0_IhSaIhEEvEESaISE_EEEPT_RSH_
FN:51,52,_ZSt11__addressofImEPT_RS0_
FN:70,71,_ZSt7forwardIDnEOT_RNSt16remove_referenceIS0_E4typeE
FN:70,71,_ZSt7forwardIN8nlohmann16json_abi_v3_11_310basic_jsonISt3mapSt6vectorNSt7__cxx1112basic_stringIcSt11char_traitsIcESaIcEEEblmdSaNS1_14adl_serializerES4_IhSaIhEEvEEEOT_RNSt16remove_referenceISF_E4typeE
FN:70,71,_ZSt7forwardIN8nlohmann16json_abi_v3_11_36detail13parse_event_tEEOT_RNSt16remove_referenceIS4_E4typeE
FN:70,71,_ZSt7forwardIN8nlohmann16json_abi_v3_11_36detail17json_default_baseEEOT_RNSt16remove_referenceIS4_E4typeE
FN:70,71,_ZSt7forwardIN8nlohmann16json_abi_v3_11_36detail7value_tEEOT_RNSt16remove_referenceIS4_E4typeE
FN:70,71,_ZSt7forwardINSt7__cxx1112basic_stringIcSt11char_traitsIcESaIcEEEEOT_RNSt16remove_referenceIS6_E4typeE
FN:70,71,_ZSt7forwardIPKN8nlohmann16json_abi_v3_11_36detail8json_refINS1_10basic_jsonISt3mapSt6vectorNSt7__cxx1112basic_stringIcSt11char_traitsIcESaIcEEEblmdSaNS1_14adl_serializerES6_IhSaIhEEvEEEEEOT_RNSt16remove_referenceISK_E4typeE
FN:70,71,_ZSt7forwardIPKcEOT_RNSt16remove_referenceIS2_E4typeE
FN:70,71,_ZSt7forwardIPN8nlohmann16json_abi_v3_11_310basic_jsonISt3mapSt6vectorNSt7__cxx1112basic_stringIcSt11char_traitsIcESaIcEEEblmdSaNS1_14adl_serializerES4_IhSaIhEEvEEEOT_RNSt16remove_referenceISG_E4typeE
FN:70,71,_ZSt7forwardIRA10_KcEOT_RNSt16remove_referenceIS3_E4typeE
FN:70,71,_ZSt7forwardIRA12_KcEOT_RNSt16remove_referenceIS3_E4typeE
FN:70,71,_ZSt7forwardIRA15_KcEOT_RNSt16remove_referenceIS3_E4typeE
FN:70,71,_ZSt7forwardIRA17_KcEOT_RNSt16remove_referenceIS3_E4typeE
FN:70,71,_ZSt7forwardIRA19_KcEOT_RNSt16remove_referenceIS3_E4typeE
FN:70,71,_ZSt7forwardIRA1_KcEOT_RNSt16remove_referenceIS3_E4typeE
FN:70,71,_ZSt7forwardIRA20_KcEOT_RNSt16remove_referenceIS3_E4typeE
FN:70,71,_ZSt7forwardIRA21_KcEOT_RNSt16remove_referenceIS3_E4typeE
FN:70,71,_ZSt7forwardIRA23_KcEOT_RNSt16remove_referenceIS3_E4typeE
FN:70,71,_ZSt7forwardIRA24_KcEOT_RNSt16remove_referenceIS3_E4typeE
FN:70,71,_ZSt7forwardIRA25_KcEOT_RNSt16remove_referenceIS3_E4typeE
FN:70,71,_ZSt7forwardIRA26_KcEOT_RNSt16remove_referenceIS3_E4typeE
FN:70,71,_ZSt7forwardIRA29_KcEOT_RNSt16remove_referenceIS3_E4typeE
FN:70,71,_ZSt7forwardIRA39_KcEOT_RNSt16remove_referenceIS3_E4typeE
FN:70,71,_ZSt7forwardIRA3_KcEOT_RNSt16remove_referenceIS3_E4typeE
FN:70,71,_ZSt7forwardIRA51_KcEOT_RNSt16remove_referenceIS3_E4typeE
FN:70,71,_ZSt7forwardIRA52_KcEOT_RNSt16remove_referenceIS3_E4typeE
FN:70,71,_ZSt7forwardIRA5_KcEOT_RNSt16remove_referenceIS3_E4typeE
FN:70,71,_ZSt7forwardIRA8_KcEOT_RNSt16remove_referenceIS3_E4typeE
FN:70,71,_ZSt7forwardIRKN8nlohmann16json_abi_v3_11_310basic_jsonISt3mapSt6vectorNSt7__cxx1112basic_stringIcSt11char_traitsIcESaIcEEEblmdSaNS1_14adl_serializerES4_IhSaIhEEvEEEOT_RNSt16remove_referenceISH_E4typeE
FN:70,71,_ZSt7forwardIRKN8nlohmann16json_abi_v3_11_327byte_container_with_subtypeISt6vectorIhSaIhEEEEEOT_RNSt16remove_referenceIS9_E4typeE
FN:70,71,_ZSt7forwardIRKN8nlohmann16json_abi_v3_11_36detail8json_refINS1_10basic_jsonISt3mapSt6vectorNSt7__cxx1112basic_stringIcSt11char_traitsIcESaIcEEEblmdSaNS1_14adl_serializerES6_IhSaIhEEvEEEEEOT_RNSt16remove_referenceISK_E4typeE
FN:70,71,_ZSt7forwardIRKNSt7__cxx1112basic_stringIcSt11char_traitsIcESaIcEEEEOT_RNSt16remove_referenceIS8_E4typeE
FN:70,71,_ZSt7forwardIRKPKcEOT_RNSt16remove_referenceIS4_E4typeE
FN:70,71,_ZSt7forwardIRKPN8nlohmann16json_abi_v3_11_310basic_jsonISt3mapSt6vectorNSt7__cxx1112basic_stringIcSt11char_traitsIcESaIcEEEblmdSaNS1_14adl_serializerES4_IhSaIhEEvEEEOT_RNSt16remove_referenceISI_E4typeE
FN:70,71,_ZSt7forwardIRKSt21piecewise_construct_tEOT_RNSt16remove_referenceIS3_E4typeE
FN:70,71,_ZSt7forwardIRKSt3mapINSt7__cxx1112basic_stringIcSt11char_traitsIcESaIcEEEN8nlohmann16json_abi_v3_11_310basic_jsonIS0_St6vectorS6_blmdSaNS8_14adl_serializerESA_IhSaIhEEvEESt4lessIvESaISt4pairIKS6_SE_EEEEOT_RNSt16remove_referenceISO_E4typeE
FN:70,71,_ZSt7forwardIRKSt4pairIKNSt7__cxx1112basic_stringIcSt11char_traitsIcESaIcEEEN8nlohmann16json_abi_v3_11_310basic_jsonISt3mapSt6vectorS6_blmdSaNS9_14adl_serializerESC_IhSaIhEEvEEEEOT_RNSt16remove_referenceISK_E4typeE
FN:70,71,_ZSt7forwardIRKSt6vectorIN8nlohmann16json_abi_v3_11_310basic_jsonISt3mapS0_NSt7__cxx1112basic_stringIcSt11char_traitsIcESaIcEEEblmdSaNS2_14adl_serializerES0_IhSaIhEEvEESaISE_EEEOT_RNSt16remove_referenceISJ_E4typeE
FN:70,71,_ZSt7forwardIRKZN8nlohmann16json_abi_v3_11_310basic_jsonISt3mapSt6vectorNSt7__cxx1112basic_stringIcSt11char_traitsIcESaIcEEEblmdSaNS1_14adl_serializerES4_IhSaIhEEvE6createINS1_27byte_container_with_subtypeISD_EEJEEEPT_DpOT0_EUlPSH_E_EOSI_RNSt16remove_referenceISI_E4typeE
FN:70,71,_ZSt7forwardIRKZN8nlohmann16json_abi_v3_11_310basic_jsonISt3mapSt6vectorNSt7__cxx1112basic_stringIcSt11char_traitsIcESaIcEEEblmdSaNS1_14adl_serializerES4_IhSaIhEEvE6createINS1_27byte_container_with_subtypeISD_EEJRKSH_EEEPT_DpOT0_EUlPSH_E_EOSK_RNSt16remove_referenceISK_E4typeE
FN:70,71,_ZSt7forwardIRKZN8nlohmann16json_abi_v3_11_310basic_jsonISt3mapSt6vectorNSt7__cxx1112basic_stringIcSt11char_traitsIcESaIcEEEblmdSaNS1_14adl_serializerES4_IhSaIhEEvE6createIS3_ISA_SE_St4lessIvESaISt4pairIKSA_SE_EEEJEEEPT_DpOT0_EUlPSM_E_EOSN_RNSt16remove_referenceISN_E4typeE
FN:70,71,_ZSt7forwardIRKZN8nlohmann16json_abi_v3_11_310basic_jsonISt3mapSt6vectorNSt7__cxx1112basic_stringIcSt11char_traitsIcESaIcEEEblmdSaNS1_14adl_serializerES4_IhSaIhEEvE6createIS3_ISA_SE_St4lessIvESaISt4pairIKSA_SE_EEEJRKSM_EEEPT_DpOT0_EUlPSM_E_EOSP_RNSt16remove_referenceISP_E4typeE
FN:70,71,_ZSt7forwardIRKZN8nlohmann16json_abi_v3_11_310basic_jsonISt3mapSt6vectorNSt7__cxx1112basic_stringIcSt11char_traitsIcESaIcEEEblmdSaNS1_14adl_serializerES4_IhSaIhEEvE6createIS4_ISE_SaISE_EEJEEEPT_DpOT0_EUlPSH_E_EOSI_RNSt16remove_referenceISI_E4typeE
FN:70,71,_ZSt7forwardIRKZN8nlohmann16json_abi_v3_11_310basic_jsonISt3mapSt6vectorNSt7__cxx1112basic_stringIcSt11char_traitsIcESaIcEEEblmdSaNS1_14adl_serializerES4_IhSaIhEEvE6createIS4_ISE_SaISE_EEJPKNS1_6detail8json_refISE_EESM_EEEPT_DpOT0_EUlPSH_E_EOSN_RNSt16remove_referenceISN_E4typeE
FN:70,71,_ZSt7forwardIRKZN8nlohmann16json_abi_v3_11_310basic_jsonISt3mapSt6vectorNSt7__cxx1112basic_stringIcSt11char_traitsIcESaIcEEEblmdSaNS1_14adl_serializerES4_IhSaIhEEvE6createIS4_ISE_SaISE_EEJRKSH_EEEPT_DpOT0_EUlPSH_E_EOSK_RNSt16remove_referenceISK_E4typeE
FN:70,71,_ZSt7forwardIRKZN8nlohmann16json_abi_v3_11_310basic_jsonISt3mapSt6vectorNSt7__cxx1112basic_stringIcSt11char_traitsIcESaIcEEEblmdSaNS1_14adl_serializerES4_IhSaIhEEvE6createISA_JRA1_KcEEEPT_DpOT0_EUlPSA_E_EOSJ_RNSt16remove_referenceISJ_E4typeE
FN:70,71,_ZSt7forwardIRKZN8nlohmann16json_abi_v3_11_310basic_jsonISt3mapSt6vectorNSt7__cxx1112basic_stringIcSt11char_traitsIcESaIcEEEblmdSaNS1_14adl_serializerES4_IhSaIhEEvE6createISA_JRKSA_EEEPT_DpOT0_EUlPSA_E_EOSI_RNSt16remove_referenceISI_E4typeE
FN:70,71,_ZSt7forwardIRKZN8nlohmann16json_abi_v3_11_310basic_jsonISt3mapSt6vectorNSt7__cxx1112basic_stringIcSt11char_traitsIcESaIcEEEblmdSaNS1_14adl_serializerES4_IhSaIhEEvE6createISA_JSA_EEEPT_DpOT0_EUlPSA_E_EOSG_RNSt16remove_referenceISG_E4typeE
FN:70,71,_ZSt7forwardIRN8nlohmann16json_abi_v3_11_310basic_jsonISt3mapSt6vectorNSt7__cxx1112basic_stringIcSt11char_traitsIcESaIcEEEblmdSaNS1_14adl_serializerES4_IhSaIhEEvEEEOT_RNSt16remove_referenceISG_E4typeE
FN:70,71,_ZSt7forwardIRNSt7__cxx1112basic_stringIcSt11char_traitsIcESaIcEEEEOT_RNSt16remove_referenceIS7_E4typeE
FN:70,71,_ZSt7forwardIRP11FileHandlerEOT_RNSt16remove_referenceIS3_E4typeE
FN:70,71,_ZSt7forwardIRP18FileHandlerFactoryEOT_RNSt16remove_referenceIS3_E4typeE
FN:70,71,_ZSt7forwardIRPN8nlohmann16json_abi_v3_11_310basic_jsonISt3mapSt6vectorNSt7__cxx1112basic_stringIcSt11char_traitsIcESaIcEEEblmdSaNS1_14adl_serializerES4_IhSaIhEEvEEEOT_RNSt16remove_referenceISH_E4typeE
FN:70,71,_ZSt7forwardIRPN8nlohmann16json_abi_v3_11_327byte_container_with_subtypeISt6vectorIhSaIhEEEEEOT_RNSt16remove_referenceIS9_E4typeE
FN:70,71,_ZSt7forwardIRPNSt7__cxx1112basic_stringIcSt11char_traitsIcESaIcEEEEOT_RNSt16remove_referenceIS8_E4typeE
FN:70,71,_ZSt7forwardIRPSt13_Rb_tree_nodeISt4pairIKNSt7__cxx1112basic_stringIcSt11char_traitsIcESaIcEEEN8nlohmann16json_abi_v3_11_310basic_jsonISt3mapSt6vectorS7_blmdSaNSA_14adl_serializerESD_IhSaIhEEvEEEEEOT_RNSt16remove_referenceISM_E4typeE
FN:70,71,_ZSt7forwardIRPSt18_Rb_tree_node_baseEOT_RNSt16remove_referenceIS3_E4typeE
FN:70,71,_ZSt7forwardIRPSt3mapINSt7__cxx1112basic_stringIcSt11char_traitsIcESaIcEEEN8nlohmann16json_abi_v3_11_310basic_jsonIS0_St6vectorS6_blmdSaNS8_14adl_serializerESA_IhSaIhEEvEESt4lessIvESaISt4pairIKS6_SE_EEEEOT_RNSt16remove_referenceISO_E4typeE
FN:70,71,_ZSt7forwardIRPSt6vectorIN8nlohmann16json_abi_v3_11_310basic_jsonISt3mapS0_NSt7__cxx1112basic_stringIcSt11char_traitsIcESaIcEEEblmdSaNS2_14adl_serializerES0_IhSaIhEEvEESaISE_EEEOT_RNSt16remove_referenceISJ_E4typeE
FN:70,71,_ZSt7forwardIRSoEOT_RNSt16remove_referenceIS1_E4typeE
FN:70,71,_ZSt7forwardIRbEOT_RNSt16remove_referenceIS1_E4typeE
FN:70,71,_ZSt7forwardIRdEOT_RNSt16remove_referenceIS1_E4typeE
FN:70,71,_ZSt7forwardIRlEOT_RNSt16remove_referenceIS1_E4typeE
FN:70,71,_ZSt7forwardIRmEOT_RNSt16remove_referenceIS1_E4typeE
FN:70,71,_ZSt7forwardISt14default_deleteI10CSVHandlerEEOT_RNSt16remove_referenceIS3_E4typeE
FN:70,71,_ZSt7forwardISt14default_deleteI11JSONHandlerEEOT_RNSt16remove_referenceIS3_E4typeE
FN:70,71,_ZSt7forwardISt14default_deleteI17CSVHandlerFactoryEEOT_RNSt16remove_referenceIS3_E4typeE
FN:70,71,_ZSt7forwardISt14default_deleteI18JSONHandlerFactoryEEOT_RNSt16remove_referenceIS3_E4typeE
FN:70,71,_ZSt7forwardISt17_Rb_tree_iteratorISt4pairIKNSt7__cxx1112basic_stringIcSt11char_traitsIcESaIcEEEN8nlohmann16json_abi_v3_11_310basic_jsonISt3mapSt6vectorS7_blmdSaNSA_14adl_serializerESD_IhSaIhEEvEEEEEOT_RNSt16remove_referenceISK_E4typeE
FN:70,71,_ZSt7forwardISt5tupleIJEEEOT_RNSt16remove_referenceIS2_E4typeE
FN:70,71,_ZSt7forwardISt5tupleIJRKNSt7__cxx1112basic_stringIcSt11char_traitsIcESaIcEEEEEEOT_RNSt16remove_referenceISA_E4typeE
FN:70,71,_ZSt7forwardIbEOT_RNSt16remove_referenceIS0_E4typeE
FN:70,71,_ZSt7forwardIcEOT_RNSt16remove_referenceIS0_E4typeE
FN:70,71,_ZSt7forwardIdEOT_RNSt16remove_referenceIS0_E4typeE
FN:70,71,_ZSt7forwardIiEOT_RNSt16remove_referenceIS0_E4typeE
FN:97,98,_ZSt4moveIRN8nlohmann16json_abi_v3_11_310basic_jsonISt3mapSt6vectorNSt7__cxx1112basic_stringIcSt11char_traitsIcESaIcEEEblmdSaNS1_14adl_serializerES4_IhSaIhEEvE10json_valueEEONSt16remove_referenceIT_E4typeEOSI_
FN:97,98,_ZSt4moveIRN8nlohmann16json_abi_v3_11_310basic_jsonISt3mapSt6vectorNSt7__cxx1112basic_stringIcSt11char_traitsIcESaIcEEEblmdSaNS1_14adl_serializerES4_IhSaIhEEvE4dataEEONSt16remove_referenceIT_E4typeEOSI_
FN:97,98,_ZSt4moveIRN8nlohmann16json_abi_v3_11_310basic_jsonISt3mapSt6vectorNSt7__cxx1112basic_stringIcSt11char_traitsIcESaIcEEEblmdSaNS1_14adl_serializerES4_IhSaIhEEvEEEONSt16remove_referenceIT_E4typeEOSH_
FN:97,98,_ZSt4moveIRN8nlohmann16json_abi_v3_11_36detail20input_stream_adapterEEONSt16remove_referenceIT_E4typeEOS6_
FN:97,98,_ZSt4moveIRN8nlohmann16json_abi_v3_11_36detail7value_tEEONSt16remove_referenceIT_E4typeEOS6_
FN:97,98,_ZSt4moveIRNSt7__cxx1112basic_stringIcSt11char_traitsIcESaIcEEEEONSt16remove_referenceIT_E4typeEOS8_
FN:97,98,_ZSt4moveIRP10CSVHandlerEONSt16remove_referenceIT_E4typeEOS4_
FN:97,98,_ZSt4moveIRP11FileHandlerEONSt16remove_referenceIT_E4typeEOS4_
FN:97,98,_ZSt4moveIRP11JSONHandlerEONSt16remove_referenceIT_E4typeEOS4_
FN:97,98,_ZSt4moveIRP17CSVHandlerFactoryEONSt16remove_referenceIT_E4typeEOS4_
FN:97,98,_ZSt4moveIRP18FileHandlerFactoryEONSt16remove_referenceIT_E4typeEOS4_
FN:97,98,_ZSt4moveIRP18JSONHandlerFactoryEONSt16remove_referenceIT_E4typeEOS4_
FN:97,98,_ZSt4moveIRPN8nlohmann16json_abi_v3_11_310basic_jsonISt3mapSt6vectorNSt7__cxx1112basic_stringIcSt11char_traitsIcESaIcEEEblmdSaNS1_14adl_serializerES4_IhSaIhEEvEEEONSt16remove_referenceIT_E4typeEOSI_
FN:97,98,_ZSt4moveIRPN8nlohmann16json_abi_v3_11_327byte_container_with_subtypeISt6vectorIhSaIhEEEEEONSt16remove_referenceIT_E4typeEOSA_
FN:97,98,_ZSt4moveIRPNSt7__cxx1112basic_stringIcSt11char_traitsIcESaIcEEEEONSt16remove_referenceIT_E4typeEOS9_
FN:97,98,_ZSt4moveIRPNSt7__cxx1118basic_stringstreamIcSt11char_traitsIcESaIcEEEEONSt16remove_referenceIT_E4typeEOS9_
FN:97,98,_ZSt4moveIRPPN8nlohmann16json_abi_v3_11_310basic_jsonISt3mapSt6vectorNSt7__cxx1112basic_stringIcSt11char_traitsIcESaIcEEEblmdSaNS1_14adl_serializerES4_IhSaIhEEvEEEONSt16remove_referenceIT_E4typeEOSJ_
FN:97,98,_ZSt4moveIRPSt3mapINSt7__cxx1112basic_stringIcSt11char_traitsIcESaIcEEEN8nlohmann16json_abi_v3_11_310basic_jsonIS0_St6vectorS6_blmdSaNS8_14adl_serializerESA_IhSaIhEEvEESt4lessIvESaISt4pairIKS6_SE_EEEEONSt16remove_referenceIT_E4typeEOSP_
FN:97,98,_ZSt4moveIRPSt6vectorIN8nlohmann16json_abi_v3_11_310basic_jsonISt3mapS0_NSt7__cxx1112basic_stringIcSt11char_traitsIcESaIcEEEblmdSaNS2_14adl_serializerES0_IhSaIhEEvEESaISE_EEEONSt16remove_referenceIT_E4typeEOSK_
FN:97,98,_ZSt4moveIRPcEONSt16remove_referenceIT_E4typeEOS3_
FN:97,98,_ZSt4moveIRSaIcEEONSt16remove_referenceIT_E4typeEOS3_
FN:97,98,_ZSt4moveIRSt10shared_ptrIN8nlohmann16json_abi_v3_11_36detail21output_stream_adapterIcEEEEONSt16remove_referenceIT_E4typeEOS9_
FN:97,98,_ZSt4moveIRSt10shared_ptrIN8nlohmann16json_abi_v3_11_36detail21output_string_adapterIcNSt7__cxx1112basic_stringIcSt11char_traitsIcESaIcEEEEEEEONSt16remove_referenceIT_E4typeEOSF_
FN:97,98,_ZSt4moveIRSt10shared_ptrIN8nlohmann16json_abi_v3_11_36detail23output_adapter_protocolIcEEEEONSt16remove_referenceIT_E4typeEOS9_
FN:97,98,_ZSt4moveIRSt8functionIFbiN8nlohmann16json_abi_v3_11_36detail13parse_event_tERNS2_10basic_jsonISt3mapSt6vectorNSt7__cxx1112basic_stringIcSt11char_traitsIcESaIcEEEblmdSaNS2_14adl_serializerES7_IhSaIhEEvEEEEEONSt16remove_referenceIT_E4typeEOSN_
FN:97,98,_ZSt4moveIRZN8nlohmann16json_abi_v3_11_310basic_jsonISt3mapSt6vectorNSt7__cxx1112basic_stringIcSt11char_traitsIcESaIcEEEblmdSaNS1_14adl_serializerES4_IhSaIhEEvEC4ESt16initializer_listINS1_6detail8json_refISE_EEEbNSG_7value_tEEUlRKSI_E_EONSt16remove_referenceIT_E4typeEOSQ_
FN:97,98,_ZSt4moveIRcEONSt16remove_referenceIT_E4typeEOS2_
FNDA:304,_ZSt4swapIN8nlohmann16json_abi_v3_11_310basic_jsonISt3mapSt6vectorNSt7__cxx1112basic_stringIcSt11char_traitsIcESaIcEEEblmdSaNS1_14adl_serializerES4_IhSaIhEEvE10json_valueEENSt9enable_ifIXsrSt6__and_IJSt6__not_ISt15__is_tuple_likeIT_EESt21is_move_constructibleISK_ESt18is_move_assignableISK_EEE5valueEvE4typeERSK_SU_
FNDA:304,_ZSt4swapIN8nlohmann16json_abi_v3_11_36detail7value_tEENSt9enable_ifIXsrSt6__and_IJSt6__not_ISt15__is_tuple_likeIT_EESt21is_move_constructibleIS8_ESt18is_move_assignableIS8_EEE5valueEvE4typeERS8_SI_
FNDA:252,_ZSt11__addressofIN8nlohmann16json_abi_v3_11_310basic_jsonISt3mapSt6vectorNSt7__cxx1112basic_stringIcSt11char_traitsIcESaIcEEEblmdSaNS1_14adl_serializerES4_IhSaIhEEvEEEPT_RSF_
FNDA:8437,_ZSt11__addressofINSt7__cxx1112basic_stringIcSt11char_traitsIcESaIcEEEEPT_RS6_
FNDA:0,_ZSt11__addressofISaISt23_Sp_counted_ptr_inplaceIN8nlohmann16json_abi_v3_11_36detail21output_stream_adapterIcEESaIvELN9__gnu_cxx12_Lock_policyE2EEEEPT_RSB_
FNDA:8,_ZSt11__addressofISaISt23_Sp_counted_ptr_inplaceIN8nlohmann16json_abi_v3_11_36detail21output_string_adapterIcNSt7__cxx1112basic_stringIcSt11char_traitsIcESaIcEEEEESaIvELN9__gnu_cxx12_Lock_policyE2EEEEPT_RSH_
FNDA:12,_ZSt11__addressofISt6vectorIN8nlohmann16json_abi_v3_11_310basic_jsonISt3mapS0_NSt7__cxx1112basic_stringIcSt11char_traitsIcESaIcEEEblmdSaNS2_14adl_serializerES0_IhSaIhEEvEESaISE_EEEPT_RSH_
FNDA:94,_ZSt11__addressofImEPT_RS0_
FNDA:928,_ZSt7forwardIDnEOT_RNSt16remove_referenceIS0_E4typeE
FNDA:990,_ZSt7forwardIN8nlohmann16json_abi_v3_11_310basic_jsonISt3mapSt6vectorNSt7__cxx1112basic_stringIcSt11char_traitsIcESaIcEEEblmdSaNS1_14adl_serializerES4_IhSaIhEEvEEEOT_RNSt16remove_referenceISF_E4typeE
FNDA:0,_ZSt7forwardIN8nlohmann16json_abi_v3_11_36detail13parse_event_tEEOT_RNSt16remove_referenceIS4_E4typeE
FNDA:620,_ZSt7forwardIN8nlohmann16json_abi_v3_11_36detail17json_default_baseEEOT_RNSt16remove_referenceIS4_E4typeE
FNDA:176,_ZSt7forwardIN8nlohmann16json_abi_v3_11_36detail7value_tEEOT_RNSt16remove_referenceIS4_E4typeE
FNDA:5842,_ZSt7forwardINSt7__cxx1112basic_stringIcSt11char_traitsIcESaIcEEEEOT_RNSt16remove_referenceIS6_E4typeE
FNDA:0,_ZSt7forwardIPKN8nlohmann16json_abi_v3_11_36detail8json_refINS1_10basic_jsonISt3mapSt6vectorNSt7__cxx1112basic_stringIcSt11char_traitsIcESaIcEEEblmdSaNS1_14adl_serializerES6_IhSaIhEEvEEEEEOT_RNSt16remove_referenceISK_E4typeE
FNDA:10,_ZSt7forwardIPKcEOT_RNSt16remove_referenceIS2_E4typeE
FNDA:278,_ZSt7forwardIPN8nlohmann16json_abi_v3_11_310basic_jsonISt3mapSt6vectorNSt7__cxx1112basic_stringIcSt11char_traitsIcESaIcEEEblmdSaNS1_14adl_serializerES4_IhSaIhEEvEEEOT_RNSt16remove_referenceISG_E4typeE
FNDA:204,_ZSt7forwardIRA10_KcEOT_RNSt16remove_referenceIS3_E4typeE
FNDA:10,_ZSt7forwardIRA12_KcEOT_RNSt16remove_referenceIS3_E4typeE
FNDA:10,_ZSt7forwardIRA15_KcEOT_RNSt16remove_referenceIS3_E4typeE
FNDA:4,_ZSt7forwardIRA17_KcEOT_RNSt16remove_referenceIS3_E4typeE
FNDA:102,_ZSt7forwardIRA19_KcEOT_RNSt16remove_referenceIS3_E4typeE
FNDA:0,_ZSt7forwardIRA1_KcEOT_RNSt16remove_referenceIS3_E4typeE
FNDA:36,_ZSt7forwardIRA20_KcEOT_RNSt16remove_referenceIS3_E4typeE
FNDA:20,_ZSt7forwardIRA21_KcEOT_RNSt16remove_referenceIS3_E4typeE
FNDA:10,_ZSt7forwardIRA23_KcEOT_RNSt16remove_referenceIS3_E4typeE
FNDA:0,_ZSt7forwardIRA24_KcEOT_RNSt16remove_referenceIS3_E4typeE
FNDA:0,_ZSt7forwardIRA25_KcEOT_RNSt16remove_referenceIS3_E4typeE
FNDA:0,_ZSt7forwardIRA26_KcEOT_RNSt16remove_referenceIS3_E4typeE
FNDA:0,_ZSt7forwardIRA29_KcEOT_RNSt16remove_referenceIS3_E4typeE
FNDA:0,_ZSt7forwardIRA39_KcEOT_RNSt16remove_referenceIS3_E4typeE
FNDA:22,_ZSt7forwardIRA3_KcEOT_RNSt16remove_referenceIS3_E4typeE
FNDA:0,_ZSt7forwardIRA51_KcEOT_RNSt16remove_referenceIS3_E4typeE
FNDA:0,_ZSt7forwardIRA52_KcEOT_RNSt16remove_referenceIS3_E4typeE
FNDA:0,_ZSt7forwardIRA5_KcEOT_RNSt16remove_referenceIS3_E4typeE
FNDA:104,_ZSt7forwardIRA8_KcEOT_RNSt16remove_referenceIS3_E4typeE
FNDA:38,_ZSt7forwardIRKN8nlohmann16json_abi_v3_11_310basic_jsonISt3mapSt6vectorNSt7__cxx1112basic_stringIcSt11char_traitsIcESaIcEEEblmdSaNS1_14adl_serializerES4_IhSaIhEEvEEEOT_RNSt16remove_referenceISH_E4typeE
FNDA:0,_ZSt7forwardIRKN8nlohmann16json_abi_v3_11_327byte_container_with_subtypeISt6vectorIhSaIhEEEEEOT_RNSt16remove_referenceIS9_E4typeE
FNDA:0,_ZSt7forwardIRKN8nlohmann16json_abi_v3_11_36detail8json_refINS1_10basic_jsonISt3mapSt6vectorNSt7__cxx1112basic_stringIcSt11char_traitsIcESaIcEEEblmdSaNS1_14adl_serializerES6_IhSaIhEEvEEEEEOT_RNSt16remove_referenceISK_E4typeE
FNDA:8971,_ZSt7forwardIRKNSt7__cxx1112basic_stringIcSt11char_traitsIcESaIcEEEEOT_RNSt16remove_referenceIS8_E4typeE
FNDA:30,_ZSt7forwardIRKPKcEOT_RNSt16remove_referenceIS4_E4typeE
FNDA:0,_ZSt7forwardIRKPN8nlohmann16json_abi_v3_11_310basic_jsonISt3mapSt6vectorNSt7__cxx1112basic_stringIcSt11char_traitsIcESaIcEEEblmdSaNS1_14adl_serializerES4_IhSaIhEEvEEEOT_RNSt16remove_referenceISI_E4typeE
FNDA:1440,_ZSt7forwardIRKSt21piecewise_construct_tEOT_RNSt16remove_referenceIS3_E4typeE
FNDA:0,_ZSt7forwardIRKSt3mapINSt7__cxx1112basic_stringIcSt11char_traitsIcESaIcEEEN8nlohmann16json_abi_v3_11_310basic_jsonIS0_St6vectorS6_blmdSaNS8_14adl_serializerESA_IhSaIhEEvEESt4lessIvESaISt4pairIKS6_SE_EEEEOT_RNSt16remove_referenceISO_E4typeE
FNDA:0,_ZSt7forwardIRKSt4pairIKNSt7__cxx1112basic_stringIcSt11char_traitsIcESaIcEEEN8nlohmann16json_abi_v3_11_310basic_jsonISt3mapSt6vectorS6_blmdSaNS9_14adl_serializerESC_IhSaIhEEvEEEEOT_RNSt16remove_referenceISK_E4typeE
FNDA:0,_ZSt7forwardIRKSt6vectorIN8nlohmann16json_abi_v3_11_310basic_jsonISt3mapS0_NSt7__cxx1112basic_stringIcSt11char_traitsIcESaIcEEEblmdSaNS2_14adl_serializerES0_IhSaIhEEvEESaISE_EEEOT_RNSt16remove_referenceISJ_E4typeE
FNDA:0,_ZSt7forwardIRKZN8nlohmann16json_abi_v3_11_310basic_jsonISt3mapSt6vectorNSt7__cxx1112basic_stringIcSt11char_traitsIcESaIcEEEblmdSaNS1_14adl_serializerES4_IhSaIhEEvE6createINS1_27byte_container_with_subtypeISD_EEJEEEPT_DpOT0_EUlPSH_E_EOSI_RNSt16remove_referenceISI_E4typeE
FNDA:0,_ZSt7forwardIRKZN8nlohmann16json_abi_v3_11_310basic_jsonISt3mapSt6vectorNSt7__cxx1112basic_stringIcSt11char_traitsIcESaIcEEEblmdSaNS1_14adl_serializerES4_IhSaIhEEvE6createINS1_27byte_container_with_subtypeISD_EEJRKSH_EEEPT_DpOT0_EUlPSH_E_EOSK_RNSt16remove_referenceISK_E4typeE
FNDA:204,_ZSt7forwardIRKZN8nlohmann16json_abi_v3_11_310basic_jsonISt3mapSt6vectorNSt7__cxx1112basic_stringIcSt11char_traitsIcESaIcEEEblmdSaNS1_14adl_serializerES4_IhSaIhEEvE6createIS3_ISA_SE_St4lessIvESaISt4pairIKSA_SE_EEEJEEEPT_DpOT0_EUlPSM_E_EOSN_RNSt16remove_referenceISN_E4typeE
FNDA:0,_ZSt7forwardIRKZN8nlohmann16json_abi_v3_11_310basic_jsonISt3mapSt6vectorNSt7__cxx1112basic_stringIcSt11char_traitsIcESaIcEEEblmdSaNS1_14adl_serializerES4_IhSaIhEEvE6createIS3_ISA_SE_St4lessIvESaISt4pairIKSA_SE_EEEJRKSM_EEEPT_DpOT0_EUlPSM_E_EOSP_RNSt16remove_referenceISP_E4typeE
FNDA:36,_ZSt7forwardIRKZN8nlohmann16json_abi_v3_11_310basic_jsonISt3mapSt6vectorNSt7__cxx1112basic_stringIcSt11char_traitsIcESaIcEEEblmdSaNS1_14adl_serializerES4_IhSaIhEEvE6createIS4_ISE_SaISE_EEJEEEPT_DpOT0_EUlPSH_E_EOSI_RNSt16remove_referenceISI_E4typeE
FNDA:0,_ZSt7forwardIRKZN8nlohmann16json_abi_v3_11_310basic_jsonISt3mapSt6vectorNSt7__cxx1112basic_stringIcSt11char_traitsIcESaIcEEEblmdSaNS1_14adl_serializerES4_IhSaIhEEvE6createIS4_ISE_SaISE_EEJPKNS1_6detail8json_refISE_EESM_EEEPT_DpOT0_EUlPSH_E_EOSN_RNSt16remove_referenceISN_E4typeE
FNDA:0,_ZSt7forwardIRKZN8nlohmann16json_abi_v3_11_310basic_jsonISt3mapSt6vectorNSt7__cxx1112basic_stringIcSt11char_traitsIcESaIcEEEblmdSaNS1_14adl_serializerES4_IhSaIhEEvE6createIS4_ISE_SaISE_EEJRKSH_EEEPT_DpOT0_EUlPSH_E_EOSK_RNSt16remove_referenceISK_E4typeE
FNDA:0,_ZSt7forwardIRKZN8nlohmann16json_abi_v3_11_310basic_jsonISt3mapSt6vectorNSt7__cxx1112basic_stringIcSt11char_traitsIcESaIcEEEblmdSaNS1_14adl_serializerES4_IhSaIhEEvE6createISA_JRA1_KcEEEPT_DpOT0_EUlPSA_E_EOSJ_RNSt16remove_referenceISJ_E4typeE
FNDA:126,_ZSt7forwardIRKZN8nlohmann16json_abi_v3_11_310basic_jsonISt3mapSt6vectorNSt7__cxx1112basic_stringIcSt11char_traitsIcESaIcEEEblmdSaNS1_14adl_serializerES4_IhSaIhEEvE6createISA_JRKSA_EEEPT_DpOT0_EUlPSA_E_EOSI_RNSt16remove_referenceISI_E4typeE
FNDA:48,_ZSt7forwardIRKZN8nlohmann16json_abi_v3_11_310basic_jsonISt3mapSt6vectorNSt7__cxx1112basic_stringIcSt11char_traitsIcESaIcEEEblmdSaNS1_14adl_serializerES4_IhSaIhEEvE6createISA_JSA_EEEPT_DpOT0_EUlPSA_E_EOSG_RNSt16remove_referenceISG_E4typeE
FNDA:0,_ZSt7forwardIRN8nlohmann16json_abi_v3_11_310basic_jsonISt3mapSt6vectorNSt7__cxx1112basic_stringIcSt11char_traitsIcESaIcEEEblmdSaNS1_14adl_serializerES4_IhSaIhEEvEEEOT_RNSt16remove_referenceISG_E4typeE
FNDA:198,_ZSt7forwardIRNSt7__cxx1112basic_stringIcSt11char_traitsIcESaIcEEEEOT_RNSt16remove_referenceIS7_E4typeE
FNDA:12,_ZSt7forwardIRP11FileHandlerEOT_RNSt16remove_referenceIS3_E4typeE
FNDA:18,_ZSt7forwardIRP18FileHandlerFactoryEOT_RNSt16remove_referenceIS3_E4typeE
FNDA:0,_ZSt7forwardIRPN8nlohmann16json_abi_v3_11_310basic_jsonISt3mapSt6vectorNSt7__cxx1112basic_stringIcSt11char_traitsIcESaIcEEEblmdSaNS1_14adl_serializerES4_IhSaIhEEvEEEOT_RNSt16remove_referenceISH_E4typeE
FNDA:0,_ZSt7forwardIRPN8nlohmann16json_abi_v3_11_327byte_container_with_subtypeISt6vectorIhSaIhEEEEEOT_RNSt16remove_referenceIS9_E4typeE
FNDA:174,_ZSt7forwardIRPNSt7__cxx1112basic_stringIcSt11char_traitsIcESaIcEEEEOT_RNSt16remove_referenceIS8_E4typeE
FNDA:76,_ZSt7forwardIRPSt13_Rb_tree_nodeISt4pairIKNSt7__cxx1112basic_stringIcSt11char_traitsIcESaIcEEEN8nlohmann16json_abi_v3_11_310basic_jsonISt3mapSt6vectorS7_blmdSaNSA_14adl_serializerESD_IhSaIhEEvEEEEEOT_RNSt16remove_referenceISM_E4typeE
FNDA:76,_ZSt7forwardIRPSt18_Rb_tree_node_baseEOT_RNSt16remove_referenceIS3_E4typeE
FNDA:204,_ZSt7forwardIRPSt3mapINSt7__cxx1112basic_stringIcSt11char_traitsIcESaIcEEEN8nlohmann16json_abi_v3_11_310basic_jsonIS0_St6vectorS6_blmdSaNS8_14adl_serializerESA_IhSaIhEEvEESt4lessIvESaISt4pairIKS6_SE_EEEEOT_RNSt16remove_referenceISO_E4typeE
FNDA:36,_ZSt7forwardIRPSt6vectorIN8nlohmann16json_abi_v3_11_310basic_jsonISt3mapS0_NSt7__cxx1112basic_stringIcSt11char_traitsIcESaIcEEEblmdSaNS2_14adl_serializerES0_IhSaIhEEvEESaISE_EEEOT_RNSt16remove_referenceISJ_E4typeE
FNDA:0,_ZSt7forwardIRSoEOT_RNSt16remove_referenceIS1_E4typeE
FNDA:92,_ZSt7forwardIRbEOT_RNSt16remove_referenceIS1_E4typeE
FNDA:236,_ZSt7forwardIRdEOT_RNSt16remove_referenceIS1_E4typeE
FNDA:0,_ZSt7forwardIRlEOT_RNSt16remove_referenceIS1_E4typeE
FNDA:344,_ZSt7forwardIRmEOT_RNSt16remove_referenceIS1_E4typeE
FNDA:12,_ZSt7forwardISt14default_deleteI10CSVHandlerEEOT_RNSt16remove_referenceIS3_E4typeE
FNDA:12,_ZSt7forwardISt14default_deleteI11JSONHandlerEEOT_RNSt16remove_referenceIS3_E4typeE
FNDA:18,_ZSt7forwardISt14default_deleteI17CSVHandlerFactoryEEOT_RNSt16remove_referenceIS3_E4typeE
FNDA:18,_ZSt7forwardISt14default_deleteI18JSONHandlerFactoryEEOT_RNSt16remove_referenceIS3_E4typeE
FNDA:116,_ZSt7forwardISt17_Rb_tree_iteratorISt4pairIKNSt7__cxx1112basic_stringIcSt11char_traitsIcESaIcEEEN8nlohmann16json_abi_v3_11_310basic_jsonISt3mapSt6vectorS7_blmdSaNSA_14adl_serializerESD_IhSaIhEEvEEEEEOT_RNSt16remove_referenceISK_E4typeE
FNDA:1440,_ZSt7forwardISt5tupleIJEEEOT_RNSt16remove_referenceIS2_E4typeE
FNDA:1440,_ZSt7forwardISt5tupleIJRKNSt7__cxx1112basic_stringIcSt11char_traitsIcESaIcEEEEEEOT_RNSt16remove_referenceISA_E4typeE
FNDA:164,_ZSt7forwardIbEOT_RNSt16remove_referenceIS0_E4typeE
FNDA:26208,_ZSt7forwardIcEOT_RNSt16remove_referenceIS0_E4typeE
FNDA:54,_ZSt7forwardIdEOT_RNSt16remove_referenceIS0_E4typeE
FNDA:144,_ZSt7forwardIiEOT_RNSt16remove_referenceIS0_E4typeE
FNDA:912,_ZSt4moveIRN8nlohmann16json_abi_v3_11_310basic_jsonISt3mapSt6vectorNSt7__cxx1112basic_stringIcSt11char_traitsIcESaIcEEEblmdSaNS1_14adl_serializerES4_IhSaIhEEvE10json_valueEEONSt16remove_referenceIT_E4typeEOSI_
FNDA:620,_ZSt4moveIRN8nlohmann16json_abi_v3_11_310basic_jsonISt3mapSt6vectorNSt7__cxx1112basic_stringIcSt11char_traitsIcESaIcEEEblmdSaNS1_14adl_serializerES4_IhSaIhEEvE4dataEEONSt16remove_referenceIT_E4typeEOSI_
FNDA:1220,_ZSt4moveIRN8nlohmann16json_abi_v3_11_310basic_jsonISt3mapSt6vectorNSt7__cxx1112basic_stringIcSt11char_traitsIcESaIcEEEblmdSaNS1_14adl_serializerES4_IhSaIhEEvEEEONSt16remove_referenceIT_E4typeEOSH_
FNDA:42,_ZSt4moveIRN8nlohmann16json_abi_v3_11_36detail20input_stream_adapterEEONSt16remove_referenceIT_E4typeEOS6_
FNDA:912,_ZSt4moveIRN8nlohmann16json_abi_v3_11_36detail7value_tEEONSt16remove_referenceIT_E4typeEOS6_
FNDA:2693,_ZSt4moveIRNSt7__cxx1112basic_stringIcSt11char_traitsIcESaIcEEEEONSt16remove_referenceIT_E4typeEOS8_
FNDA:0,_ZSt4moveIRP10CSVHandlerEONSt16remove_referenceIT_E4typeEOS4_
FNDA:4,_ZSt4moveIRP11FileHandlerEONSt16remove_referenceIT_E4typeEOS4_
FNDA:0,_ZSt4moveIRP11JSONHandlerEONSt16remove_referenceIT_E4typeEOS4_
FNDA:0,_ZSt4moveIRP17CSVHandlerFactoryEONSt16remove_referenceIT_E4typeEOS4_
FNDA:6,_ZSt4moveIRP18FileHandlerFactoryEONSt16remove_referenceIT_E4typeEOS4_
FNDA:0,_ZSt4moveIRP18JSONHandlerFactoryEONSt16remove_referenceIT_E4typeEOS4_
FNDA:80,_ZSt4moveIRPN8nlohmann16json_abi_v3_11_310basic_jsonISt3mapSt6vectorNSt7__cxx1112basic_stringIcSt11char_traitsIcESaIcEEEblmdSaNS1_14adl_serializerES4_IhSaIhEEvEEEONSt16remove_referenceIT_E4typeEOSI_
FNDA:0,_ZSt4moveIRPN8nlohmann16json_abi_v3_11_327byte_container_with_subtypeISt6vectorIhSaIhEEEEEONSt16remove_referenceIT_E4typeEOSA_
FNDA:0,_ZSt4moveIRPNSt7__cxx1112basic_stringIcSt11char_traitsIcESaIcEEEEONSt16remove_referenceIT_E4typeEOS9_
FNDA:296,_ZSt4moveIRPNSt7__cxx1118basic_stringstreamIcSt11char_traitsIcESaIcEEEEONSt16remove_referenceIT_E4typeEOS9_
FNDA:0,_ZSt4moveIRPPN8nlohmann16json_abi_v3_11_310basic_jsonISt3mapSt6vectorNSt7__cxx1112basic_stringIcSt11char_traitsIcESaIcEEEblmdSaNS1_14adl_serializerES4_IhSaIhEEvEEEONSt16remove_referenceIT_E4typeEOSJ_
FNDA:0,_ZSt4moveIRPSt3mapINSt7__cxx1112basic_stringIcSt11char_traitsIcESaIcEEEN8nlohmann16json_abi_v3_11_310basic_jsonIS0_St6vectorS6_blmdSaNS8_14adl_serializerESA_IhSaIhEEvEESt4lessIvESaISt4pairIKS6_SE_EEEEONSt16remove_referenceIT_E4typeEOSP_
FNDA:0,_ZSt4moveIRPSt6vectorIN8nlohmann16json_abi_v3_11_310basic_jsonISt3mapS0_NSt7__cxx1112basic_stringIcSt11char_traitsIcESaIcEEEblmdSaNS2_14adl_serializerES0_IhSaIhEEvEESaISE_EEEONSt16remove_referenceIT_E4typeEOSK_
FNDA:0,_ZSt4moveIRPcEONSt16remove_referenceIT_E4typeEOS3_
FNDA:0,_ZSt4moveIRSaIcEEONSt16remove_referenceIT_E4typeEOS3_
FNDA:0,_ZSt4moveIRSt10shared_ptrIN8nlohmann16json_abi_v3_11_36detail21output_stream_adapterIcEEEEONSt16remove_referenceIT_E4typeEOS9_
FNDA:4,_ZSt4moveIRSt10shared_ptrIN8nlohmann16json_abi_v3_11_36detail21output_string_adapterIcNSt7__cxx1112basic_stringIcSt11char_traitsIcESaIcEEEEEEEONSt16remove_referenceIT_E4typeEOSF_
FNDA:8,_ZSt4moveIRSt10shared_ptrIN8nlohmann16json_abi_v3_11_36detail23output_adapter_protocolIcEEEEONSt16remove_referenceIT_E4typeEOS9_
FNDA:28,_ZSt4moveIRSt8functionIFbiN8nlohmann16json_abi_v3_11_36detail13parse_event_tERNS2_10basic_jsonISt3mapSt6vectorNSt7__cxx1112basic_stringIcSt11char_traitsIcESaIcEEEblmdSaNS2_14adl_serializerES7_IhSaIhEEvEEEEEONSt16remove_referenceIT_E4typeEOSN_
FNDA:0,_ZSt4moveIRZN8nlohmann16json_abi_v3_11_310basic_jsonISt3mapSt6vectorNSt7__cxx1112basic_stringIcSt11char_traitsIcESaIcEEEblmdSaNS1_14adl_serializerES4_IhSaIhEEvEC4ESt16initializer_listINS1_6detail8json_refISE_EEEbNSG_7value_tEEUlRKSI_E_EONSt16remove_referenceIT_E4typeEOSQ_
FNDA:8696,_ZSt4moveIRcEONSt16remove_referenceIT_E4typeEOS2_
FNF:110
FNH:68
DA:51,8803
DA:52,8803
DA:70,51351
DA:71,51351
DA:97,15521
DA:98,15521
DA:189,608
DA:197,608
DA:198,608
DA:199,608
DA:200,608
LF:11
LH:11
end_of_record
TN:
SF:/usr/include/c++/13/bits/new_allocator.h
FN:104,104,_ZNSt15__new_allocatorIN8nlohmann16json_abi_v3_11_310basic_jsonISt3mapSt6vectorNSt7__cxx1112basic_stringIcSt11char_traitsIcESaIcEEEblmdSaNS1_14adl_serializerES4_IhSaIhEEvEEED2Ev
FN:104,104,_ZNSt15__new_allocatorIN8nlohmann16json_abi_v3_11_327byte_container_with_subtypeISt6vectorIhSaIhEEEEED2Ev
FN:104,104,_ZNSt15__new_allocatorINSt7__cxx1112basic_stringIcSt11char_traitsIcESaIcEEEED2Ev
FN:104,104,_ZNSt15__new_allocatorIPN8nlohmann16json_abi_v3_11_310basic_jsonISt3mapSt6vectorNSt7__cxx1112basic_stringIcSt11char_traitsIcESaIcEEEblmdSaNS1_14adl_serializerES4_IhSaIhEEvEEED2Ev
FN:104,104,_ZNSt15__new_allocatorISt13_Rb_tree_nodeISt4pairIKNSt7__cxx1112basic_stringIcSt11char_traitsIcESaIcEEEN8nlohmann16json_abi_v3_11_310basic_jsonISt3mapSt6vectorS7_blmdSaNSA_14adl_serializerESD_IhSaIhEEvEEEEED2Ev
FN:104,104,_ZNSt15__new_allocatorISt23_Sp_counted_ptr_inplaceIN8nlohmann16json_abi_v3_11_36detail21output_stream_adapterIcEESaIvELN9__gnu_cxx12_Lock_policyE2EEED2Ev
FN:104,104,_ZNSt15__new_allocatorISt23_Sp_counted_ptr_inplaceIN8nlohmann16json_abi_v3_11_36detail21output_string_adapterIcNSt7__cxx1112basic_stringIcSt11char_traitsIcESaIcEEEEESaIvELN9__gnu_cxx12_Lock_policyE2EEED2Ev
FN:104,104,_ZNSt15__new_allocatorISt3mapINSt7__cxx1112basic_stringIcSt11char_traitsIcESaIcEEEN8nlohmann16json_abi_v3_11_310basic_jsonIS0_St6vectorS6_blmdSaNS8_14adl_serializerESA_IhSaIhEEvEESt4lessIvESaISt4pairIKS6_SE_EEEED2Ev
FN:104,104,_ZNSt15__new_allocatorISt6vectorIN8nlohmann16json_abi_v3_11_310basic_jsonISt3mapS0_NSt7__cxx1112basic_stringIcSt11char_traitsIcESaIcEEEblmdSaNS2_14adl_serializerES0_IhSaIhEEvEESaISE_EEED2Ev
FN:104,104,_ZNSt15__new_allocatorIcED2Ev
FN:104,104,_ZNSt15__new_allocatorIhED2Ev
FN:104,104,_ZNSt15__new_allocatorImED2Ev
FN:126,152,_ZNSt15__new_allocatorIN8nlohmann16json_abi_v3_11_310basic_jsonISt3mapSt6vectorNSt7__cxx1112basic_stringIcSt11char_traitsIcESaIcEEEblmdSaNS1_14adl_serializerES4_IhSaIhEEvEEE8allocateEmPKv
FN:126,152,_ZNSt15__new_allocatorIN8nlohmann16json_abi_v3_11_327byte_container_with_subtypeISt6vectorIhSaIhEEEEE8allocateEmPKv
FN:126,152,_ZNSt15__new_allocatorINSt7__cxx1112basic_stringIcSt11char_traitsIcESaIcEEEE8allocateEmPKv
FN:126,152,_ZNSt15__new_allocatorIPN8nlohmann16json_abi_v3_11_310basic_jsonISt3mapSt6vectorNSt7__cxx1112basic_stringIcSt11char_traitsIcESaIcEEEblmdSaNS1_14adl_serializerES4_IhSaIhEEvEEE8allocateEmPKv
FN:126,152,_ZNSt15__new_allocatorISt13_Rb_tree_nodeISt4pairIKNSt7__cxx1112basic_stringIcSt11char_traitsIcESaIcEEEN8nlohmann16json_abi_v3_11_310basic_jsonISt3mapSt6vectorS7_blmdSaNSA_14adl_serializerESD_IhSaIhEEvEEEEE8allocateEmPKv
FN:126,152,_ZNSt15__new_allocatorISt23_Sp_counted_ptr_inplaceIN8nlohmann16json_abi_v3_11_36detail21output_stream_adapterIcEESaIvELN9__gnu_cxx12_Lock_policyE2EEE8allocateEmPKv
FN:126,152,_ZNSt15__new_allocatorISt23_Sp_counted_ptr_inplaceIN8nlohmann16json_abi_v3_11_36detail21output_string_adapterIcNSt7__cxx1112basic_stringIcSt11char_traitsIcESaIcEEEEESaIvELN9__gnu_cxx12_Lock_policyE2EEE8allocateEmPKv
FN:126,152,_ZNSt15__new_allocatorISt3mapINSt7__cxx1112basic_stringIcSt11char_traitsIcESaIcEEEN8nlohmann16json_abi_v3_11_310basic_jsonIS0_St6vectorS6_blmdSaNS8_14adl_serializerESA_IhSaIhEEvEESt4lessIvESaISt4pairIKS6_SE_EEEE8allocateEmPKv
FN:126,152,_ZNSt15__new_allocatorISt6vectorIN8nlohmann16json_abi_v3_11_310basic_jsonISt3mapS0_NSt7__cxx1112basic_stringIcSt11char_traitsIcESaIcEEEblmdSaNS2_14adl_serializerES0_IhSaIhEEvEESaISE_EEE8allocateEmPKv
FN:126,152,_ZNSt15__new_allocatorIcE8allocateEmPKv
FN:126,152,_ZNSt15__new_allocatorIhE8allocateEmPKv
FN:126,152,_ZNSt15__new_allocatorImE8allocateEmPKv
FN:156,173,_ZNSt15__new_allocatorIN8nlohmann16json_abi_v3_11_310basic_jsonISt3mapSt6vectorNSt7__cxx1112basic_stringIcSt11char_traitsIcESaIcEEEblmdSaNS1_14adl_serializerES4_IhSaIhEEvEEE10deallocateEPSE_m
FN:156,173,_ZNSt15__new_allocatorIN8nlohmann16json_abi_v3_11_327byte_container_with_subtypeISt6vectorIhSaIhEEEEE10deallocateEPS6_m
FN:156,173,_ZNSt15__new_allocatorINSt7__cxx1112basic_stringIcSt11char_traitsIcESaIcEEEE10deallocateEPS5_m
FN:156,173,_ZNSt15__new_allocatorIPN8nlohmann16json_abi_v3_11_310basic_jsonISt3mapSt6vectorNSt7__cxx1112basic_stringIcSt11char_traitsIcESaIcEEEblmdSaNS1_14adl_serializerES4_IhSaIhEEvEEE10deallocateEPSF_m
FN:156,173,_ZNSt15__new_allocatorISt13_Rb_tree_nodeISt4pairIKNSt7__cxx1112basic_stringIcSt11char_traitsIcESaIcEEEN8nlohmann16json_abi_v3_11_310basic_jsonISt3mapSt6vectorS7_blmdSaNSA_14adl_serializerESD_IhSaIhEEvEEEEE10deallocateEPSJ_m
FN:156,173,_ZNSt15__new_allocatorISt23_Sp_counted_ptr_inplaceIN8nlohmann16json_abi_v3_11_36detail21output_stream_adapterIcEESaIvELN9__gnu_cxx12_Lock_policyE2EEE10deallocateEPS9_m
FN:156,173,_ZNSt15__new_allocatorISt23_Sp_counted_ptr_inplaceIN8nlohmann16json_abi_v3_11_36detail21output_string_adapterIcNSt7__cxx1112basic_stringIcSt11char_traitsIcESaIcEEEEESaIvELN9__gnu_cxx12_Lock_policyE2EEE10deallocateEPSF_m
FN:156,173,_ZNSt15__new_allocatorISt3mapINSt7__cxx1112basic_stringIcSt11char_traitsIcESaIcEEEN8nlohmann16json_abi_v3_11_310basic_jsonIS0_St6vectorS6_blmdSaNS8_14adl_serializerESA_IhSaIhEEvEESt4lessIvESaISt4pairIKS6_SE_EEEE10deallocateEPSL_m
FN:156,173,_ZNSt15__new_allocatorISt6vectorIN8nlohmann16json_abi_v3_11_310basic_jsonISt3mapS0_NSt7__cxx1112basic_stringIcSt11char_traitsIcESaIcEEEblmdSaNS2_14adl_serializerES0_IhSaIhEEvEESaISE_EEE10deallocateEPSG_m
FN:156,173,_ZNSt15__new_allocatorIcE10deallocateEPcm
FN:156,173,_ZNSt15__new_allocatorIhE10deallocateEPhm
FN:156,173,_ZNSt15__new_allocatorImE10deallocateEPmm
FNDA:92,_ZNSt15__new_allocatorIN8nlohmann16json_abi_v3_11_310basic_jsonISt3mapSt6vectorNSt7__cxx1112basic_stringIcSt11char_traitsIcESaIcEEEblmdSaNS1_14adl_serializerES4_IhSaIhEEvEEED2Ev
FNDA:0,_ZNSt15__new_allocatorIN8nlohmann16json_abi_v3_11_327byte_container_with_subtypeISt6vectorIhSaIhEEEEED2Ev
FNDA:297,_ZNSt15__new_allocatorINSt7__cxx1112basic_stringIcSt11char_traitsIcESaIcEEEED2Ev
FNDA:14,_ZNSt15__new_allocatorIPN8nlohmann16json_abi_v3_11_310basic_jsonISt3mapSt6vectorNSt7__cxx1112basic_stringIcSt11char_traitsIcESaIcEEEblmdSaNS1_14adl_serializerES4_IhSaIhEEvEEED2Ev
FNDA:68,_ZNSt15__new_allocatorISt13_Rb_tree_nodeISt4pairIKNSt7__cxx1112basic_stringIcSt11char_traitsIcESaIcEEEN8nlohmann16json_abi_v3_11_310basic_jsonISt3mapSt6vectorS7_blmdSaNSA_14adl_serializerESD_IhSaIhEEvEEEEED2Ev
FNDA:0,_ZNSt15__new_allocatorISt23_Sp_counted_ptr_inplaceIN8nlohmann16json_abi_v3_11_36detail21output_stream_adapterIcEESaIvELN9__gnu_cxx12_Lock_policyE2EEED2Ev
FNDA:8,_ZNSt15__new_allocatorISt23_Sp_counted_ptr_inplaceIN8nlohmann16json_abi_v3_11_36detail21output_string_adapterIcNSt7__cxx1112basic_stringIcSt11char_traitsIcESaIcEEEEESaIvELN9__gnu_cxx12_Lock_policyE2EEED2Ev
FNDA:136,_ZNSt15__new_allocatorISt3mapINSt7__cxx1112basic_stringIcSt11char_traitsIcESaIcEEEN8nlohmann16json_abi_v3_11_310basic_jsonIS0_St6vectorS6_blmdSaNS8_14adl_serializerESA_IhSaIhEEvEESt4lessIvESaISt4pairIKS6_SE_EEEED2Ev
FNDA:24,_ZNSt15__new_allocatorISt6vectorIN8nlohmann16json_abi_v3_11_310basic_jsonISt3mapS0_NSt7__cxx1112basic_stringIcSt11char_traitsIcESaIcEEEblmdSaNS2_14adl_serializerES0_IhSaIhEEvEESaISE_EEED2Ev
FNDA:608,_ZNSt15__new_allocatorIcED2Ev
FNDA:0,_ZNSt15__new_allocatorIhED2Ev
FNDA:14,_ZNSt15__new_allocatorImED2Ev
FNDA:60,_ZNSt15__new_allocatorIN8nlohmann16json_abi_v3_11_310basic_jsonISt3mapSt6vectorNSt7__cxx1112basic_stringIcSt11char_traitsIcESaIcEEEblmdSaNS1_14adl_serializerES4_IhSaIhEEvEEE8allocateEmPKv
FNDA:0,_ZNSt15__new_allocatorIN8nlohmann16json_abi_v3_11_327byte_container_with_subtypeISt6vectorIhSaIhEEEEE8allocateEmPKv
FNDA:400,_ZNSt15__new_allocatorINSt7__cxx1112basic_stringIcSt11char_traitsIcESaIcEEEE8allocateEmPKv
FNDA:38,_ZNSt15__new_allocatorIPN8nlohmann16json_abi_v3_11_310basic_jsonISt3mapSt6vectorNSt7__cxx1112basic_stringIcSt11char_traitsIcESaIcEEEblmdSaNS1_14adl_serializerES4_IhSaIhEEvEEE8allocateEmPKv
FNDA:356,_ZNSt15__new_allocatorISt13_Rb_tree_nodeISt4pairIKNSt7__cxx1112basic_stringIcSt11char_traitsIcESaIcEEEN8nlohmann16json_abi_v3_11_310basic_jsonISt3mapSt6vectorS7_blmdSaNSA_14adl_serializerESD_IhSaIhEEvEEEEE8allocateEmPKv
FNDA:0,_ZNSt15__new_allocatorISt23_Sp_counted_ptr_inplaceIN8nlohmann16json_abi_v3_11_36detail21output_stream_adapterIcEESaIvELN9__gnu_cxx12_Lock_policyE2EEE8allocateEmPKv
FNDA:4,_ZNSt15__new_allocatorISt23_Sp_counted_ptr_inplaceIN8nlohmann16json_abi_v3_11_36detail21output_string_adapterIcNSt7__cxx1112basic_stringIcSt11char_traitsIcESaIcEEEEESaIvELN9__gnu_cxx12_Lock_policyE2EEE8allocateEmPKv
FNDA:68,_ZNSt15__new_allocatorISt3mapINSt7__cxx1112basic_stringIcSt11char_traitsIcESaIcEEEN8nlohmann16json_abi_v3_11_310basic_jsonIS0_St6vectorS6_blmdSaNS8_14adl_serializerESA_IhSaIhEEvEESt4lessIvESaISt4pairIKS6_SE_EEEE8allocateEmPKv
FNDA:12,_ZNSt15__new_allocatorISt6vectorIN8nlohmann16json_abi_v3_11_310basic_jsonISt3mapS0_NSt7__cxx1112basic_stringIcSt11char_traitsIcESaIcEEEblmdSaNS2_14adl_serializerES0_IhSaIhEEvEESaISE_EEE8allocateEmPKv
FNDA:94,_ZNSt15__new_allocatorIcE8allocateEmPKv
FNDA:0,_ZNSt15__new_allocatorIhE8allocateEmPKv
FNDA:14,_ZNSt15__new_allocatorImE8allocateEmPKv
FNDA:60,_ZNSt15__new_allocatorIN8nlohmann16json_abi_v3_11_310basic_jsonISt3mapSt6vectorNSt7__cxx1112basic_stringIcSt11char_traitsIcESaIcEEEblmdSaNS1_14adl_serializerES4_IhSaIhEEvEEE10deallocateEPSE_m
FNDA:0,_ZNSt15__new_allocatorIN8nlohmann16json_abi_v3_11_327byte_container_with_subtypeISt6vectorIhSaIhEEEEE10deallocateEPS6_m
FNDA:400,_ZNSt15__new_allocatorINSt7__cxx1112basic_stringIcSt11char_traitsIcESaIcEEEE10deallocateEPS5_m
FNDA:38,_ZNSt15__new_allocatorIPN8nlohmann16json_abi_v3_11_310basic_jsonISt3mapSt6vectorNSt7__cxx1112basic_stringIcSt11char_traitsIcESaIcEEEblmdSaNS1_14adl_serializerES4_IhSaIhEEvEEE10deallocateEPSF_m
FNDA:356,_ZNSt15__new_allocatorISt13_Rb_tree_nodeISt4pairIKNSt7__cxx1112basic_stringIcSt11char_traitsIcESaIcEEEN8nlohmann16json_abi_v3_11_310basic_jsonISt3mapSt6vectorS7_blmdSaNSA_14adl_serializerESD_IhSaIhEEvEEEEE10deallocateEPSJ_m
FNDA:0,_ZNSt15__new_allocatorISt23_Sp_counted_ptr_inplaceIN8nlohmann16json_abi_v3_11_36detail21output_stream_adapterIcEESaIvELN9__gnu_cxx12_Lock_policyE2EEE10deallocateEPS9_m
FNDA:4,_ZNSt15__new_allocatorISt23_Sp_counted_ptr_inplaceIN8nlohmann16json_abi_v3_11_36detail21output_string_adapterIcNSt7__cxx1112basic_stringIcSt11char_traitsIcESaIcEEEEESaIvELN9__gnu_cxx12_Lock_policyE2EEE10deallocateEPSF_m
FNDA:68,_ZNSt15__new_allocatorISt3mapINSt7__cxx1112basic_stringIcSt11char_traitsIcESaIcEEEN8nlohmann16json_abi_v3_11_310basic_jsonIS0_St6vectorS6_blmdSaNS8_14adl_serializerESA_IhSaIhEEvEESt4lessIvESaISt4pairIKS6_SE_EEEE10deallocateEPSL_m
FNDA:12,_ZNSt15__new_allocatorISt6vectorIN8nlohmann16json_abi_v3_11_310basic_jsonISt3mapS0_NSt7__cxx1112basic_stringIcSt11char_traitsIcESaIcEEEblmdSaNS2_14adl_serializerES0_IhSaIhEEvEESaISE_EEE10deallocateEPSG_m
FNDA:94,_ZNSt15__new_allocatorIcE10deallocateEPcm
FNDA:0,_ZNSt15__new_allocatorIhE10deallocateEPhm
FNDA:14,_ZNSt15__new_allocatorImE10deallocateEPmm
FNF:36
FNH:27
DA:88,881
DA:92,73
DA:104,1261
DA:126,1046
DA:134,1046
DA:138,0
DA:139,0
DA:140,0
DA:151,1046
DA:156,1046
DA:172,1046
DA:173,1046
DA:183,1112
DA:191,13604
DA:198,3259
DA:233,2158
LF:16
LH:13
end_of_record
TN:
SF:/usr/include/c++/13/bits/predefined_ops.h
FN:310,312,_ZN9__gnu_cxx5__ops10_Iter_predIZN8nlohmann16json_abi_v3_11_310basic_jsonISt3mapSt6vectorNSt7__cxx1112basic_stringIcSt11char_traitsIcESaIcEEEblmdSaNS3_14adl_serializerES6_IhSaIhEEvEC4ESt16initializer_listINS3_6detail8json_refISG_EEEbNSI_7value_tEEUlRKSK_E_EC2ESP_
FN:324,325,_ZN9__gnu_cxx5__ops11__pred_iterIZN8nlohmann16json_abi_v3_11_310basic_jsonISt3mapSt6vectorNSt7__cxx1112basic_stringIcSt11char_traitsIcESaIcEEEblmdSaNS3_14adl_serializerES6_IhSaIhEEvEC4ESt16initializer_listINS3_6detail8json_refISG_EEEbNSI_7value_tEEUlRKSK_E_EENS0_10_Iter_predIT_EESR_
FN:387,389,_ZN9__gnu_cxx5__ops12_Iter_negateIZN8nlohmann16json_abi_v3_11_310basic_jsonISt3mapSt6vectorNSt7__cxx1112basic_stringIcSt11char_traitsIcESaIcEEEblmdSaNS3_14adl_serializerES6_IhSaIhEEvEC4ESt16initializer_listINS3_6detail8json_refISG_EEEbNSI_7value_tEEUlRKSK_E_EC2ESP_
FN:394,395,_ZN9__gnu_cxx5__ops12_Iter_negateIZN8nlohmann16json_abi_v3_11_310basic_jsonISt3mapSt6vectorNSt7__cxx1112basic_stringIcSt11char_traitsIcESaIcEEEblmdSaNS3_14adl_serializerES6_IhSaIhEEvEC4ESt16initializer_listINS3_6detail8json_refISG_EEEbNSI_7value_tEEUlRKSK_E_EclIPSN_EEbT_
FN:401,402,_ZN9__gnu_cxx5__ops8__negateIZN8nlohmann16json_abi_v3_11_310basic_jsonISt3mapSt6vectorNSt7__cxx1112basic_stringIcSt11char_traitsIcESaIcEEEblmdSaNS3_14adl_serializerES6_IhSaIhEEvEC4ESt16initializer_listINS3_6detail8json_refISG_EEEbNSI_7value_tEEUlRKSK_E_EENS0_12_Iter_negateIT_EENS0_10_Iter_predISR_EE
FNDA:0,_ZN9__gnu_cxx5__ops10_Iter_predIZN8nlohmann16json_abi_v3_11_310basic_jsonISt3mapSt6vectorNSt7__cxx1112basic_stringIcSt11char_traitsIcESaIcEEEblmdSaNS3_14adl_serializerES6_IhSaIhEEvEC4ESt16initializer_listINS3_6detail8json_refISG_EEEbNSI_7value_tEEUlRKSK_E_EC2ESP_
FNDA:0,_ZN9__gnu_cxx5__ops11__pred_iterIZN8nlohmann16json_abi_v3_11_310basic_jsonISt3mapSt6vectorNSt7__cxx1112basic_stringIcSt11char_traitsIcESaIcEEEblmdSaNS3_14adl_serializerES6_IhSaIhEEvEC4ESt16initializer_listINS3_6detail8json_refISG_EEEbNSI_7value_tEEUlRKSK_E_EENS0_10_Iter_predIT_EESR_
FNDA:0,_ZN9__gnu_cxx5__ops12_Iter_negateIZN8nlohmann16json_abi_v3_11_310basic_jsonISt3mapSt6vectorNSt7__cxx1112basic_stringIcSt11char_traitsIcESaIcEEEblmdSaNS3_14adl_serializerES6_IhSaIhEEvEC4ESt16initializer_listINS3_6detail8json_refISG_EEEbNSI_7value_tEEUlRKSK_E_EC2ESP_
FNDA:0,_ZN9__gnu_cxx5__ops12_Iter_negateIZN8nlohmann16json_abi_v3_11_310basic_jsonISt3mapSt6vectorNSt7__cxx1112basic_stringIcSt11char_traitsIcESaIcEEEblmdSaNS3_14adl_serializerES6_IhSaIhEEvEC4ESt16initializer_listINS3_6detail8json_refISG_EEEbNSI_7value_tEEUlRKSK_E_EclIPSN_EEbT_
FNDA:0,_ZN9__gnu_cxx5__ops8__negateIZN8nlohmann16json_abi_v3_11_310basic_jsonISt3mapSt6vectorNSt7__cxx1112basic_stringIcSt11char_traitsIcESaIcEEEblmdSaNS3_14adl_serializerES6_IhSaIhEEvEC4ESt16initializer_listINS3_6detail8json_refISG_EEEbNSI_7value_tEEUlRKSK_E_EENS0_12_Iter_negateIT_EENS0_10_Iter_predISR_EE
FNF:5
FNH:0
DA:310,0
DA:311,0
DA:312,0
DA:324,0
DA:325,0
DA:387,0
DA:388,0
DA:389,0
DA:394,0
DA:395,0
DA:401,0
DA:402,0
LF:12
LH:0
end_of_record
TN:
SF:/usr/include/c++/13/bits/ptr_traits.h
FN:212,216,_ZSt12__to_addressISt23_Sp_counted_ptr_inplaceIN8nlohmann16json_abi_v3_11_36detail21output_stream_adapterIcEESaIvELN9__gnu_cxx12_Lock_policyE2EEEPT_SB_
FN:212,216,_ZSt12__to_addressISt23_Sp_counted_ptr_inplaceIN8nlohmann16json_abi_v3_11_36detail21output_string_adapterIcNSt7__cxx1112basic_stringIcSt11char_traitsIcESaIcEEEEESaIvELN9__gnu_cxx12_Lock_policyE2EEEPT_SH_
FNDA:0,_ZSt12__to_addressISt23_Sp_counted_ptr_inplaceIN8nlohmann16json_abi_v3_11_36detail21output_stream_adapterIcEESaIvELN9__gnu_cxx12_Lock_policyE2EEEPT_SB_
FNDA:4,_ZSt12__to_addressISt23_Sp_counted_ptr_inplaceIN8nlohmann16json_abi_v3_11_36detail21output_string_adapterIcNSt7__cxx1112basic_stringIcSt11char_traitsIcESaIcEEEEESaIvELN9__gnu_cxx12_Lock_policyE2EEEPT_SH_
FNF:2
FNH:1
DA:212,4
DA:215,4
LF:2
LH:2
end_of_record
TN:
SF:/usr/include/c++/13/bits/shared_ptr.h
FN:1005,1011,_ZSt11make_sharedIN8nlohmann16json_abi_v3_11_36detail21output_stream_adapterIcEEJRSoEESt10shared_ptrINSt9enable_ifIXntsrSt8is_arrayIT_E5valueES9_E4typeEEDpOT0_
FN:1005,1011,_ZSt11make_sharedIN8nlohmann16json_abi_v3_11_36detail21output_string_adapterIcNSt7__cxx1112basic_stringIcSt11char_traitsIcESaIcEEEEEJRS9_EESt10shared_ptrINSt9enable_ifIXntsrSt8is_arrayIT_E5valueESF_E4typeEEDpOT0_
FN:204,204,_ZNSt10shared_ptrIN8nlohmann16json_abi_v3_11_36detail23output_adapter_protocolIcEEEC2ERKS5_
FN:359,360,_ZNSt10shared_ptrIN8nlohmann16json_abi_v3_11_36detail23output_adapter_protocolIcEEEC2EOS5_
FN:368,369,_ZNSt10shared_ptrIN8nlohmann16json_abi_v3_11_36detail23output_adapter_protocolIcEEEC2INS2_21output_stream_adapterIcEEvEEOS_IT_E
FN:368,369,_ZNSt10shared_ptrIN8nlohmann16json_abi_v3_11_36detail23output_adapter_protocolIcEEEC2INS2_21output_string_adapterIcNSt7__cxx1112basic_stringIcSt11char_traitsIcESaIcEEEEEvEEOS_IT_E
FN:463,465,_ZNSt10shared_ptrIN8nlohmann16json_abi_v3_11_36detail21output_stream_adapterIcEEEC2ISaIvEJRSoEEESt20_Sp_alloc_shared_tagIT_EDpOT0_
FN:463,465,_ZNSt10shared_ptrIN8nlohmann16json_abi_v3_11_36detail21output_string_adapterIcNSt7__cxx1112basic_stringIcSt11char_traitsIcESaIcEEEEEEC2ISaIvEJRS9_EEESt20_Sp_alloc_shared_tagIT_EDpOT0_
FNDA:0,_ZSt11make_sharedIN8nlohmann16json_abi_v3_11_36detail21output_stream_adapterIcEEJRSoEESt10shared_ptrINSt9enable_ifIXntsrSt8is_arrayIT_E5valueES9_E4typeEEDpOT0_
FNDA:4,_ZSt11make_sharedIN8nlohmann16json_abi_v3_11_36detail21output_string_adapterIcNSt7__cxx1112basic_stringIcSt11char_traitsIcESaIcEEEEEJRS9_EESt10shared_ptrINSt9enable_ifIXntsrSt8is_arrayIT_E5valueESF_E4typeEEDpOT0_
FNDA:4,_ZNSt10shared_ptrIN8nlohmann16json_abi_v3_11_36detail23output_adapter_protocolIcEEEC2ERKS5_
FNDA:4,_ZNSt10shared_ptrIN8nlohmann16json_abi_v3_11_36detail23output_adapter_protocolIcEEEC2EOS5_
FNDA:0,_ZNSt10shared_ptrIN8nlohmann16json_abi_v3_11_36detail23output_adapter_protocolIcEEEC2INS2_21output_stream_adapterIcEEvEEOS_IT_E
FNDA:4,_ZNSt10shared_ptrIN8nlohmann16json_abi_v3_11_36detail23output_adapter_protocolIcEEEC2INS2_21output_string_adapterIcNSt7__cxx1112basic_stringIcSt11char_traitsIcESaIcEEEEEvEEOS_IT_E
FNDA:0,_ZNSt10shared_ptrIN8nlohmann16json_abi_v3_11_36detail21output_stream_adapterIcEEEC2ISaIvEJRSoEEESt20_Sp_alloc_shared_tagIT_EDpOT0_
FNDA:4,_ZNSt10shared_ptrIN8nlohmann16json_abi_v3_11_36detail21output_string_adapterIcNSt7__cxx1112basic_stringIcSt11char_traitsIcESaIcEEEEEEC2ISaIvEJRS9_EEESt20_Sp_alloc_shared_tagIT_EDpOT0_
FNF:8
FNH:5
DA:204,4
DA:359,4
DA:360,4
DA:368,4
DA:369,4
DA:463,4
DA:464,4
DA:465,4
DA:1005,4
DA:1010,8
LF:10
LH:10
end_of_record
TN:
SF:/usr/include/c++/13/bits/shared_ptr_base.h
FN:1068,1072,_ZNSt14__shared_countILN9__gnu_cxx12_Lock_policyE2EED2Ev
FN:1074,1079,_ZNSt14__shared_countILN9__gnu_cxx12_Lock_policyE2EEC2ERKS2_
FN:1097,1102,_ZNSt14__shared_countILN9__gnu_cxx12_Lock_policyE2EE7_M_swapERS2_
FN:129,130,_ZNSt16_Sp_counted_baseILN9__gnu_cxx12_Lock_policyE2EEC2Ev
FN:133,134,_ZNSt16_Sp_counted_baseILN9__gnu_cxx12_Lock_policyE2EED0Ev
FN:133,134,_ZNSt16_Sp_counted_baseILN9__gnu_cxx12_Lock_policyE2EED2Ev
FN:1354,1358,_ZNKSt19__shared_ptr_accessIN8nlohmann16json_abi_v3_11_36detail23output_adapter_protocolIcEELN9__gnu_cxx12_Lock_policyE2ELb0ELb0EEptEv
FN:1362,1363,_ZNKSt19__shared_ptr_accessIN8nlohmann16json_abi_v3_11_36detail23output_adapter_protocolIcEELN9__gnu_cxx12_Lock_policyE2ELb0ELb0EE6_M_getEv
FN:143,144,_ZNSt16_Sp_counted_baseILN9__gnu_cxx12_Lock_policyE2EE10_M_destroyEv
FN:151,152,_ZNSt16_Sp_counted_baseILN9__gnu_cxx12_Lock_policyE2EE15_M_add_ref_copyEv
FN:1522,1522,_ZNSt12__shared_ptrIN8nlohmann16json_abi_v3_11_36detail23output_adapter_protocolIcEELN9__gnu_cxx12_Lock_policyE2EEC2ERKS7_
FN:1524,1524,_ZNSt12__shared_ptrIN8nlohmann16json_abi_v3_11_36detail21output_stream_adapterIcEELN9__gnu_cxx12_Lock_policyE2EED2Ev
FN:1524,1524,_ZNSt12__shared_ptrIN8nlohmann16json_abi_v3_11_36detail21output_string_adapterIcNSt7__cxx1112basic_stringIcSt11char_traitsIcESaIcEEEEELN9__gnu_cxx12_Lock_policyE2EED2Ev
FN:1524,1524,_ZNSt12__shared_ptrIN8nlohmann16json_abi_v3_11_36detail23output_adapter_protocolIcEELN9__gnu_cxx12_Lock_policyE2EED2Ev
FN:1531,1536,_ZNSt12__shared_ptrIN8nlohmann16json_abi_v3_11_36detail23output_adapter_protocolIcEELN9__gnu_cxx12_Lock_policyE2EEC2EOS7_
FN:1539,1544,_ZNSt12__shared_ptrIN8nlohmann16json_abi_v3_11_36detail23output_adapter_protocolIcEELN9__gnu_cxx12_Lock_policyE2EEC2INS2_21output_stream_adapterIcEEvEEOS_IT_LS6_2EE
FN:1539,1544,_ZNSt12__shared_ptrIN8nlohmann16json_abi_v3_11_36detail23output_adapter_protocolIcEELN9__gnu_cxx12_Lock_policyE2EEC2INS2_21output_string_adapterIcNSt7__cxx1112basic_stringIcSt11char_traitsIcESaIcEEEEEvEEOS_IT_LS6_2EE
FN:1665,1666,_ZNKSt12__shared_ptrIN8nlohmann16json_abi_v3_11_36detail23output_adapter_protocolIcEELN9__gnu_cxx12_Lock_policyE2EE3getEv
FN:1711,1713,_ZNSt12__shared_ptrIN8nlohmann16json_abi_v3_11_36detail21output_stream_adapterIcEELN9__gnu_cxx12_Lock_policyE2EEC2ISaIvEJRSoEEESt20_Sp_alloc_shared_tagIT_EDpOT0_
FN:1711,1713,_ZNSt12__shared_ptrIN8nlohmann16json_abi_v3_11_36detail21output_string_adapterIcNSt7__cxx1112basic_stringIcSt11char_traitsIcESaIcEEEEELN9__gnu_cxx12_Lock_policyE2EEC2ISaIvEJRS9_EEESt20_Sp_alloc_shared_tagIT_EDpOT0_
FN:172,193,_ZNSt16_Sp_counted_baseILN9__gnu_cxx12_Lock_policyE2EE19_M_release_last_useEv
FN:1765,1766,_ZNSt12__shared_ptrIN8nlohmann16json_abi_v3_11_36detail21output_stream_adapterIcEELN9__gnu_cxx12_Lock_policyE2EE31_M_enable_shared_from_this_withIS4_S4_EENSt9enable_ifIXntsrNS7_15__has_esft_baseIT0_vEE5valueEvE4typeEPT_
FN:1765,1766,_ZNSt12__shared_ptrIN8nlohmann16json_abi_v3_11_36detail21output_string_adapterIcNSt7__cxx1112basic_stringIcSt11char_traitsIcESaIcEEEEELN9__gnu_cxx12_Lock_policyE2EE31_M_enable_shared_from_this_withISA_SA_EENSt9enable_ifIXntsrNSD_15__has_esft_baseIT0_vEE5valueEvE4typeEPT_
FN:198,199,_ZNSt16_Sp_counted_baseILN9__gnu_cxx12_Lock_policyE2EE24_M_release_last_use_coldEv
FN:317,363,_ZNSt16_Sp_counted_baseILN9__gnu_cxx12_Lock_policyE2EE10_M_releaseEv
FN:470,470,_ZNSt14_Sp_ebo_helperILi0ESaIvELb1EEC2ERKS0_
FN:474,474,_ZNSt14_Sp_ebo_helperILi0ESaIvELb1EE6_S_getERS1_
FN:564,568,_ZNSt19_Sp_make_shared_tag5_S_tiEv
FN:587,587,_ZNSt23_Sp_counted_ptr_inplaceIN8nlohmann16json_abi_v3_11_36detail21output_stream_adapterIcEESaIvELN9__gnu_cxx12_Lock_policyE2EE5_ImplC2ES5_
FN:587,587,_ZNSt23_Sp_counted_ptr_inplaceIN8nlohmann16json_abi_v3_11_36detail21output_string_adapterIcNSt7__cxx1112basic_stringIcSt11char_traitsIcESaIcEEEEESaIvELN9__gnu_cxx12_Lock_policyE2EE5_ImplC2ESB_
FN:589,589,_ZNSt23_Sp_counted_ptr_inplaceIN8nlohmann16json_abi_v3_11_36detail21output_stream_adapterIcEESaIvELN9__gnu_cxx12_Lock_policyE2EE5_Impl8_M_allocEv
FN:589,589,_ZNSt23_Sp_counted_ptr_inplaceIN8nlohmann16json_abi_v3_11_36detail21output_string_adapterIcNSt7__cxx1112basic_stringIcSt11char_traitsIcESaIcEEEEESaIvELN9__gnu_cxx12_Lock_policyE2EE5_Impl8_M_allocEv
FN:599,606,_ZNSt23_Sp_counted_ptr_inplaceIN8nlohmann16json_abi_v3_11_36detail21output_stream_adapterIcEESaIvELN9__gnu_cxx12_Lock_policyE2EEC2IJRSoEEES5_DpOT_
FN:599,606,_ZNSt23_Sp_counted_ptr_inplaceIN8nlohmann16json_abi_v3_11_36detail21output_string_adapterIcNSt7__cxx1112basic_stringIcSt11char_traitsIcESaIcEEEEESaIvELN9__gnu_cxx12_Lock_policyE2EEC2IJRS9_EEESB_DpOT_
FN:608,608,_ZNSt23_Sp_counted_ptr_inplaceIN8nlohmann16json_abi_v3_11_36detail21output_stream_adapterIcEESaIvELN9__gnu_cxx12_Lock_policyE2EED0Ev
FN:608,608,_ZNSt23_Sp_counted_ptr_inplaceIN8nlohmann16json_abi_v3_11_36detail21output_stream_adapterIcEESaIvELN9__gnu_cxx12_Lock_policyE2EED2Ev
FN:608,608,_ZNSt23_Sp_counted_ptr_inplaceIN8nlohmann16json_abi_v3_11_36detail21output_string_adapterIcNSt7__cxx1112basic_stringIcSt11char_traitsIcESaIcEEEEESaIvELN9__gnu_cxx12_Lock_policyE2EED0Ev
FN:608,608,_ZNSt23_Sp_counted_ptr_inplaceIN8nlohmann16json_abi_v3_11_36detail21output_string_adapterIcNSt7__cxx1112basic_stringIcSt11char_traitsIcESaIcEEEEESaIvELN9__gnu_cxx12_Lock_policyE2EED2Ev
FN:611,614,_ZNSt23_Sp_counted_ptr_inplaceIN8nlohmann16json_abi_v3_11_36detail21output_stream_adapterIcEESaIvELN9__gnu_cxx12_Lock_policyE2EE10_M_disposeEv
FN:611,614,_ZNSt23_Sp_counted_ptr_inplaceIN8nlohmann16json_abi_v3_11_36detail21output_string_adapterIcNSt7__cxx1112basic_stringIcSt11char_traitsIcESaIcEEEEESaIvELN9__gnu_cxx12_Lock_policyE2EE10_M_disposeEv
FN:618,623,_ZNSt23_Sp_counted_ptr_inplaceIN8nlohmann16json_abi_v3_11_36detail21output_stream_adapterIcEESaIvELN9__gnu_cxx12_Lock_policyE2EE10_M_destroyEv
FN:618,623,_ZNSt23_Sp_counted_ptr_inplaceIN8nlohmann16json_abi_v3_11_36detail21output_string_adapterIcNSt7__cxx1112basic_stringIcSt11char_traitsIcESaIcEEEEESaIvELN9__gnu_cxx12_Lock_policyE2EE10_M_destroyEv
FN:631,648,_ZNSt23_Sp_counted_ptr_inplaceIN8nlohmann16json_abi_v3_11_36detail21output_stream_adapterIcEESaIvELN9__gnu_cxx12_Lock_policyE2EE14_M_get_deleterERKSt9type_info
FN:631,648,_ZNSt23_Sp_counted_ptr_inplaceIN8nlohmann16json_abi_v3_11_36detail21output_string_adapterIcNSt7__cxx1112basic_stringIcSt11char_traitsIcESaIcEEEEESaIvELN9__gnu_cxx12_Lock_policyE2EE14_M_get_deleterERKSt9type_info
FN:650,650,_ZNSt23_Sp_counted_ptr_inplaceIN8nlohmann16json_abi_v3_11_36detail21output_stream_adapterIcEESaIvELN9__gnu_cxx12_Lock_policyE2EE6_M_ptrEv
FN:650,650,_ZNSt23_Sp_counted_ptr_inplaceIN8nlohmann16json_abi_v3_11_36detail21output_string_adapterIcNSt7__cxx1112basic_stringIcSt11char_traitsIcESaIcEEEEESaIvELN9__gnu_cxx12_Lock_policyE2EE6_M_ptrEv
FN:908,909,_ZNSt14__shared_countILN9__gnu_cxx12_Lock_policyE2EEC2Ev
FN:964,976,_ZNSt14__shared_countILN9__gnu_cxx12_Lock_policyE2EEC2IN8nlohmann16json_abi_v3_11_36detail21output_stream_adapterIcEESaIvEJRSoEEERPT_St20_Sp_alloc_shared_tagIT0_EDpOT1_
FN:964,976,_ZNSt14__shared_countILN9__gnu_cxx12_Lock_policyE2EEC2IN8nlohmann16json_abi_v3_11_36detail21output_string_adapterIcNSt7__cxx1112basic_stringIcSt11char_traitsIcESaIcEEEEESaIvEJRSD_EEERPT_St20_Sp_alloc_shared_tagIT0_EDpOT1_
FNDA:16,_ZNSt14__shared_countILN9__gnu_cxx12_Lock_policyE2EED2Ev
FNDA:4,_ZNSt14__shared_countILN9__gnu_cxx12_Lock_policyE2EEC2ERKS2_
FNDA:8,_ZNSt14__shared_countILN9__gnu_cxx12_Lock_policyE2EE7_M_swapERS2_
FNDA:4,_ZNSt16_Sp_counted_baseILN9__gnu_cxx12_Lock_policyE2EEC2Ev
FNDA:0,_ZNSt16_Sp_counted_baseILN9__gnu_cxx12_Lock_policyE2EED0Ev
FNDA:4,_ZNSt16_Sp_counted_baseILN9__gnu_cxx12_Lock_policyE2EED2Ev
FNDA:668,_ZNKSt19__shared_ptr_accessIN8nlohmann16json_abi_v3_11_36detail23output_adapter_protocolIcEELN9__gnu_cxx12_Lock_policyE2ELb0ELb0EEptEv
FNDA:668,_ZNKSt19__shared_ptr_accessIN8nlohmann16json_abi_v3_11_36detail23output_adapter_protocolIcEELN9__gnu_cxx12_Lock_policyE2ELb0ELb0EE6_M_getEv
FNDA:0,_ZNSt16_Sp_counted_baseILN9__gnu_cxx12_Lock_policyE2EE10_M_destroyEv
FNDA:4,_ZNSt16_Sp_counted_baseILN9__gnu_cxx12_Lock_policyE2EE15_M_add_ref_copyEv
FNDA:4,_ZNSt12__shared_ptrIN8nlohmann16json_abi_v3_11_36detail23output_adapter_protocolIcEELN9__gnu_cxx12_Lock_policyE2EEC2ERKS7_
FNDA:0,_ZNSt12__shared_ptrIN8nlohmann16json_abi_v3_11_36detail21output_stream_adapterIcEELN9__gnu_cxx12_Lock_policyE2EED2Ev
FNDA:4,_ZNSt12__shared_ptrIN8nlohmann16json_abi_v3_11_36detail21output_string_adapterIcNSt7__cxx1112basic_stringIcSt11char_traitsIcESaIcEEEEELN9__gnu_cxx12_Lock_policyE2EED2Ev
FNDA:12,_ZNSt12__shared_ptrIN8nlohmann16json_abi_v3_11_36detail23output_adapter_protocolIcEELN9__gnu_cxx12_Lock_policyE2EED2Ev
FNDA:4,_ZNSt12__shared_ptrIN8nlohmann16json_abi_v3_11_36detail23output_adapter_protocolIcEELN9__gnu_cxx12_Lock_policyE2EEC2EOS7_
FNDA:0,_ZNSt12__shared_ptrIN8nlohmann16json_abi_v3_11_36detail23output_adapter_protocolIcEELN9__gnu_cxx12_Lock_policyE2EEC2INS2_21output_stream_adapterIcEEvEEOS_IT_LS6_2EE
FNDA:4,_ZNSt12__shared_ptrIN8nlohmann16json_abi_v3_11_36detail23output_adapter_protocolIcEELN9__gnu_cxx12_Lock_policyE2EEC2INS2_21output_string_adapterIcNSt7__cxx1112basic_stringIcSt11char_traitsIcESaIcEEEEEvEEOS_IT_LS6_2EE
FNDA:668,_ZNKSt12__shared_ptrIN8nlohmann16json_abi_v3_11_36detail23output_adapter_protocolIcEELN9__gnu_cxx12_Lock_policyE2EE3getEv
FNDA:0,_ZNSt12__shared_ptrIN8nlohmann16json_abi_v3_11_36detail21output_stream_adapterIcEELN9__gnu_cxx12_Lock_policyE2EEC2ISaIvEJRSoEEESt20_Sp_alloc_shared_tagIT_EDpOT0_
FNDA:4,_ZNSt12__shared_ptrIN8nlohmann16json_abi_v3_11_36detail21output_string_adapterIcNSt7__cxx1112basic_stringIcSt11char_traitsIcESaIcEEEEELN9__gnu_cxx12_Lock_policyE2EEC2ISaIvEJRS9_EEESt20_Sp_alloc_shared_tagIT_EDpOT0_
FNDA:0,_ZNSt16_Sp_counted_baseILN9__gnu_cxx12_Lock_policyE2EE19_M_release_last_useEv
FNDA:0,_ZNSt12__shared_ptrIN8nlohmann16json_abi_v3_11_36detail21output_stream_adapterIcEELN9__gnu_cxx12_Lock_policyE2EE31_M_enable_shared_from_this_withIS4_S4_EENSt9enable_ifIXntsrNS7_15__has_esft_baseIT0_vEE5valueEvE4typeEPT_
FNDA:4,_ZNSt12__shared_ptrIN8nlohmann16json_abi_v3_11_36detail21output_string_adapterIcNSt7__cxx1112basic_stringIcSt11char_traitsIcESaIcEEEEELN9__gnu_cxx12_Lock_policyE2EE31_M_enable_shared_from_this_withISA_SA_EENSt9enable_ifIXntsrNSD_15__has_esft_baseIT0_vEE5valueEvE4typeEPT_
FNDA:0,_ZNSt16_Sp_counted_baseILN9__gnu_cxx12_Lock_policyE2EE24_M_release_last_use_coldEv
FNDA:8,_ZNSt16_Sp_counted_baseILN9__gnu_cxx12_Lock_policyE2EE10_M_releaseEv
FNDA:4,_ZNSt14_Sp_ebo_helperILi0ESaIvELb1EEC2ERKS0_
FNDA:8,_ZNSt14_Sp_ebo_helperILi0ESaIvELb1EE6_S_getERS1_
FNDA:0,_ZNSt19_Sp_make_shared_tag5_S_tiEv
FNDA:0,_ZNSt23_Sp_counted_ptr_inplaceIN8nlohmann16json_abi_v3_11_36detail21output_stream_adapterIcEESaIvELN9__gnu_cxx12_Lock_policyE2EE5_ImplC2ES5_
FNDA:4,_ZNSt23_Sp_counted_ptr_inplaceIN8nlohmann16json_abi_v3_11_36detail21output_string_adapterIcNSt7__cxx1112basic_stringIcSt11char_traitsIcESaIcEEEEESaIvELN9__gnu_cxx12_Lock_policyE2EE5_ImplC2ESB_
FNDA:0,_ZNSt23_Sp_counted_ptr_inplaceIN8nlohmann16json_abi_v3_11_36detail21output_stream_adapterIcEESaIvELN9__gnu_cxx12_Lock_policyE2EE5_Impl8_M_allocEv
FNDA:8,_ZNSt23_Sp_counted_ptr_inplaceIN8nlohmann16json_abi_v3_11_36detail21output_string_adapterIcNSt7__cxx1112basic_stringIcSt11char_traitsIcESaIcEEEEESaIvELN9__gnu_cxx12_Lock_policyE2EE5_Impl8_M_allocEv
FNDA:0,_ZNSt23_Sp_counted_ptr_inplaceIN8nlohmann16json_abi_v3_11_36detail21output_stream_adapterIcEESaIvELN9__gnu_cxx12_Lock_policyE2EEC2IJRSoEEES5_DpOT_
FNDA:4,_ZNSt23_Sp_counted_ptr_inplaceIN8nlohmann16json_abi_v3_11_36detail21output_string_adapterIcNSt7__cxx1112basic_stringIcSt11char_traitsIcESaIcEEEEESaIvELN9__gnu_cxx12_Lock_policyE2EEC2IJRS9_EEESB_DpOT_
FNDA:0,_ZNSt23_Sp_counted_ptr_inplaceIN8nlohmann16json_abi_v3_11_36detail21output_stream_adapterIcEESaIvELN9__gnu_cxx12_Lock_policyE2EED0Ev
FNDA:0,_ZNSt23_Sp_counted_ptr_inplaceIN8nlohmann16json_abi_v3_11_36detail21output_stream_adapterIcEESaIvELN9__gnu_cxx12_Lock_policyE2EED2Ev
FNDA:0,_ZNSt23_Sp_counted_ptr_inplaceIN8nlohmann16json_abi_v3_11_36detail21output_string_adapterIcNSt7__cxx1112basic_stringIcSt11char_traitsIcESaIcEEEEESaIvELN9__gnu_cxx12_Lock_policyE2EED0Ev
FNDA:4,_ZNSt23_Sp_counted_ptr_inplaceIN8nlohmann16json_abi_v3_11_36detail21output_string_adapterIcNSt7__cxx1112basic_stringIcSt11char_traitsIcESaIcEEEEESaIvELN9__gnu_cxx12_Lock_policyE2EED2Ev
FNDA:0,_ZNSt23_Sp_counted_ptr_inplaceIN8nlohmann16json_abi_v3_11_36detail21output_stream_adapterIcEESaIvELN9__gnu_cxx12_Lock_policyE2EE10_M_disposeEv
FNDA:4,_ZNSt23_Sp_counted_ptr_inplaceIN8nlohmann16json_abi_v3_11_36detail21output_string_adapterIcNSt7__cxx1112basic_stringIcSt11char_traitsIcESaIcEEEEESaIvELN9__gnu_cxx12_Lock_policyE2EE10_M_disposeEv
FNDA:0,_ZNSt23_Sp_counted_ptr_inplaceIN8nlohmann16json_abi_v3_11_36detail21output_stream_adapterIcEESaIvELN9__gnu_cxx12_Lock_policyE2EE10_M_destroyEv
FNDA:4,_ZNSt23_Sp_counted_ptr_inplaceIN8nlohmann16json_abi_v3_11_36detail21output_string_adapterIcNSt7__cxx1112basic_stringIcSt11char_traitsIcESaIcEEEEESaIvELN9__gnu_cxx12_Lock_policyE2EE10_M_destroyEv
FNDA:0,_ZNSt23_Sp_counted_ptr_inplaceIN8nlohmann16json_abi_v3_11_36detail21output_stream_adapterIcEESaIvELN9__gnu_cxx12_Lock_policyE2EE14_M_get_deleterERKSt9type_info
FNDA:0,_ZNSt23_Sp_counted_ptr_inplaceIN8nlohmann16json_abi_v3_11_36detail21output_string_adapterIcNSt7__cxx1112basic_stringIcSt11char_traitsIcESaIcEEEEESaIvELN9__gnu_cxx12_Lock_policyE2EE14_M_get_deleterERKSt9type_info
FNDA:0,_ZNSt23_Sp_counted_ptr_inplaceIN8nlohmann16json_abi_v3_11_36detail21output_stream_adapterIcEESaIvELN9__gnu_cxx12_Lock_policyE2EE6_M_ptrEv
FNDA:12,_ZNSt23_Sp_counted_ptr_inplaceIN8nlohmann16json_abi_v3_11_36detail21output_string_adapterIcNSt7__cxx1112basic_stringIcSt11char_traitsIcESaIcEEEEESaIvELN9__gnu_cxx12_Lock_policyE2EE6_M_ptrEv
FNDA:8,_ZNSt14__shared_countILN9__gnu_cxx12_Lock_policyE2EEC2Ev
FNDA:0,_ZNSt14__shared_countILN9__gnu_cxx12_Lock_policyE2EEC2IN8nlohmann16json_abi_v3_11_36detail21output_stream_adapterIcEESaIvEJRSoEEERPT_St20_Sp_alloc_shared_tagIT0_EDpOT1_
FNDA:4,_ZNSt14__shared_countILN9__gnu_cxx12_Lock_policyE2EEC2IN8nlohmann16json_abi_v3_11_36detail21output_string_adapterIcNSt7__cxx1112basic_stringIcSt11char_traitsIcESaIcEEEEESaIvEJRSD_EEERPT_St20_Sp_alloc_shared_tagIT0_EDpOT1_
FNF:49
FNH:28
DA:129,4
DA:130,4
DA:133,4
DA:134,4
DA:143,0
DA:144,0
DA:151,4
DA:152,4
DA:172,0
DA:175,0
DA:187,0
DA:188,0
DA:191,0
DA:193,0
DA:198,0
DA:199,0
DA:317,8
DA:321,8
DA:324,8
DA:328,8
DA:331,8
DA:332,8
DA:333,8
DA:334,8
DA:337,8
DA:343,4
DA:346,4
DA:347,4
DA:348,4
DA:350,8
DA:351,0
DA:353,0
DA:354,0
DA:470,4
DA:474,8
DA:564,0
DA:567,0
DA:587,4
DA:589,8
DA:599,4
DA:600,4
DA:604,4
DA:606,4
DA:608,4
DA:611,4
DA:613,4
DA:614,4
DA:618,4
DA:620,4
DA:621,4
DA:622,4
DA:623,4
DA:631,0
DA:633,0
DA:638,0
DA:639,0
DA:641,0
DA:646,0
DA:647,0
DA:650,12
DA:908,8
DA:909,8
DA:964,4
DA:968,4
DA:969,4
DA:970,4
DA:971,4
DA:973,4
DA:974,4
DA:975,4
DA:976,8
DA:1068,16
DA:1070,16
DA:1071,8
DA:1072,16
DA:1074,4
DA:1075,4
DA:1077,4
DA:1078,4
DA:1079,4
DA:1097,8
DA:1099,8
DA:1100,8
DA:1101,8
DA:1102,8
DA:1354,668
DA:1357,668
DA:1362,668
DA:1363,668
DA:1522,4
DA:1524,16
DA:1531,4
DA:1532,4
DA:1534,4
DA:1535,4
DA:1536,4
DA:1539,4
DA:1540,4
DA:1542,4
DA:1543,4
DA:1544,4
DA:1665,668
DA:1666,668
DA:1711,4
DA:1712,4
DA:1713,4
DA:1765,4
DA:1766,4
LF:108
LH:86
end_of_record
TN:
SF:/usr/include/c++/13/bits/std_function.h
FN:239,239,_ZNSt14_Function_baseC2Ev
FN:241,245,_ZNSt14_Function_baseD2Ev
FN:247,247,_ZNKSt14_Function_base8_M_emptyEv
FN:375,376,_ZNSt8functionIFbiN8nlohmann16json_abi_v3_11_36detail13parse_event_tERNS1_10basic_jsonISt3mapSt6vectorNSt7__cxx1112basic_stringIcSt11char_traitsIcESaIcEEEblmdSaNS1_14adl_serializerES6_IhSaIhEEvEEEEC2EDn
FN:386,395,_ZNSt8functionIFbiN8nlohmann16json_abi_v3_11_36detail13parse_event_tERNS1_10basic_jsonISt3mapSt6vectorNSt7__cxx1112basic_stringIcSt11char_traitsIcESaIcEEEblmdSaNS1_14adl_serializerES6_IhSaIhEEvEEEEC2ERKSJ_
FN:404,414,_ZNSt8functionIFbiN8nlohmann16json_abi_v3_11_36detail13parse_event_tERNS1_10basic_jsonISt3mapSt6vectorNSt7__cxx1112basic_stringIcSt11char_traitsIcESaIcEEEblmdSaNS1_14adl_serializerES6_IhSaIhEEvEEEEC2EOSJ_
FN:573,574,_ZNKSt8functionIFbiN8nlohmann16json_abi_v3_11_36detail13parse_event_tERNS1_10basic_jsonISt3mapSt6vectorNSt7__cxx1112basic_stringIcSt11char_traitsIcESaIcEEEblmdSaNS1_14adl_serializerES6_IhSaIhEEvEEEEcvbEv
FN:587,592,_ZNKSt8functionIFbiN8nlohmann16json_abi_v3_11_36detail13parse_event_tERNS1_10basic_jsonISt3mapSt6vectorNSt7__cxx1112basic_stringIcSt11char_traitsIcESaIcEEEblmdSaNS1_14adl_serializerES6_IhSaIhEEvEEEEclEiS3_SH_
FNDA:42,_ZNSt14_Function_baseC2Ev
FNDA:42,_ZNSt14_Function_baseD2Ev
FNDA:42,_ZNKSt14_Function_base8_M_emptyEv
FNDA:14,_ZNSt8functionIFbiN8nlohmann16json_abi_v3_11_36detail13parse_event_tERNS1_10basic_jsonISt3mapSt6vectorNSt7__cxx1112basic_stringIcSt11char_traitsIcESaIcEEEblmdSaNS1_14adl_serializerES6_IhSaIhEEvEEEEC2EDn
FNDA:0,_ZNSt8functionIFbiN8nlohmann16json_abi_v3_11_36detail13parse_event_tERNS1_10basic_jsonISt3mapSt6vectorNSt7__cxx1112basic_stringIcSt11char_traitsIcESaIcEEEblmdSaNS1_14adl_serializerES6_IhSaIhEEvEEEEC2ERKSJ_
FNDA:28,_ZNSt8functionIFbiN8nlohmann16json_abi_v3_11_36detail13parse_event_tERNS1_10basic_jsonISt3mapSt6vectorNSt7__cxx1112basic_stringIcSt11char_traitsIcESaIcEEEblmdSaNS1_14adl_serializerES6_IhSaIhEEvEEEEC2EOSJ_
FNDA:42,_ZNKSt8functionIFbiN8nlohmann16json_abi_v3_11_36detail13parse_event_tERNS1_10basic_jsonISt3mapSt6vectorNSt7__cxx1112basic_stringIcSt11char_traitsIcESaIcEEEblmdSaNS1_14adl_serializerES6_IhSaIhEEvEEEEcvbEv
FNDA:0,_ZNKSt8functionIFbiN8nlohmann16json_abi_v3_11_36detail13parse_event_tERNS1_10basic_jsonISt3mapSt6vectorNSt7__cxx1112basic_stringIcSt11char_traitsIcESaIcEEEblmdSaNS1_14adl_serializerES6_IhSaIhEEvEEEEclEiS3_SH_
FNF:8
FNH:6
DA:239,42
DA:241,42
DA:243,42
DA:244,0
DA:245,42
DA:247,42
DA:375,14
DA:376,14
DA:386,0
DA:387,0
DA:389,0
DA:391,0
DA:392,0
DA:393,0
DA:395,0
DA:404,28
DA:405,28
DA:407,28
DA:409,0
DA:410,0
DA:411,0
DA:412,0
DA:414,28
DA:573,42
DA:574,42
DA:587,0
DA:589,0
DA:590,0
DA:591,0
LF:29
LH:13
end_of_record
TN:
SF:/usr/include/c++/13/bits/stl_algo.h
FN:109,115,_ZSt13__find_if_notIPKN8nlohmann16json_abi_v3_11_36detail8json_refINS1_10basic_jsonISt3mapSt6vectorNSt7__cxx1112basic_stringIcSt11char_traitsIcESaIcEEEblmdSaNS1_14adl_serializerES6_IhSaIhEEvEEEEN9__gnu_cxx5__ops10_Iter_predIZNSG_C4ESt16initializer_listISH_EbNS2_7value_tEEUlRSI_E_EEET_ST_ST_T0_
FN:4298,4311,_ZSt9transformIN9__gnu_cxx17__normal_iteratorIPcNSt7__cxx1112basic_stringIcSt11char_traitsIcESaIcEEEEES9_Z10getFactoryRKS8_EUlhE_ET0_T_SE_SD_T1_
FN:458,459,_ZSt6all_ofIPKN8nlohmann16json_abi_v3_11_36detail8json_refINS1_10basic_jsonISt3mapSt6vectorNSt7__cxx1112basic_stringIcSt11char_traitsIcESaIcEEEblmdSaNS1_14adl_serializerES6_IhSaIhEEvEEEEZNSG_C4ESt16initializer_listISH_EbNS2_7value_tEEUlRSI_E_EbT_SP_T0_
FN:511,521,_ZSt11find_if_notIPKN8nlohmann16json_abi_v3_11_36detail8json_refINS1_10basic_jsonISt3mapSt6vectorNSt7__cxx1112basic_stringIcSt11char_traitsIcESaIcEEEblmdSaNS1_14adl_serializerES6_IhSaIhEEvEEEEZNSG_C4ESt16initializer_listISH_EbNS2_7value_tEEUlRSI_E_ET_SP_SP_T0_
FNDA:0,_ZSt13__find_if_notIPKN8nlohmann16json_abi_v3_11_36detail8json_refINS1_10basic_jsonISt3mapSt6vectorNSt7__cxx1112basic_stringIcSt11char_traitsIcESaIcEEEblmdSaNS1_14adl_serializerES6_IhSaIhEEvEEEEN9__gnu_cxx5__ops10_Iter_predIZNSG_C4ESt16initializer_listISH_EbNS2_7value_tEEUlRSI_E_EEET_ST_ST_T0_
FNDA:7,_ZSt9transformIN9__gnu_cxx17__normal_iteratorIPcNSt7__cxx1112basic_stringIcSt11char_traitsIcESaIcEEEEES9_Z10getFactoryRKS8_EUlhE_ET0_T_SE_SD_T1_
FNDA:0,_ZSt6all_ofIPKN8nlohmann16json_abi_v3_11_36detail8json_refINS1_10basic_jsonISt3mapSt6vectorNSt7__cxx1112basic_stringIcSt11char_traitsIcESaIcEEEblmdSaNS1_14adl_serializerES6_IhSaIhEEvEEEEZNSG_C4ESt16initializer_listISH_EbNS2_7value_tEEUlRSI_E_EbT_SP_T0_
FNDA:0,_ZSt11find_if_notIPKN8nlohmann16json_abi_v3_11_36detail8json_refINS1_10basic_jsonISt3mapSt6vectorNSt7__cxx1112basic_stringIcSt11char_traitsIcESaIcEEEblmdSaNS1_14adl_serializerES6_IhSaIhEEvEEEEZNSG_C4ESt16initializer_listISH_EbNS2_7value_tEEUlRSI_E_ET_SP_SP_T0_
FNF:4
FNH:1
DA:109,0
DA:112,0
DA:114,0
DA:458,0
DA:459,0
DA:511,0
DA:519,0
DA:520,0
DA:4298,7
DA:4308,31
DA:4309,24
DA:4310,7
LF:12
LH:4
end_of_record
TN:
SF:/usr/include/c++/13/bits/stl_algobase.h
FN:1167,1173,_ZNSt7__equalILb0EE5equalIPKN8nlohmann16json_abi_v3_11_310basic_jsonISt3mapSt6vectorNSt7__cxx1112basic_stringIcSt11char_traitsIcESaIcEEEblmdSaNS3_14adl_serializerES6_IhSaIhEEvEESI_EEbT_SJ_T0_
FN:1167,1173,_ZNSt7__equalILb0EE5equalISt23_Rb_tree_const_iteratorISt4pairIKNSt7__cxx1112basic_stringIcSt11char_traitsIcESaIcEEEN8nlohmann16json_abi_v3_11_310basic_jsonISt3mapSt6vectorS9_blmdSaNSC_14adl_serializerESF_IhSaIhEEvEEEESL_EEbT_SM_T0_
FN:1182,1187,_ZNSt7__equalILb1EE5equalIhEEbPKT_S4_S4_
FN:1213,1220,_ZSt12__equal_aux1IPKN8nlohmann16json_abi_v3_11_310basic_jsonISt3mapSt6vectorNSt7__cxx1112basic_stringIcSt11char_traitsIcESaIcEEEblmdSaNS1_14adl_serializerES4_IhSaIhEEvEESG_EbT_SH_T0_
FN:1213,1220,_ZSt12__equal_aux1IPKhS1_EbT_S2_T0_
FN:1213,1220,_ZSt12__equal_aux1ISt23_Rb_tree_const_iteratorISt4pairIKNSt7__cxx1112basic_stringIcSt11char_traitsIcESaIcEEEN8nlohmann16json_abi_v3_11_310basic_jsonISt3mapSt6vectorS7_blmdSaNSA_14adl_serializerESD_IhSaIhEEvEEEESJ_EbT_SK_T0_
FN:1225,1230,_ZSt11__equal_auxIN9__gnu_cxx17__normal_iteratorIPKN8nlohmann16json_abi_v3_11_310basic_jsonISt3mapSt6vectorNSt7__cxx1112basic_stringIcSt11char_traitsIcESaIcEEEblmdSaNS3_14adl_serializerES6_IhSaIhEEvEES6_ISG_SaISG_EEEESL_EbT_SM_T0_
FN:1225,1230,_ZSt11__equal_auxIN9__gnu_cxx17__normal_iteratorIPKhSt6vectorIhSaIhEEEES7_EbT_S8_T0_
FN:1225,1230,_ZSt11__equal_auxISt23_Rb_tree_const_iteratorISt4pairIKNSt7__cxx1112basic_stringIcSt11char_traitsIcESaIcEEEN8nlohmann16json_abi_v3_11_310basic_jsonISt3mapSt6vectorS7_blmdSaNSA_14adl_serializerESD_IhSaIhEEvEEEESJ_EbT_SK_T0_
FN:1547,1558,_ZSt5equalIN9__gnu_cxx17__normal_iteratorIPKN8nlohmann16json_abi_v3_11_310basic_jsonISt3mapSt6vectorNSt7__cxx1112basic_stringIcSt11char_traitsIcESaIcEEEblmdSaNS3_14adl_serializerES6_IhSaIhEEvEES6_ISG_SaISG_EEEESL_EbT_SM_T0_
FN:1547,1558,_ZSt5equalIN9__gnu_cxx17__normal_iteratorIPKhSt6vectorIhSaIhEEEES7_EbT_S8_T0_
FN:1547,1558,_ZSt5equalISt23_Rb_tree_const_iteratorISt4pairIKNSt7__cxx1112basic_stringIcSt11char_traitsIcESaIcEEEN8nlohmann16json_abi_v3_11_310basic_jsonISt3mapSt6vectorS7_blmdSaNSA_14adl_serializerESD_IhSaIhEEvEEEESJ_EbT_SK_T0_
FN:2064,2110,_ZSt9__find_ifIPKN8nlohmann16json_abi_v3_11_36detail8json_refINS1_10basic_jsonISt3mapSt6vectorNSt7__cxx1112basic_stringIcSt11char_traitsIcESaIcEEEblmdSaNS1_14adl_serializerES6_IhSaIhEEvEEEEN9__gnu_cxx5__ops12_Iter_negateIZNSG_C4ESt16initializer_listISH_EbNS2_7value_tEEUlRSI_E_EEET_ST_ST_T0_St26random_access_iterator_tag
FN:233,241,_ZSt3minImERKT_S2_S2_
FN:257,265,_ZSt3maxImERKT_S2_S2_
FN:316,318,_ZSt12__niter_baseIPN8nlohmann16json_abi_v3_11_310basic_jsonISt3mapSt6vectorNSt7__cxx1112basic_stringIcSt11char_traitsIcESaIcEEEblmdSaNS1_14adl_serializerES4_IhSaIhEEvEEET_SG_
FN:316,318,_ZSt12__niter_baseIPNSt7__cxx1112basic_stringIcSt11char_traitsIcESaIcEEEET_S7_
FN:316,318,_ZSt12__niter_baseIPPN8nlohmann16json_abi_v3_11_310basic_jsonISt3mapSt6vectorNSt7__cxx1112basic_stringIcSt11char_traitsIcESaIcEEEblmdSaNS1_14adl_serializerES4_IhSaIhEEvEEET_SH_
FN:316,318,_ZSt12__niter_baseIPcET_S1_
FN:316,318,_ZSt12__niter_baseIPhET_S1_
FN:316,318,_ZSt12__niter_baseIPmET_S1_
FN:316,318,_ZSt12__niter_baseISt13_Bit_iteratorET_S1_
FN:316,318,_ZSt12__niter_baseISt19_Bit_const_iteratorET_S1_
FN:316,318,_ZSt12__niter_baseISt20back_insert_iteratorISt6vectorIN8nlohmann16json_abi_v3_11_310basic_jsonISt3mapS1_NSt7__cxx1112basic_stringIcSt11char_traitsIcESaIcEEEblmdSaNS3_14adl_serializerES1_IhSaIhEEvEESaISF_EEEET_SJ_
FN:316,318,_ZSt12__niter_baseISt23_Rb_tree_const_iteratorISt4pairIKNSt7__cxx1112basic_stringIcSt11char_traitsIcESaIcEEEN8nlohmann16json_abi_v3_11_310basic_jsonISt3mapSt6vectorS7_blmdSaNSA_14adl_serializerESD_IhSaIhEEvEEEEET_SK_
FN:331,332,_ZSt12__niter_wrapIN9__gnu_cxx17__normal_iteratorIPN8nlohmann16json_abi_v3_11_310basic_jsonISt3mapSt6vectorNSt7__cxx1112basic_stringIcSt11char_traitsIcESaIcEEEblmdSaNS3_14adl_serializerES6_IhSaIhEEvEES6_ISG_SaISG_EEEESH_ET_SL_T0_
FN:338,339,_ZSt12__niter_wrapIPPN8nlohmann16json_abi_v3_11_310basic_jsonISt3mapSt6vectorNSt7__cxx1112basic_stringIcSt11char_traitsIcESaIcEEEblmdSaNS1_14adl_serializerES4_IhSaIhEEvEEET_RKSH_SH_
FN:338,339,_ZSt12__niter_wrapIPcET_RKS1_S1_
FN:338,339,_ZSt12__niter_wrapIPhET_RKS1_S1_
FN:338,339,_ZSt12__niter_wrapIPmET_RKS1_S1_
FN:338,339,_ZSt12__niter_wrapISt13_Bit_iteratorET_RKS1_S1_
FN:338,339,_ZSt12__niter_wrapISt20back_insert_iteratorISt6vectorIN8nlohmann16json_abi_v3_11_310basic_jsonISt3mapS1_NSt7__cxx1112basic_stringIcSt11char_traitsIcESaIcEEEblmdSaNS3_14adl_serializerES1_IhSaIhEEvEESaISF_EEEET_RKSJ_SJ_
FN:383,393,_ZNSt11__copy_moveILb0ELb0ESt26random_access_iterator_tagE8__copy_mISt13_Bit_iteratorS3_EET0_T_S5_S4_
FN:383,393,_ZNSt11__copy_moveILb0ELb0ESt26random_access_iterator_tagE8__copy_mISt19_Bit_const_iteratorSt13_Bit_iteratorEET0_T_S6_S5_
FN:397,398,_ZNSt11__copy_moveILb0ELb0ESt26random_access_iterator_tagE12__assign_oneIhKhEEvPT_PT0_
FN:397,398,_ZNSt11__copy_moveILb0ELb0ESt26random_access_iterator_tagE12__assign_oneImmEEvPT_PT0_
FN:408,418,_ZNSt11__copy_moveILb1ELb0ESt26random_access_iterator_tagE8__copy_mIPN8nlohmann16json_abi_v3_11_310basic_jsonISt3mapSt6vectorNSt7__cxx1112basic_stringIcSt11char_traitsIcESaIcEEEblmdSaNS4_14adl_serializerES7_IhSaIhEEvEESI_EET0_T_SK_SJ_
FN:408,418,_ZNSt11__copy_moveILb1ELb0ESt26random_access_iterator_tagE8__copy_mIPN8nlohmann16json_abi_v3_11_310basic_jsonISt3mapSt6vectorNSt7__cxx1112basic_stringIcSt11char_traitsIcESaIcEEEblmdSaNS4_14adl_serializerES7_IhSaIhEEvEESt20back_insert_iteratorIS7_ISH_SaISH_EEEEET0_T_SO_SN_
FN:422,423,_ZNSt11__copy_moveILb1ELb0ESt26random_access_iterator_tagE12__assign_oneIPN8nlohmann16json_abi_v3_11_310basic_jsonISt3mapSt6vectorNSt7__cxx1112basic_stringIcSt11char_traitsIcESaIcEEEblmdSaNS4_14adl_serializerES7_IhSaIhEEvEESI_EEvPT_PT0_
FN:422,423,_ZNSt11__copy_moveILb1ELb0ESt26random_access_iterator_tagE12__assign_oneIccEEvPT_PT0_
FN:433,442,_ZNSt11__copy_moveILb0ELb1ESt26random_access_iterator_tagE8__copy_mIKhhEEPT0_PT_S7_S5_
FN:433,442,_ZNSt11__copy_moveILb0ELb1ESt26random_access_iterator_tagE8__copy_mImmEEPT0_PT_S6_S4_
FN:433,442,_ZNSt11__copy_moveILb1ELb1ESt26random_access_iterator_tagE8__copy_mIPN8nlohmann16json_abi_v3_11_310basic_jsonISt3mapSt6vectorNSt7__cxx1112basic_stringIcSt11char_traitsIcESaIcEEEblmdSaNS4_14adl_serializerES7_IhSaIhEEvEESI_EEPT0_PT_SM_SK_
FN:433,442,_ZNSt11__copy_moveILb1ELb1ESt26random_access_iterator_tagE8__copy_mIccEEPT0_PT_S6_S4_
FN:497,507,_ZSt14__copy_move_a2ILb0EPKhPhET1_T0_S4_S3_
FN:497,507,_ZSt14__copy_move_a2ILb0EPmS0_ET1_T0_S2_S1_
FN:497,507,_ZSt14__copy_move_a2ILb0ESt13_Bit_iteratorS0_ET1_T0_S2_S1_
FN:497,507,_ZSt14__copy_move_a2ILb0ESt19_Bit_const_iteratorSt13_Bit_iteratorET1_T0_S3_S2_
FN:497,507,_ZSt14__copy_move_a2ILb1EPN8nlohmann16json_abi_v3_11_310basic_jsonISt3mapSt6vectorNSt7__cxx1112basic_stringIcSt11char_traitsIcESaIcEEEblmdSaNS1_14adl_serializerES4_IhSaIhEEvEESF_ET1_T0_SH_SG_
FN:497,507,_ZSt14__copy_move_a2ILb1EPN8nlohmann16json_abi_v3_11_310basic_jsonISt3mapSt6vectorNSt7__cxx1112basic_stringIcSt11char_traitsIcESaIcEEEblmdSaNS1_14adl_serializerES4_IhSaIhEEvEESt20back_insert_iteratorIS4_ISE_SaISE_EEEET1_T0_SL_SK_
FN:497,507,_ZSt14__copy_move_a2ILb1EPPN8nlohmann16json_abi_v3_11_310basic_jsonISt3mapSt6vectorNSt7__cxx1112basic_stringIcSt11char_traitsIcESaIcEEEblmdSaNS1_14adl_serializerES4_IhSaIhEEvEESG_ET1_T0_SI_SH_
FN:497,507,_ZSt14__copy_move_a2ILb1EPcS0_ET1_T0_S2_S1_
FN:532,533,_ZSt14__copy_move_a1ILb0EPKhPhET1_T0_S4_S3_
FN:532,533,_ZSt14__copy_move_a1ILb0EPmS0_ET1_T0_S2_S1_
FN:532,533,_ZSt14__copy_move_a1ILb0ESt13_Bit_iteratorS0_ET1_T0_S2_S1_
FN:532,533,_ZSt14__copy_move_a1ILb0ESt19_Bit_const_iteratorSt13_Bit_iteratorET1_T0_S3_S2_
FN:532,533,_ZSt14__copy_move_a1ILb1EPN8nlohmann16json_abi_v3_11_310basic_jsonISt3mapSt6vectorNSt7__cxx1112basic_stringIcSt11char_traitsIcESaIcEEEblmdSaNS1_14adl_serializerES4_IhSaIhEEvEESF_ET1_T0_SH_SG_
FN:532,533,_ZSt14__copy_move_a1ILb1EPN8nlohmann16json_abi_v3_11_310basic_jsonISt3mapSt6vectorNSt7__cxx1112basic_stringIcSt11char_traitsIcESaIcEEEblmdSaNS1_14adl_serializerES4_IhSaIhEEvEESt20back_insert_iteratorIS4_ISE_SaISE_EEEET1_T0_SL_SK_
FN:532,533,_ZSt14__copy_move_a1ILb1EPPN8nlohmann16json_abi_v3_11_310basic_jsonISt3mapSt6vectorNSt7__cxx1112basic_stringIcSt11char_traitsIcESaIcEEEblmdSaNS1_14adl_serializerES4_IhSaIhEEvEESG_ET1_T0_SI_SH_
FN:532,533,_ZSt14__copy_move_a1ILb1EPcS0_ET1_T0_S2_S1_
FN:538,544,_ZSt13__copy_move_aILb0EN9__gnu_cxx17__normal_iteratorIPKhSt6vectorIhSaIhEEEEPhET1_T0_SA_S9_
FN:538,544,_ZSt13__copy_move_aILb0EPmS0_ET1_T0_S2_S1_
FN:538,544,_ZSt13__copy_move_aILb0ESt13_Bit_iteratorS0_ET1_T0_S2_S1_
FN:538,544,_ZSt13__copy_move_aILb0ESt19_Bit_const_iteratorSt13_Bit_iteratorET1_T0_S3_S2_
FN:538,544,_ZSt13__copy_move_aILb1EN9__gnu_cxx17__normal_iteratorIPN8nlohmann16json_abi_v3_11_310basic_jsonISt3mapSt6vectorNSt7__cxx1112basic_stringIcSt11char_traitsIcESaIcEEEblmdSaNS3_14adl_serializerES6_IhSaIhEEvEES6_ISG_SaISG_EEEESK_ET1_T0_SM_SL_
FN:538,544,_ZSt13__copy_move_aILb1EN9__gnu_cxx17__normal_iteratorIPN8nlohmann16json_abi_v3_11_310basic_jsonISt3mapSt6vectorNSt7__cxx1112basic_stringIcSt11char_traitsIcESaIcEEEblmdSaNS3_14adl_serializerES6_IhSaIhEEvEES6_ISG_SaISG_EEEESt20back_insert_iteratorISJ_EET1_T0_SO_SN_
FN:538,544,_ZSt13__copy_move_aILb1EPPN8nlohmann16json_abi_v3_11_310basic_jsonISt3mapSt6vectorNSt7__cxx1112basic_stringIcSt11char_traitsIcESaIcEEEblmdSaNS1_14adl_serializerES4_IhSaIhEEvEESG_ET1_T0_SI_SH_
FN:538,544,_ZSt13__copy_move_aILb1EPcS0_ET1_T0_S2_S1_
FN:624,634,_ZSt4copyIN9__gnu_cxx17__normal_iteratorIPKhSt6vectorIhSaIhEEEEPhET0_T_SA_S9_
FN:624,634,_ZSt4copyIPmS0_ET0_T_S2_S1_
FN:624,634,_ZSt4copyISt13_Bit_iteratorS0_ET0_T_S2_S1_
FN:624,634,_ZSt4copyISt13move_iteratorIPPN8nlohmann16json_abi_v3_11_310basic_jsonISt3mapSt6vectorNSt7__cxx1112basic_stringIcSt11char_traitsIcESaIcEEEblmdSaNS2_14adl_serializerES5_IhSaIhEEvEEESH_ET0_T_SK_SJ_
FN:624,634,_ZSt4copyISt13move_iteratorIPcES1_ET0_T_S4_S3_
FN:624,634,_ZSt4copyISt19_Bit_const_iteratorSt13_Bit_iteratorET0_T_S3_S2_
FN:657,667,_ZSt4moveIN9__gnu_cxx17__normal_iteratorIPN8nlohmann16json_abi_v3_11_310basic_jsonISt3mapSt6vectorNSt7__cxx1112basic_stringIcSt11char_traitsIcESaIcEEEblmdSaNS3_14adl_serializerES6_IhSaIhEEvEES6_ISG_SaISG_EEEESK_ET0_T_SM_SL_
FN:657,667,_ZSt4moveIN9__gnu_cxx17__normal_iteratorIPN8nlohmann16json_abi_v3_11_310basic_jsonISt3mapSt6vectorNSt7__cxx1112basic_stringIcSt11char_traitsIcESaIcEEEblmdSaNS3_14adl_serializerES6_IhSaIhEEvEES6_ISG_SaISG_EEEESt20back_insert_iteratorISJ_EET0_T_SO_SN_
FN:710,717,_ZNSt20__copy_move_backwardILb0ELb0ESt26random_access_iterator_tagE13__copy_move_bISt13_Bit_iteratorS3_EET0_T_S5_S4_
FN:759,772,_ZSt23__copy_move_backward_a2ILb0ESt13_Bit_iteratorS0_ET1_T0_S2_S1_
FN:777,778,_ZSt23__copy_move_backward_a1ILb0ESt13_Bit_iteratorS0_ET1_T0_S2_S1_
FN:805,811,_ZSt22__copy_move_backward_aILb0ESt13_Bit_iteratorS0_ET1_T0_S2_S1_
FN:857,868,_ZSt13copy_backwardISt13_Bit_iteratorS0_ET0_T_S2_S1_
FN:93,109,_ZSt8__memcmpIhhEiPKT_PKT0_m
FNDA:0,_ZNSt7__equalILb0EE5equalIPKN8nlohmann16json_abi_v3_11_310basic_jsonISt3mapSt6vectorNSt7__cxx1112basic_stringIcSt11char_traitsIcESaIcEEEblmdSaNS3_14adl_serializerES6_IhSaIhEEvEESI_EEbT_SJ_T0_
FNDA:0,_ZNSt7__equalILb0EE5equalISt23_Rb_tree_const_iteratorISt4pairIKNSt7__cxx1112basic_stringIcSt11char_traitsIcESaIcEEEN8nlohmann16json_abi_v3_11_310basic_jsonISt3mapSt6vectorS9_blmdSaNSC_14adl_serializerESF_IhSaIhEEvEEEESL_EEbT_SM_T0_
FNDA:0,_ZNSt7__equalILb1EE5equalIhEEbPKT_S4_S4_
FNDA:0,_ZSt12__equal_aux1IPKN8nlohmann16json_abi_v3_11_310basic_jsonISt3mapSt6vectorNSt7__cxx1112basic_stringIcSt11char_traitsIcESaIcEEEblmdSaNS1_14adl_serializerES4_IhSaIhEEvEESG_EbT_SH_T0_
FNDA:0,_ZSt12__equal_aux1IPKhS1_EbT_S2_T0_
FNDA:0,_ZSt12__equal_aux1ISt23_Rb_tree_const_iteratorISt4pairIKNSt7__cxx1112basic_stringIcSt11char_traitsIcESaIcEEEN8nlohmann16json_abi_v3_11_310basic_jsonISt3mapSt6vectorS7_blmdSaNSA_14adl_serializerESD_IhSaIhEEvEEEESJ_EbT_SK_T0_
FNDA:0,_ZSt11__equal_auxIN9__gnu_cxx17__normal_iteratorIPKN8nlohmann16json_abi_v3_11_310basic_jsonISt3mapSt6vectorNSt7__cxx1112basic_stringIcSt11char_traitsIcESaIcEEEblmdSaNS3_14adl_serializerES6_IhSaIhEEvEES6_ISG_SaISG_EEEESL_EbT_SM_T0_
FNDA:0,_ZSt11__equal_auxIN9__gnu_cxx17__normal_iteratorIPKhSt6vectorIhSaIhEEEES7_EbT_S8_T0_
FNDA:0,_ZSt11__equal_auxISt23_Rb_tree_const_iteratorISt4pairIKNSt7__cxx1112basic_stringIcSt11char_traitsIcESaIcEEEN8nlohmann16json_abi_v3_11_310basic_jsonISt3mapSt6vectorS7_blmdSaNSA_14adl_serializerESD_IhSaIhEEvEEEESJ_EbT_SK_T0_
FNDA:0,_ZSt5equalIN9__gnu_cxx17__normal_iteratorIPKN8nlohmann16json_abi_v3_11_310basic_jsonISt3mapSt6vectorNSt7__cxx1112basic_stringIcSt11char_traitsIcESaIcEEEblmdSaNS3_14adl_serializerES6_IhSaIhEEvEES6_ISG_SaISG_EEEESL_EbT_SM_T0_
FNDA:0,_ZSt5equalIN9__gnu_cxx17__normal_iteratorIPKhSt6vectorIhSaIhEEEES7_EbT_S8_T0_
FNDA:0,_ZSt5equalISt23_Rb_tree_const_iteratorISt4pairIKNSt7__cxx1112basic_stringIcSt11char_traitsIcESaIcEEEN8nlohmann16json_abi_v3_11_310basic_jsonISt3mapSt6vectorS7_blmdSaNSA_14adl_serializerESD_IhSaIhEEvEEEESJ_EbT_SK_T0_
FNDA:0,_ZSt9__find_ifIPKN8nlohmann16json_abi_v3_11_36detail8json_refINS1_10basic_jsonISt3mapSt6vectorNSt7__cxx1112basic_stringIcSt11char_traitsIcESaIcEEEblmdSaNS1_14adl_serializerES6_IhSaIhEEvEEEEN9__gnu_cxx5__ops12_Iter_negateIZNSG_C4ESt16initializer_listISH_EbNS2_7value_tEEUlRSI_E_EEET_ST_ST_T0_St26random_access_iterator_tag
FNDA:1202,_ZSt3minImERKT_S2_S2_
FNDA:562,_ZSt3maxImERKT_S2_S2_
FNDA:318,_ZSt12__niter_baseIPN8nlohmann16json_abi_v3_11_310basic_jsonISt3mapSt6vectorNSt7__cxx1112basic_stringIcSt11char_traitsIcESaIcEEEblmdSaNS1_14adl_serializerES4_IhSaIhEEvEEET_SG_
FNDA:1914,_ZSt12__niter_baseIPNSt7__cxx1112basic_stringIcSt11char_traitsIcESaIcEEEET_S7_
FNDA:228,_ZSt12__niter_baseIPPN8nlohmann16json_abi_v3_11_310basic_jsonISt3mapSt6vectorNSt7__cxx1112basic_stringIcSt11char_traitsIcESaIcEEEblmdSaNS1_14adl_serializerES4_IhSaIhEEvEEET_SH_
FNDA:564,_ZSt12__niter_baseIPcET_S1_
FNDA:0,_ZSt12__niter_baseIPhET_S1_
FNDA:42,_ZSt12__niter_baseIPmET_S1_
FNDA:56,_ZSt12__niter_baseISt13_Bit_iteratorET_S1_
FNDA:28,_ZSt12__niter_baseISt19_Bit_const_iteratorET_S1_
FNDA:12,_ZSt12__niter_baseISt20back_insert_iteratorISt6vectorIN8nlohmann16json_abi_v3_11_310basic_jsonISt3mapS1_NSt7__cxx1112basic_stringIcSt11char_traitsIcESaIcEEEblmdSaNS3_14adl_serializerES1_IhSaIhEEvEESaISF_EEEET_SJ_
FNDA:0,_ZSt12__niter_baseISt23_Rb_tree_const_iteratorISt4pairIKNSt7__cxx1112basic_stringIcSt11char_traitsIcESaIcEEEN8nlohmann16json_abi_v3_11_310basic_jsonISt3mapSt6vectorS7_blmdSaNSA_14adl_serializerESD_IhSaIhEEvEEEEET_SK_
FNDA:0,_ZSt12__niter_wrapIN9__gnu_cxx17__normal_iteratorIPN8nlohmann16json_abi_v3_11_310basic_jsonISt3mapSt6vectorNSt7__cxx1112basic_stringIcSt11char_traitsIcESaIcEEEblmdSaNS3_14adl_serializerES6_IhSaIhEEvEES6_ISG_SaISG_EEEESH_ET_SL_T0_
FNDA:0,_ZSt12__niter_wrapIPPN8nlohmann16json_abi_v3_11_310basic_jsonISt3mapSt6vectorNSt7__cxx1112basic_stringIcSt11char_traitsIcESaIcEEEblmdSaNS1_14adl_serializerES4_IhSaIhEEvEEET_RKSH_SH_
FNDA:0,_ZSt12__niter_wrapIPcET_RKS1_S1_
FNDA:0,_ZSt12__niter_wrapIPhET_RKS1_S1_
FNDA:14,_ZSt12__niter_wrapIPmET_RKS1_S1_
FNDA:28,_ZSt12__niter_wrapISt13_Bit_iteratorET_RKS1_S1_
FNDA:12,_ZSt12__niter_wrapISt20back_insert_iteratorISt6vectorIN8nlohmann16json_abi_v3_11_310basic_jsonISt3mapS1_NSt7__cxx1112basic_stringIcSt11char_traitsIcESaIcEEEblmdSaNS3_14adl_serializerES1_IhSaIhEEvEESaISF_EEEET_RKSJ_SJ_
FNDA:14,_ZNSt11__copy_moveILb0ELb0ESt26random_access_iterator_tagE8__copy_mISt13_Bit_iteratorS3_EET0_T_S5_S4_
FNDA:14,_ZNSt11__copy_moveILb0ELb0ESt26random_access_iterator_tagE8__copy_mISt19_Bit_const_iteratorSt13_Bit_iteratorEET0_T_S6_S5_
FNDA:0,_ZNSt11__copy_moveILb0ELb0ESt26random_access_iterator_tagE12__assign_oneIhKhEEvPT_PT0_
FNDA:0,_ZNSt11__copy_moveILb0ELb0ESt26random_access_iterator_tagE12__assign_oneImmEEvPT_PT0_
FNDA:0,_ZNSt11__copy_moveILb1ELb0ESt26random_access_iterator_tagE8__copy_mIPN8nlohmann16json_abi_v3_11_310basic_jsonISt3mapSt6vectorNSt7__cxx1112basic_stringIcSt11char_traitsIcESaIcEEEblmdSaNS4_14adl_serializerES7_IhSaIhEEvEESI_EET0_T_SK_SJ_
FNDA:12,_ZNSt11__copy_moveILb1ELb0ESt26random_access_iterator_tagE8__copy_mIPN8nlohmann16json_abi_v3_11_310basic_jsonISt3mapSt6vectorNSt7__cxx1112basic_stringIcSt11char_traitsIcESaIcEEEblmdSaNS4_14adl_serializerES7_IhSaIhEEvEESt20back_insert_iteratorIS7_ISH_SaISH_EEEEET0_T_SO_SN_
FNDA:0,_ZNSt11__copy_moveILb1ELb0ESt26random_access_iterator_tagE12__assign_oneIPN8nlohmann16json_abi_v3_11_310basic_jsonISt3mapSt6vectorNSt7__cxx1112basic_stringIcSt11char_traitsIcESaIcEEEblmdSaNS4_14adl_serializerES7_IhSaIhEEvEESI_EEvPT_PT0_
FNDA:0,_ZNSt11__copy_moveILb1ELb0ESt26random_access_iterator_tagE12__assign_oneIccEEvPT_PT0_
FNDA:0,_ZNSt11__copy_moveILb0ELb1ESt26random_access_iterator_tagE8__copy_mIKhhEEPT0_PT_S7_S5_
FNDA:14,_ZNSt11__copy_moveILb0ELb1ESt26random_access_iterator_tagE8__copy_mImmEEPT0_PT_S6_S4_
FNDA:0,_ZNSt11__copy_moveILb1ELb1ESt26random_access_iterator_tagE8__copy_mIPN8nlohmann16json_abi_v3_11_310basic_jsonISt3mapSt6vectorNSt7__cxx1112basic_stringIcSt11char_traitsIcESaIcEEEblmdSaNS4_14adl_serializerES7_IhSaIhEEvEESI_EEPT0_PT_SM_SK_
FNDA:0,_ZNSt11__copy_moveILb1ELb1ESt26random_access_iterator_tagE8__copy_mIccEEPT0_PT_S6_S4_
FNDA:0,_ZSt14__copy_move_a2ILb0EPKhPhET1_T0_S4_S3_
FNDA:14,_ZSt14__copy_move_a2ILb0EPmS0_ET1_T0_S2_S1_
FNDA:14,_ZSt14__copy_move_a2ILb0ESt13_Bit_iteratorS0_ET1_T0_S2_S1_
FNDA:14,_ZSt14__copy_move_a2ILb0ESt19_Bit_const_iteratorSt13_Bit_iteratorET1_T0_S3_S2_
FNDA:0,_ZSt14__copy_move_a2ILb1EPN8nlohmann16json_abi_v3_11_310basic_jsonISt3mapSt6vectorNSt7__cxx1112basic_stringIcSt11char_traitsIcESaIcEEEblmdSaNS1_14adl_serializerES4_IhSaIhEEvEESF_ET1_T0_SH_SG_
FNDA:12,_ZSt14__copy_move_a2ILb1EPN8nlohmann16json_abi_v3_11_310basic_jsonISt3mapSt6vectorNSt7__cxx1112basic_stringIcSt11char_traitsIcESaIcEEEblmdSaNS1_14adl_serializerES4_IhSaIhEEvEESt20back_insert_iteratorIS4_ISE_SaISE_EEEET1_T0_SL_SK_
FNDA:0,_ZSt14__copy_move_a2ILb1EPPN8nlohmann16json_abi_v3_11_310basic_jsonISt3mapSt6vectorNSt7__cxx1112basic_stringIcSt11char_traitsIcESaIcEEEblmdSaNS1_14adl_serializerES4_IhSaIhEEvEESG_ET1_T0_SI_SH_
FNDA:0,_ZSt14__copy_move_a2ILb1EPcS0_ET1_T0_S2_S1_
FNDA:0,_ZSt14__copy_move_a1ILb0EPKhPhET1_T0_S4_S3_
FNDA:14,_ZSt14__copy_move_a1ILb0EPmS0_ET1_T0_S2_S1_
FNDA:14,_ZSt14__copy_move_a1ILb0ESt13_Bit_iteratorS0_ET1_T0_S2_S1_
FNDA:14,_ZSt14__copy_move_a1ILb0ESt19_Bit_const_iteratorSt13_Bit_iteratorET1_T0_S3_S2_
FNDA:0,_ZSt14__copy_move_a1ILb1EPN8nlohmann16json_abi_v3_11_310basic_jsonISt3mapSt6vectorNSt7__cxx1112basic_stringIcSt11char_traitsIcESaIcEEEblmdSaNS1_14adl_serializerES4_IhSaIhEEvEESF_ET1_T0_SH_SG_
FNDA:12,_ZSt14__copy_move_a1ILb1EPN8nlohmann16json_abi_v3_11_310basic_jsonISt3mapSt6vectorNSt7__cxx1112basic_stringIcSt11char_traitsIcESaIcEEEblmdSaNS1_14adl_serializerES4_IhSaIhEEvEESt20back_insert_iteratorIS4_ISE_SaISE_EEEET1_T0_SL_SK_
FNDA:0,_ZSt14__copy_move_a1ILb1EPPN8nlohmann16json_abi_v3_11_310basic_jsonISt3mapSt6vectorNSt7__cxx1112basic_stringIcSt11char_traitsIcESaIcEEEblmdSaNS1_14adl_serializerES4_IhSaIhEEvEESG_ET1_T0_SI_SH_
FNDA:0,_ZSt14__copy_move_a1ILb1EPcS0_ET1_T0_S2_S1_
FNDA:0,_ZSt13__copy_move_aILb0EN9__gnu_cxx17__normal_iteratorIPKhSt6vectorIhSaIhEEEEPhET1_T0_SA_S9_
FNDA:14,_ZSt13__copy_move_aILb0EPmS0_ET1_T0_S2_S1_
FNDA:14,_ZSt13__copy_move_aILb0ESt13_Bit_iteratorS0_ET1_T0_S2_S1_
FNDA:14,_ZSt13__copy_move_aILb0ESt19_Bit_const_iteratorSt13_Bit_iteratorET1_T0_S3_S2_
FNDA:0,_ZSt13__copy_move_aILb1EN9__gnu_cxx17__normal_iteratorIPN8nlohmann16json_abi_v3_11_310basic_jsonISt3mapSt6vectorNSt7__cxx1112basic_stringIcSt11char_traitsIcESaIcEEEblmdSaNS3_14adl_serializerES6_IhSaIhEEvEES6_ISG_SaISG_EEEESK_ET1_T0_SM_SL_
FNDA:12,_ZSt13__copy_move_aILb1EN9__gnu_cxx17__normal_iteratorIPN8nlohmann16json_abi_v3_11_310basic_jsonISt3mapSt6vectorNSt7__cxx1112basic_stringIcSt11char_traitsIcESaIcEEEblmdSaNS3_14adl_serializerES6_IhSaIhEEvEES6_ISG_SaISG_EEEESt20back_insert_iteratorISJ_EET1_T0_SO_SN_
FNDA:0,_ZSt13__copy_move_aILb1EPPN8nlohmann16json_abi_v3_11_310basic_jsonISt3mapSt6vectorNSt7__cxx1112basic_stringIcSt11char_traitsIcESaIcEEEblmdSaNS1_14adl_serializerES4_IhSaIhEEvEESG_ET1_T0_SI_SH_
FNDA:0,_ZSt13__copy_move_aILb1EPcS0_ET1_T0_S2_S1_
FNDA:0,_ZSt4copyIN9__gnu_cxx17__normal_iteratorIPKhSt6vectorIhSaIhEEEEPhET0_T_SA_S9_
FNDA:14,_ZSt4copyIPmS0_ET0_T_S2_S1_
FNDA:14,_ZSt4copyISt13_Bit_iteratorS0_ET0_T_S2_S1_
FNDA:0,_ZSt4copyISt13move_iteratorIPPN8nlohmann16json_abi_v3_11_310basic_jsonISt3mapSt6vectorNSt7__cxx1112basic_stringIcSt11char_traitsIcESaIcEEEblmdSaNS2_14adl_serializerES5_IhSaIhEEvEEESH_ET0_T_SK_SJ_
FNDA:0,_ZSt4copyISt13move_iteratorIPcES1_ET0_T_S4_S3_
FNDA:14,_ZSt4copyISt19_Bit_const_iteratorSt13_Bit_iteratorET0_T_S3_S2_
FNDA:0,_ZSt4moveIN9__gnu_cxx17__normal_iteratorIPN8nlohmann16json_abi_v3_11_310basic_jsonISt3mapSt6vectorNSt7__cxx1112basic_stringIcSt11char_traitsIcESaIcEEEblmdSaNS3_14adl_serializerES6_IhSaIhEEvEES6_ISG_SaISG_EEEESK_ET0_T_SM_SL_
FNDA:12,_ZSt4moveIN9__gnu_cxx17__normal_iteratorIPN8nlohmann16json_abi_v3_11_310basic_jsonISt3mapSt6vectorNSt7__cxx1112basic_stringIcSt11char_traitsIcESaIcEEEblmdSaNS3_14adl_serializerES6_IhSaIhEEvEES6_ISG_SaISG_EEEESt20back_insert_iteratorISJ_EET0_T_SO_SN_
FNDA:0,_ZNSt20__copy_move_backwardILb0ELb0ESt26random_access_iterator_tagE13__copy_move_bISt13_Bit_iteratorS3_EET0_T_S5_S4_
FNDA:0,_ZSt23__copy_move_backward_a2ILb0ESt13_Bit_iteratorS0_ET1_T0_S2_S1_
FNDA:0,_ZSt23__copy_move_backward_a1ILb0ESt13_Bit_iteratorS0_ET1_T0_S2_S1_
FNDA:0,_ZSt22__copy_move_backward_aILb0ESt13_Bit_iteratorS0_ET1_T0_S2_S1_
FNDA:0,_ZSt13copy_backwardISt13_Bit_iteratorS0_ET0_T_S2_S1_
FNDA:0,_ZSt8__memcmpIhhEiPKT_PKT0_m
FNF:82
FNH:33
DA:93,0
DA:108,0
DA:233,1202
DA:238,1202
DA:239,0
DA:240,1202
DA:257,562
DA:262,562
DA:263,153
DA:264,409
DA:316,3162
DA:318,3162
DA:331,0
DA:332,0
DA:338,54
DA:339,54
DA:383,28
DA:386,28
DA:388,0
DA:389,0
DA:390,0
DA:392,28
DA:397,0
DA:398,0
DA:408,12
DA:411,36
DA:413,24
DA:414,24
DA:415,24
DA:417,12
DA:422,0
DA:423,0
DA:433,14
DA:435,14
DA:436,14
DA:437,0
DA:438,14
DA:440,0
DA:441,14
DA:497,54
DA:506,54
DA:532,54
DA:533,54
DA:538,54
DA:540,54
DA:543,54
DA:624,42
DA:633,42
DA:657,12
DA:665,12
DA:666,12
DA:710,0
DA:713,0
DA:714,0
DA:715,0
DA:716,0
DA:759,0
DA:769,0
DA:771,0
DA:777,0
DA:778,0
DA:805,0
DA:807,0
DA:810,0
DA:857,0
DA:867,0
DA:1167,0
DA:1169,0
DA:1170,0
DA:1171,0
DA:1172,0
DA:1182,0
DA:1184,0
DA:1185,0
DA:1186,0
DA:1213,0
DA:1216,0
DA:1219,0
DA:1225,0
DA:1227,0
DA:1229,0
DA:1547,0
DA:1557,0
DA:2064,0
DA:2068,0
DA:2070,0
DA:2072,0
DA:2073,0
DA:2074,0
DA:2076,0
DA:2077,0
DA:2078,0
DA:2080,0
DA:2081,0
DA:2082,0
DA:2084,0
DA:2085,0
DA:2086,0
DA:2089,0
DA:2091,0
DA:2092,0
DA:2093,0
DA:2094,0
DA:2096,0
DA:2097,0
DA:2098,0
DA:2099,0
DA:2101,0
DA:2102,0
DA:2103,0
DA:2104,0
DA:2106,0
DA:2108,0
LF:113
LH:37
end_of_record
TN:
SF:/usr/include/c++/13/bits/stl_bvector.h
FN:1000,1001,_ZNKSt6vectorIbSaIbEE5beginEv
FN:1005,1006,_ZNSt6vectorIbSaIbEE3endEv
FN:1010,1011,_ZNKSt6vectorIbSaIbEE3endEv
FN:104,111,_ZNSt14_Bit_referenceaSEb
FN:1057,1058,_ZNKSt6vectorIbSaIbEE4sizeEv
FN:1062,1071,_ZNKSt6vectorIbSaIbEE8max_sizeEv
FN:1081,1082,_ZNKSt6vectorIbSaIbEE5emptyEv
FN:1145,1146,_ZNSt6vectorIbSaIbEE4backEv
FN:1155,1161,_ZNSt6vectorIbSaIbEE9push_backEb
FN:1260,1261,_ZNSt6vectorIbSaIbEE8pop_backEv
FN:127,128,_ZNSt14_Bit_referenceaSERKS_
FN:1339,1345,_ZNSt6vectorIbSaIbEE15_M_copy_alignedESt19_Bit_const_iteratorS2_St13_Bit_iterator
FN:1530,1537,_ZNKSt6vectorIbSaIbEE12_M_check_lenEmPKc
FN:195,196,_ZNSt18_Bit_iterator_baseC2EPmj
FN:200,208,_ZNSt18_Bit_iterator_base10_M_bump_upEv
FN:212,220,_ZNSt18_Bit_iterator_base12_M_bump_downEv
FN:224,236,_ZNSt18_Bit_iterator_base7_M_incrEl
FN:240,245,_ZSteqRKSt18_Bit_iterator_baseS1_
FN:292,298,_ZStmiRKSt18_Bit_iterator_baseS1_
FN:313,313,_ZNSt13_Bit_iteratorC2Ev
FN:316,317,_ZNSt13_Bit_iteratorC2EPmj
FN:326,330,_ZNKSt13_Bit_iteratordeEv
FN:334,338,_ZNSt13_Bit_iteratorppEv
FN:342,347,_ZNSt13_Bit_iteratorppEi
FN:351,355,_ZNSt13_Bit_iteratormmEv
FN:368,372,_ZNSt13_Bit_iteratorpLEl
FN:376,380,_ZNSt13_Bit_iteratormIEl
FN:389,394,_ZStplRKSt13_Bit_iteratorl
FN:403,408,_ZStmiRKSt13_Bit_iteratorl
FN:426,427,_ZNSt19_Bit_const_iteratorC2EPmj
FN:430,431,_ZNSt19_Bit_const_iteratorC2ERKSt13_Bit_iterator
FN:440,444,_ZNKSt19_Bit_const_iteratordeEv
FN:448,452,_ZNSt19_Bit_const_iteratorppEv
FN:551,553,_ZNSt13_Bvector_baseISaIbEE18_Bvector_impl_dataC2Ev
FN:577,578,_ZNSt13_Bvector_baseISaIbEE18_Bvector_impl_data8_M_resetEv
FN:594,600,_ZNSt13_Bvector_baseISaIbEE13_Bvector_implC2Ev
FN:623,628,_ZNKSt13_Bvector_baseISaIbEE13_Bvector_impl11_M_end_addrEv
FN:641,642,_ZNKSt13_Bvector_baseISaIbEE20_M_get_Bit_allocatorEv
FN:650,650,_ZNSt13_Bvector_baseISaIbEEC2Ev
FN:669,670,_ZNSt13_Bvector_baseISaIbEED2Ev
FN:677,689,_ZNSt13_Bvector_baseISaIbEE11_M_allocateEm
FN:693,703,_ZNSt13_Bvector_baseISaIbEE13_M_deallocateEv
FN:714,715,_ZNSt13_Bvector_baseISaIbEE8_S_nwordEm
FN:777,777,_ZNSt6vectorIbSaIbEEC2Ev
FN:88,89,_ZNSt14_Bit_referenceC2EPmm
FN:890,890,_ZNSt6vectorIbSaIbEED2Ev
FN:99,100,_ZNKSt14_Bit_referencecvbEv
FN:995,996,_ZNSt6vectorIbSaIbEE5beginEv
FNDA:410,_ZNKSt6vectorIbSaIbEE5beginEv
FNDA:292,_ZNSt6vectorIbSaIbEE3endEv
FNDA:410,_ZNKSt6vectorIbSaIbEE3endEv
FNDA:80,_ZNSt14_Bit_referenceaSEb
FNDA:56,_ZNKSt6vectorIbSaIbEE4sizeEv
FNDA:28,_ZNKSt6vectorIbSaIbEE8max_sizeEv
FNDA:354,_ZNKSt6vectorIbSaIbEE5emptyEv
FNDA:264,_ZNSt6vectorIbSaIbEE4backEv
FNDA:80,_ZNSt6vectorIbSaIbEE9push_backEb
FNDA:78,_ZNSt6vectorIbSaIbEE8pop_backEv
FNDA:0,_ZNSt14_Bit_referenceaSERKS_
FNDA:14,_ZNSt6vectorIbSaIbEE15_M_copy_alignedESt19_Bit_const_iteratorS2_St13_Bit_iterator
FNDA:14,_ZNKSt6vectorIbSaIbEE12_M_check_lenEmPKc
FNDA:960,_ZNSt18_Bit_iterator_baseC2EPmj
FNDA:80,_ZNSt18_Bit_iterator_base10_M_bump_upEv
FNDA:78,_ZNSt18_Bit_iterator_base12_M_bump_downEv
FNDA:264,_ZNSt18_Bit_iterator_base7_M_incrEl
FNDA:354,_ZSteqRKSt18_Bit_iterator_baseS1_
FNDA:84,_ZStmiRKSt18_Bit_iterator_baseS1_
FNDA:56,_ZNSt13_Bit_iteratorC2Ev
FNDA:42,_ZNSt13_Bit_iteratorC2EPmj
FNDA:344,_ZNKSt13_Bit_iteratordeEv
FNDA:0,_ZNSt13_Bit_iteratorppEv
FNDA:80,_ZNSt13_Bit_iteratorppEi
FNDA:78,_ZNSt13_Bit_iteratormmEv
FNDA:264,_ZNSt13_Bit_iteratorpLEl
FNDA:264,_ZNSt13_Bit_iteratormIEl
FNDA:0,_ZStplRKSt13_Bit_iteratorl
FNDA:264,_ZStmiRKSt13_Bit_iteratorl
FNDA:424,_ZNSt19_Bit_const_iteratorC2EPmj
FNDA:438,_ZNSt19_Bit_const_iteratorC2ERKSt13_Bit_iterator
FNDA:0,_ZNKSt19_Bit_const_iteratordeEv
FNDA:0,_ZNSt19_Bit_const_iteratorppEv
FNDA:28,_ZNSt13_Bvector_baseISaIbEE18_Bvector_impl_dataC2Ev
FNDA:14,_ZNSt13_Bvector_baseISaIbEE18_Bvector_impl_data8_M_resetEv
FNDA:14,_ZNSt13_Bvector_baseISaIbEE13_Bvector_implC2Ev
FNDA:108,_ZNKSt13_Bvector_baseISaIbEE13_Bvector_impl11_M_end_addrEv
FNDA:28,_ZNKSt13_Bvector_baseISaIbEE20_M_get_Bit_allocatorEv
FNDA:14,_ZNSt13_Bvector_baseISaIbEEC2Ev
FNDA:14,_ZNSt13_Bvector_baseISaIbEED2Ev
FNDA:14,_ZNSt13_Bvector_baseISaIbEE11_M_allocateEm
FNDA:28,_ZNSt13_Bvector_baseISaIbEE13_M_deallocateEv
FNDA:28,_ZNSt13_Bvector_baseISaIbEE8_S_nwordEm
FNDA:14,_ZNSt6vectorIbSaIbEEC2Ev
FNDA:344,_ZNSt14_Bit_referenceC2EPmm
FNDA:14,_ZNSt6vectorIbSaIbEED2Ev
FNDA:264,_ZNKSt14_Bit_referencecvbEv
FNDA:14,_ZNSt6vectorIbSaIbEE5beginEv
FNF:48
FNH:43
DA:88,344
DA:89,344
DA:99,264
DA:100,264
DA:104,80
DA:106,80
DA:107,12
DA:109,68
DA:110,80
DA:127,0
DA:128,0
DA:189,1642
DA:190,438
DA:192,1642
DA:195,960
DA:196,960
DA:200,80
DA:203,80
DA:205,0
DA:206,0
DA:208,80
DA:212,78
DA:215,78
DA:217,0
DA:218,0
DA:220,78
DA:224,264
DA:227,264
DA:228,264
DA:229,264
DA:230,264
DA:232,0
DA:233,0
DA:235,264
DA:236,264
DA:240,354
DA:244,354
DA:292,84
DA:296,84
DA:297,84
DA:313,56
DA:316,42
DA:317,42
DA:326,344
DA:328,344
DA:329,344
DA:334,0
DA:336,0
DA:337,0
DA:342,80
DA:344,80
DA:345,80
DA:346,80
DA:351,78
DA:353,78
DA:354,78
DA:368,264
DA:370,264
DA:371,264
DA:376,264
DA:378,264
DA:379,264
DA:389,0
DA:391,0
DA:392,0
DA:393,0
DA:403,264
DA:405,264
DA:406,264
DA:407,264
DA:426,424
DA:427,424
DA:430,438
DA:431,438
DA:440,0
DA:442,0
DA:443,0
DA:448,0
DA:450,0
DA:451,0
DA:551,28
DA:552,28
DA:553,28
DA:577,14
DA:578,14
DA:594,14
DA:599,14
DA:600,14
DA:623,108
DA:625,108
DA:626,80
DA:627,28
DA:641,28
DA:642,28
DA:650,14
DA:669,14
DA:670,14
DA:677,14
DA:679,14
DA:688,14
DA:693,28
DA:695,28
DA:697,14
DA:698,14
DA:699,14
DA:701,14
DA:703,28
DA:714,28
DA:715,28
DA:777,14
DA:890,14
DA:995,14
DA:996,14
DA:1000,410
DA:1001,410
DA:1005,292
DA:1006,292
DA:1010,410
DA:1011,410
DA:1057,56
DA:1058,56
DA:1062,28
DA:1064,28
DA:1068,28
DA:1070,28
DA:1081,354
DA:1082,354
DA:1145,264
DA:1146,264
DA:1155,80
DA:1157,80
DA:1158,66
DA:1160,14
DA:1161,80
DA:1260,78
DA:1261,78
DA:1339,14
DA:1342,14
DA:1343,28
DA:1344,28
DA:1530,14
DA:1532,14
DA:1533,0
DA:1535,14
DA:1536,14
LF:145
LH:123
end_of_record
TN:
SF:/usr/include/c++/13/bits/stl_construct.h
FN:109,120,_ZSt10_ConstructIN8nlohmann16json_abi_v3_11_310basic_jsonISt3mapSt6vectorNSt7__cxx1112basic_stringIcSt11char_traitsIcESaIcEEEblmdSaNS1_14adl_serializerES4_IhSaIhEEvEEJEEvPT_DpOT0_
FN:109,120,_ZSt10_ConstructIN8nlohmann16json_abi_v3_11_310basic_jsonISt3mapSt6vectorNSt7__cxx1112basic_stringIcSt11char_traitsIcESaIcEEEblmdSaNS1_14adl_serializerES4_IhSaIhEEvEEJRKNS1_6detail8json_refISE_EEEEvPT_DpOT0_
FN:109,120,_ZSt10_ConstructIN8nlohmann16json_abi_v3_11_310basic_jsonISt3mapSt6vectorNSt7__cxx1112basic_stringIcSt11char_traitsIcESaIcEEEblmdSaNS1_14adl_serializerES4_IhSaIhEEvEEJRKSE_EEvPT_DpOT0_
FN:109,120,_ZSt10_ConstructIN8nlohmann16json_abi_v3_11_310basic_jsonISt3mapSt6vectorNSt7__cxx1112basic_stringIcSt11char_traitsIcESaIcEEEblmdSaNS1_14adl_serializerES4_IhSaIhEEvEEJSE_EEvPT_DpOT0_
FN:109,120,_ZSt10_ConstructIN8nlohmann16json_abi_v3_11_36detail21output_stream_adapterIcEEJRSoEEvPT_DpOT0_
FN:109,120,_ZSt10_ConstructIN8nlohmann16json_abi_v3_11_36detail21output_string_adapterIcNSt7__cxx1112basic_stringIcSt11char_traitsIcESaIcEEEEEJRS9_EEvPT_DpOT0_
FN:109,120,_ZSt10_ConstructINSt7__cxx1112basic_stringIcSt11char_traitsIcESaIcEEEJRKPKcEEvPT_DpOT0_
FN:109,120,_ZSt10_ConstructINSt7__cxx1112basic_stringIcSt11char_traitsIcESaIcEEEJS5_EEvPT_DpOT0_
FN:146,153,_ZSt8_DestroyIN8nlohmann16json_abi_v3_11_310basic_jsonISt3mapSt6vectorNSt7__cxx1112basic_stringIcSt11char_traitsIcESaIcEEEblmdSaNS1_14adl_serializerES4_IhSaIhEEvEEEvPT_
FN:146,153,_ZSt8_DestroyIN8nlohmann16json_abi_v3_11_36detail21output_stream_adapterIcEEEvPT_
FN:146,153,_ZSt8_DestroyIN8nlohmann16json_abi_v3_11_36detail21output_string_adapterIcNSt7__cxx1112basic_stringIcSt11char_traitsIcESaIcEEEEEEvPT_
FN:146,153,_ZSt8_DestroyINSt7__cxx1112basic_stringIcSt11char_traitsIcESaIcEEEEvPT_
FN:160,164,_ZNSt12_Destroy_auxILb0EE9__destroyIPN8nlohmann16json_abi_v3_11_310basic_jsonISt3mapSt6vectorNSt7__cxx1112basic_stringIcSt11char_traitsIcESaIcEEEblmdSaNS3_14adl_serializerES6_IhSaIhEEvEEEEvT_SI_
FN:160,164,_ZNSt12_Destroy_auxILb0EE9__destroyIPNSt7__cxx1112basic_stringIcSt11char_traitsIcESaIcEEEEEvT_S9_
FN:172,172,_ZNSt12_Destroy_auxILb1EE9__destroyIPPN8nlohmann16json_abi_v3_11_310basic_jsonISt3mapSt6vectorNSt7__cxx1112basic_stringIcSt11char_traitsIcESaIcEEEblmdSaNS3_14adl_serializerES6_IhSaIhEEvEEEEvT_SJ_
FN:172,172,_ZNSt12_Destroy_auxILb1EE9__destroyIPcEEvT_S3_
FN:172,172,_ZNSt12_Destroy_auxILb1EE9__destroyIPhEEvT_S3_
FN:182,197,_ZSt8_DestroyIPN8nlohmann16json_abi_v3_11_310basic_jsonISt3mapSt6vectorNSt7__cxx1112basic_stringIcSt11char_traitsIcESaIcEEEblmdSaNS1_14adl_serializerES4_IhSaIhEEvEEEvT_SG_
FN:182,197,_ZSt8_DestroyIPNSt7__cxx1112basic_stringIcSt11char_traitsIcESaIcEEEEvT_S7_
FN:182,197,_ZSt8_DestroyIPPN8nlohmann16json_abi_v3_11_310basic_jsonISt3mapSt6vectorNSt7__cxx1112basic_stringIcSt11char_traitsIcESaIcEEEblmdSaNS1_14adl_serializerES4_IhSaIhEEvEEEvT_SH_
FN:182,197,_ZSt8_DestroyIPcEvT_S1_
FN:182,197,_ZSt8_DestroyIPhEvT_S1_
FNDA:0,_ZSt10_ConstructIN8nlohmann16json_abi_v3_11_310basic_jsonISt3mapSt6vectorNSt7__cxx1112basic_stringIcSt11char_traitsIcESaIcEEEblmdSaNS1_14adl_serializerES4_IhSaIhEEvEEJEEvPT_DpOT0_
FNDA:0,_ZSt10_ConstructIN8nlohmann16json_abi_v3_11_310basic_jsonISt3mapSt6vectorNSt7__cxx1112basic_stringIcSt11char_traitsIcESaIcEEEblmdSaNS1_14adl_serializerES4_IhSaIhEEvEEJRKNS1_6detail8json_refISE_EEEEvPT_DpOT0_
FNDA:0,_ZSt10_ConstructIN8nlohmann16json_abi_v3_11_310basic_jsonISt3mapSt6vectorNSt7__cxx1112basic_stringIcSt11char_traitsIcESaIcEEEblmdSaNS1_14adl_serializerES4_IhSaIhEEvEEJRKSE_EEvPT_DpOT0_
FNDA:0,_ZSt10_ConstructIN8nlohmann16json_abi_v3_11_310basic_jsonISt3mapSt6vectorNSt7__cxx1112basic_stringIcSt11char_traitsIcESaIcEEEblmdSaNS1_14adl_serializerES4_IhSaIhEEvEEJSE_EEvPT_DpOT0_
FNDA:0,_ZSt10_ConstructIN8nlohmann16json_abi_v3_11_36detail21output_stream_adapterIcEEJRSoEEvPT_DpOT0_
FNDA:4,_ZSt10_ConstructIN8nlohmann16json_abi_v3_11_36detail21output_string_adapterIcNSt7__cxx1112basic_stringIcSt11char_traitsIcESaIcEEEEEJRS9_EEvPT_DpOT0_
FNDA:30,_ZSt10_ConstructINSt7__cxx1112basic_stringIcSt11char_traitsIcESaIcEEEJRKPKcEEvPT_DpOT0_
FNDA:0,_ZSt10_ConstructINSt7__cxx1112basic_stringIcSt11char_traitsIcESaIcEEEJS5_EEvPT_DpOT0_
FNDA:24,_ZSt8_DestroyIN8nlohmann16json_abi_v3_11_310basic_jsonISt3mapSt6vectorNSt7__cxx1112basic_stringIcSt11char_traitsIcESaIcEEEblmdSaNS1_14adl_serializerES4_IhSaIhEEvEEEvPT_
FNDA:0,_ZSt8_DestroyIN8nlohmann16json_abi_v3_11_36detail21output_stream_adapterIcEEEvPT_
FNDA:4,_ZSt8_DestroyIN8nlohmann16json_abi_v3_11_36detail21output_string_adapterIcNSt7__cxx1112basic_stringIcSt11char_traitsIcESaIcEEEEEEvPT_
FNDA:1835,_ZSt8_DestroyINSt7__cxx1112basic_stringIcSt11char_traitsIcESaIcEEEEvPT_
FNDA:92,_ZNSt12_Destroy_auxILb0EE9__destroyIPN8nlohmann16json_abi_v3_11_310basic_jsonISt3mapSt6vectorNSt7__cxx1112basic_stringIcSt11char_traitsIcESaIcEEEblmdSaNS3_14adl_serializerES6_IhSaIhEEvEEEEvT_SI_
FNDA:146,_ZNSt12_Destroy_auxILb0EE9__destroyIPNSt7__cxx1112basic_stringIcSt11char_traitsIcESaIcEEEEEvT_S9_
FNDA:14,_ZNSt12_Destroy_auxILb1EE9__destroyIPPN8nlohmann16json_abi_v3_11_310basic_jsonISt3mapSt6vectorNSt7__cxx1112basic_stringIcSt11char_traitsIcESaIcEEEblmdSaNS3_14adl_serializerES6_IhSaIhEEvEEEEvT_SJ_
FNDA:432,_ZNSt12_Destroy_auxILb1EE9__destroyIPcEEvT_S3_
FNDA:0,_ZNSt12_Destroy_auxILb1EE9__destroyIPhEEvT_S3_
FNDA:92,_ZSt8_DestroyIPN8nlohmann16json_abi_v3_11_310basic_jsonISt3mapSt6vectorNSt7__cxx1112basic_stringIcSt11char_traitsIcESaIcEEEblmdSaNS1_14adl_serializerES4_IhSaIhEEvEEEvT_SG_
FNDA:146,_ZSt8_DestroyIPNSt7__cxx1112basic_stringIcSt11char_traitsIcESaIcEEEEvT_S7_
FNDA:14,_ZSt8_DestroyIPPN8nlohmann16json_abi_v3_11_310basic_jsonISt3mapSt6vectorNSt7__cxx1112basic_stringIcSt11char_traitsIcESaIcEEEblmdSaNS1_14adl_serializerES4_IhSaIhEEvEEEvT_SH_
FNDA:432,_ZSt8_DestroyIPcEvT_S1_
FNDA:0,_ZSt8_DestroyIPhEvT_S1_
FNF:22
FNH:13
DA:109,34
DA:119,64
DA:120,34
DA:146,1863
DA:151,1863
DA:153,1863
DA:160,238
DA:162,2097
DA:163,1859
DA:164,238
DA:172,446
DA:182,684
DA:196,684
DA:197,684
LF:14
LH:14
end_of_record
TN:
SF:/usr/include/c++/13/bits/stl_function.h
FN:1182,1183,_ZNKSt10_Select1stISt4pairIKNSt7__cxx1112basic_stringIcSt11char_traitsIcESaIcEEEN8nlohmann16json_abi_v3_11_310basic_jsonISt3mapSt6vectorS6_blmdSaNS9_14adl_serializerESC_IhSaIhEEvEEEEclERKSH_
FN:589,595,_ZNKSt4lessIvEclIRA10_KcRKNSt7__cxx1112basic_stringIcSt11char_traitsIcESaIcEEEEEDTltcl7forwardIT_Efp_Ecl7forwardIT0_Efp0_EEOSD_OSE_
FN:589,595,_ZNKSt4lessIvEclIRA19_KcRKNSt7__cxx1112basic_stringIcSt11char_traitsIcESaIcEEEEEDTltcl7forwardIT_Efp_Ecl7forwardIT0_Efp0_EEOSD_OSE_
FN:589,595,_ZNKSt4lessIvEclIRA20_KcRKNSt7__cxx1112basic_stringIcSt11char_traitsIcESaIcEEEEEDTltcl7forwardIT_Efp_Ecl7forwardIT0_Efp0_EEOSD_OSE_
FN:589,595,_ZNKSt4lessIvEclIRA21_KcRKNSt7__cxx1112basic_stringIcSt11char_traitsIcESaIcEEEEEDTltcl7forwardIT_Efp_Ecl7forwardIT0_Efp0_EEOSD_OSE_
FN:589,595,_ZNKSt4lessIvEclIRA23_KcRKNSt7__cxx1112basic_stringIcSt11char_traitsIcESaIcEEEEEDTltcl7forwardIT_Efp_Ecl7forwardIT0_Efp0_EEOSD_OSE_
FN:589,595,_ZNKSt4lessIvEclIRA8_KcRKNSt7__cxx1112basic_stringIcSt11char_traitsIcESaIcEEEEEDTltcl7forwardIT_Efp_Ecl7forwardIT0_Efp0_EEOSD_OSE_
FN:589,595,_ZNKSt4lessIvEclIRKNSt7__cxx1112basic_stringIcSt11char_traitsIcESaIcEEERA10_KcEEDTltcl7forwardIT_Efp_Ecl7forwardIT0_Efp0_EEOSD_OSE_
FN:589,595,_ZNKSt4lessIvEclIRKNSt7__cxx1112basic_stringIcSt11char_traitsIcESaIcEEERA19_KcEEDTltcl7forwardIT_Efp_Ecl7forwardIT0_Efp0_EEOSD_OSE_
FN:589,595,_ZNKSt4lessIvEclIRKNSt7__cxx1112basic_stringIcSt11char_traitsIcESaIcEEERA20_KcEEDTltcl7forwardIT_Efp_Ecl7forwardIT0_Efp0_EEOSD_OSE_
FN:589,595,_ZNKSt4lessIvEclIRKNSt7__cxx1112basic_stringIcSt11char_traitsIcESaIcEEERA21_KcEEDTltcl7forwardIT_Efp_Ecl7forwardIT0_Efp0_EEOSD_OSE_
FN:589,595,_ZNKSt4lessIvEclIRKNSt7__cxx1112basic_stringIcSt11char_traitsIcESaIcEEERA23_KcEEDTltcl7forwardIT_Efp_Ecl7forwardIT0_Efp0_EEOSD_OSE_
FN:589,595,_ZNKSt4lessIvEclIRKNSt7__cxx1112basic_stringIcSt11char_traitsIcESaIcEEERA8_KcEEDTltcl7forwardIT_Efp_Ecl7forwardIT0_Efp0_EEOSD_OSE_
FN:589,595,_ZNKSt4lessIvEclIRKNSt7__cxx1112basic_stringIcSt11char_traitsIcESaIcEEES9_EEDTltcl7forwardIT_Efp_Ecl7forwardIT0_Efp0_EEOSA_OSB_
FN:607,608,_ZNSt4lessIvE6_S_cmpIRA10_KcRKNSt7__cxx1112basic_stringIcSt11char_traitsIcESaIcEEEEEDcOT_OT0_St17integral_constantIbLb0EE
FN:607,608,_ZNSt4lessIvE6_S_cmpIRA19_KcRKNSt7__cxx1112basic_stringIcSt11char_traitsIcESaIcEEEEEDcOT_OT0_St17integral_constantIbLb0EE
FN:607,608,_ZNSt4lessIvE6_S_cmpIRA20_KcRKNSt7__cxx1112basic_stringIcSt11char_traitsIcESaIcEEEEEDcOT_OT0_St17integral_constantIbLb0EE
FN:607,608,_ZNSt4lessIvE6_S_cmpIRA21_KcRKNSt7__cxx1112basic_stringIcSt11char_traitsIcESaIcEEEEEDcOT_OT0_St17integral_constantIbLb0EE
FN:607,608,_ZNSt4lessIvE6_S_cmpIRA23_KcRKNSt7__cxx1112basic_stringIcSt11char_traitsIcESaIcEEEEEDcOT_OT0_St17integral_constantIbLb0EE
FN:607,608,_ZNSt4lessIvE6_S_cmpIRA8_KcRKNSt7__cxx1112basic_stringIcSt11char_traitsIcESaIcEEEEEDcOT_OT0_St17integral_constantIbLb0EE
FN:607,608,_ZNSt4lessIvE6_S_cmpIRKNSt7__cxx1112basic_stringIcSt11char_traitsIcESaIcEEERA10_KcEEDcOT_OT0_St17integral_constantIbLb0EE
FN:607,608,_ZNSt4lessIvE6_S_cmpIRKNSt7__cxx1112basic_stringIcSt11char_traitsIcESaIcEEERA19_KcEEDcOT_OT0_St17integral_constantIbLb0EE
FN:607,608,_ZNSt4lessIvE6_S_cmpIRKNSt7__cxx1112basic_stringIcSt11char_traitsIcESaIcEEERA20_KcEEDcOT_OT0_St17integral_constantIbLb0EE
FN:607,608,_ZNSt4lessIvE6_S_cmpIRKNSt7__cxx1112basic_stringIcSt11char_traitsIcESaIcEEERA21_KcEEDcOT_OT0_St17integral_constantIbLb0EE
FN:607,608,_ZNSt4lessIvE6_S_cmpIRKNSt7__cxx1112basic_stringIcSt11char_traitsIcESaIcEEERA23_KcEEDcOT_OT0_St17integral_constantIbLb0EE
FN:607,608,_ZNSt4lessIvE6_S_cmpIRKNSt7__cxx1112basic_stringIcSt11char_traitsIcESaIcEEERA8_KcEEDcOT_OT0_St17integral_constantIbLb0EE
FN:607,608,_ZNSt4lessIvE6_S_cmpIRKNSt7__cxx1112basic_stringIcSt11char_traitsIcESaIcEEES9_EEDcOT_OT0_St17integral_constantIbLb0EE
FNDA:1872,_ZNKSt10_Select1stISt4pairIKNSt7__cxx1112basic_stringIcSt11char_traitsIcESaIcEEEN8nlohmann16json_abi_v3_11_310basic_jsonISt3mapSt6vectorS6_blmdSaNS9_14adl_serializerESC_IhSaIhEEvEEEEclERKSH_
FNDA:26,_ZNKSt4lessIvEclIRA10_KcRKNSt7__cxx1112basic_stringIcSt11char_traitsIcESaIcEEEEEDTltcl7forwardIT_Efp_Ecl7forwardIT0_Efp0_EEOSD_OSE_
FNDA:12,_ZNKSt4lessIvEclIRA19_KcRKNSt7__cxx1112basic_stringIcSt11char_traitsIcESaIcEEEEEDTltcl7forwardIT_Efp_Ecl7forwardIT0_Efp0_EEOSD_OSE_
FNDA:4,_ZNKSt4lessIvEclIRA20_KcRKNSt7__cxx1112basic_stringIcSt11char_traitsIcESaIcEEEEEDTltcl7forwardIT_Efp_Ecl7forwardIT0_Efp0_EEOSD_OSE_
FNDA:2,_ZNKSt4lessIvEclIRA21_KcRKNSt7__cxx1112basic_stringIcSt11char_traitsIcESaIcEEEEEDTltcl7forwardIT_Efp_Ecl7forwardIT0_Efp0_EEOSD_OSE_
FNDA:0,_ZNKSt4lessIvEclIRA23_KcRKNSt7__cxx1112basic_stringIcSt11char_traitsIcESaIcEEEEEDTltcl7forwardIT_Efp_Ecl7forwardIT0_Efp0_EEOSD_OSE_
FNDA:14,_ZNKSt4lessIvEclIRA8_KcRKNSt7__cxx1112basic_stringIcSt11char_traitsIcESaIcEEEEEDTltcl7forwardIT_Efp_Ecl7forwardIT0_Efp0_EEOSD_OSE_
FNDA:56,_ZNKSt4lessIvEclIRKNSt7__cxx1112basic_stringIcSt11char_traitsIcESaIcEEERA10_KcEEDTltcl7forwardIT_Efp_Ecl7forwardIT0_Efp0_EEOSD_OSE_
FNDA:32,_ZNKSt4lessIvEclIRKNSt7__cxx1112basic_stringIcSt11char_traitsIcESaIcEEERA19_KcEEDTltcl7forwardIT_Efp_Ecl7forwardIT0_Efp0_EEOSD_OSE_
FNDA:12,_ZNKSt4lessIvEclIRKNSt7__cxx1112basic_stringIcSt11char_traitsIcESaIcEEERA20_KcEEDTltcl7forwardIT_Efp_Ecl7forwardIT0_Efp0_EEOSD_OSE_
FNDA:6,_ZNKSt4lessIvEclIRKNSt7__cxx1112basic_stringIcSt11char_traitsIcESaIcEEERA21_KcEEDTltcl7forwardIT_Efp_Ecl7forwardIT0_Efp0_EEOSD_OSE_
FNDA:4,_ZNKSt4lessIvEclIRKNSt7__cxx1112basic_stringIcSt11char_traitsIcESaIcEEERA23_KcEEDTltcl7forwardIT_Efp_Ecl7forwardIT0_Efp0_EEOSD_OSE_
FNDA:30,_ZNKSt4lessIvEclIRKNSt7__cxx1112basic_stringIcSt11char_traitsIcESaIcEEERA8_KcEEDTltcl7forwardIT_Efp_Ecl7forwardIT0_Efp0_EEOSD_OSE_
FNDA:1138,_ZNKSt4lessIvEclIRKNSt7__cxx1112basic_stringIcSt11char_traitsIcESaIcEEES9_EEDTltcl7forwardIT_Efp_Ecl7forwardIT0_Efp0_EEOSA_OSB_
FNDA:26,_ZNSt4lessIvE6_S_cmpIRA10_KcRKNSt7__cxx1112basic_stringIcSt11char_traitsIcESaIcEEEEEDcOT_OT0_St17integral_constantIbLb0EE
FNDA:12,_ZNSt4lessIvE6_S_cmpIRA19_KcRKNSt7__cxx1112basic_stringIcSt11char_traitsIcESaIcEEEEEDcOT_OT0_St17integral_constantIbLb0EE
FNDA:4,_ZNSt4lessIvE6_S_cmpIRA20_KcRKNSt7__cxx1112basic_stringIcSt11char_traitsIcESaIcEEEEEDcOT_OT0_St17integral_constantIbLb0EE
FNDA:2,_ZNSt4lessIvE6_S_cmpIRA21_KcRKNSt7__cxx1112basic_stringIcSt11char_traitsIcESaIcEEEEEDcOT_OT0_St17integral_constantIbLb0EE
FNDA:0,_ZNSt4lessIvE6_S_cmpIRA23_KcRKNSt7__cxx1112basic_stringIcSt11char_traitsIcESaIcEEEEEDcOT_OT0_St17integral_constantIbLb0EE
FNDA:14,_ZNSt4lessIvE6_S_cmpIRA8_KcRKNSt7__cxx1112basic_stringIcSt11char_traitsIcESaIcEEEEEDcOT_OT0_St17integral_constantIbLb0EE
FNDA:56,_ZNSt4lessIvE6_S_cmpIRKNSt7__cxx1112basic_stringIcSt11char_traitsIcESaIcEEERA10_KcEEDcOT_OT0_St17integral_constantIbLb0EE
FNDA:32,_ZNSt4lessIvE6_S_cmpIRKNSt7__cxx1112basic_stringIcSt11char_traitsIcESaIcEEERA19_KcEEDcOT_OT0_St17integral_constantIbLb0EE
FNDA:12,_ZNSt4lessIvE6_S_cmpIRKNSt7__cxx1112basic_stringIcSt11char_traitsIcESaIcEEERA20_KcEEDcOT_OT0_St17integral_constantIbLb0EE
FNDA:6,_ZNSt4lessIvE6_S_cmpIRKNSt7__cxx1112basic_stringIcSt11char_traitsIcESaIcEEERA21_KcEEDcOT_OT0_St17integral_constantIbLb0EE
FNDA:4,_ZNSt4lessIvE6_S_cmpIRKNSt7__cxx1112basic_stringIcSt11char_traitsIcESaIcEEERA23_KcEEDcOT_OT0_St17integral_constantIbLb0EE
FNDA:30,_ZNSt4lessIvE6_S_cmpIRKNSt7__cxx1112basic_stringIcSt11char_traitsIcESaIcEEERA8_KcEEDcOT_OT0_St17integral_constantIbLb0EE
FNDA:1138,_ZNSt4lessIvE6_S_cmpIRKNSt7__cxx1112basic_stringIcSt11char_traitsIcESaIcEEES9_EEDcOT_OT0_St17integral_constantIbLb0EE
FNF:27
FNH:25
DA:589,1336
DA:593,2672
DA:594,1534
DA:607,1336
DA:608,1336
DA:1182,1872
DA:1183,1872
LF:7
LH:7
end_of_record
TN:
SF:/usr/include/c++/13/bits/stl_iterator.h
FN:1072,1073,_ZN9__gnu_cxx17__normal_iteratorIPN8nlohmann16json_abi_v3_11_310basic_jsonISt3mapSt6vectorNSt7__cxx1112basic_stringIcSt11char_traitsIcESaIcEEEblmdSaNS2_14adl_serializerES5_IhSaIhEEvEES5_ISF_SaISF_EEEC2Ev
FN:1076,1077,_ZN9__gnu_cxx17__normal_iteratorIPKN8nlohmann16json_abi_v3_11_310basic_jsonISt3mapSt6vectorNSt7__cxx1112basic_stringIcSt11char_traitsIcESaIcEEEblmdSaNS2_14adl_serializerES5_IhSaIhEEvEES5_ISF_SaISF_EEEC2ERKSH_
FN:1076,1077,_ZN9__gnu_cxx17__normal_iteratorIPKNSt7__cxx1112basic_stringIcSt11char_traitsIcESaIcEEESt6vectorIS6_SaIS6_EEEC2ERKS8_
FN:1076,1077,_ZN9__gnu_cxx17__normal_iteratorIPKPN8nlohmann16json_abi_v3_11_310basic_jsonISt3mapSt6vectorNSt7__cxx1112basic_stringIcSt11char_traitsIcESaIcEEEblmdSaNS2_14adl_serializerES5_IhSaIhEEvEES5_ISG_SaISG_EEEC2ERKSI_
FN:1076,1077,_ZN9__gnu_cxx17__normal_iteratorIPKcSt6vectorIcSaIcEEEC2ERKS2_
FN:1076,1077,_ZN9__gnu_cxx17__normal_iteratorIPKhSt6vectorIhSaIhEEEC2ERKS2_
FN:1076,1077,_ZN9__gnu_cxx17__normal_iteratorIPN8nlohmann16json_abi_v3_11_310basic_jsonISt3mapSt6vectorNSt7__cxx1112basic_stringIcSt11char_traitsIcESaIcEEEblmdSaNS2_14adl_serializerES5_IhSaIhEEvEES5_ISF_SaISF_EEEC2ERKSG_
FN:1076,1077,_ZN9__gnu_cxx17__normal_iteratorIPNSt7__cxx1112basic_stringIcSt11char_traitsIcESaIcEEESt6vectorIS6_SaIS6_EEEC2ERKS7_
FN:1076,1077,_ZN9__gnu_cxx17__normal_iteratorIPPN8nlohmann16json_abi_v3_11_310basic_jsonISt3mapSt6vectorNSt7__cxx1112basic_stringIcSt11char_traitsIcESaIcEEEblmdSaNS2_14adl_serializerES5_IhSaIhEEvEES5_ISG_SaISG_EEEC2ERKSH_
FN:1076,1077,_ZN9__gnu_cxx17__normal_iteratorIPcSt6vectorIcSaIcEEEC2ERKS1_
FN:1076,1077,_ZN9__gnu_cxx17__normal_iteratorIPhSt6vectorIhSaIhEEEC2ERKS1_
FN:1083,1094,_ZN9__gnu_cxx17__normal_iteratorIPKN8nlohmann16json_abi_v3_11_310basic_jsonISt3mapSt6vectorNSt7__cxx1112basic_stringIcSt11char_traitsIcESaIcEEEblmdSaNS2_14adl_serializerES5_IhSaIhEEvEES5_ISF_SaISF_EEEC2IPSF_vEERKNS0_IT_SJ_EE
FN:1099,1100,_ZNK9__gnu_cxx17__normal_iteratorIPKN8nlohmann16json_abi_v3_11_310basic_jsonISt3mapSt6vectorNSt7__cxx1112basic_stringIcSt11char_traitsIcESaIcEEEblmdSaNS2_14adl_serializerES5_IhSaIhEEvEES5_ISF_SaISF_EEEdeEv
FN:1099,1100,_ZNK9__gnu_cxx17__normal_iteratorIPKcSt6vectorIcSaIcEEEdeEv
FN:1099,1100,_ZNK9__gnu_cxx17__normal_iteratorIPKhSt6vectorIhSaIhEEEdeEv
FN:1099,1100,_ZNK9__gnu_cxx17__normal_iteratorIPN8nlohmann16json_abi_v3_11_310basic_jsonISt3mapSt6vectorNSt7__cxx1112basic_stringIcSt11char_traitsIcESaIcEEEblmdSaNS2_14adl_serializerES5_IhSaIhEEvEES5_ISF_SaISF_EEEdeEv
FN:1099,1100,_ZNK9__gnu_cxx17__normal_iteratorIPNSt7__cxx1112basic_stringIcSt11char_traitsIcESaIcEEESt6vectorIS6_SaIS6_EEEdeEv
FN:1099,1100,_ZNK9__gnu_cxx17__normal_iteratorIPPN8nlohmann16json_abi_v3_11_310basic_jsonISt3mapSt6vectorNSt7__cxx1112basic_stringIcSt11char_traitsIcESaIcEEEblmdSaNS2_14adl_serializerES5_IhSaIhEEvEES5_ISG_SaISG_EEEdeEv
FN:1099,1100,_ZNK9__gnu_cxx17__normal_iteratorIPcNSt7__cxx1112basic_stringIcSt11char_traitsIcESaIcEEEEdeEv
FN:1099,1100,_ZNK9__gnu_cxx17__normal_iteratorIPhSt6vectorIhSaIhEEEdeEv
FN:1109,1113,_ZN9__gnu_cxx17__normal_iteratorIPKN8nlohmann16json_abi_v3_11_310basic_jsonISt3mapSt6vectorNSt7__cxx1112basic_stringIcSt11char_traitsIcESaIcEEEblmdSaNS2_14adl_serializerES5_IhSaIhEEvEES5_ISF_SaISF_EEEppEv
FN:1109,1113,_ZN9__gnu_cxx17__normal_iteratorIPKcSt6vectorIcSaIcEEEppEv
FN:1109,1113,_ZN9__gnu_cxx17__normal_iteratorIPKhSt6vectorIhSaIhEEEppEv
FN:1109,1113,_ZN9__gnu_cxx17__normal_iteratorIPNSt7__cxx1112basic_stringIcSt11char_traitsIcESaIcEEESt6vectorIS6_SaIS6_EEEppEv
FN:1109,1113,_ZN9__gnu_cxx17__normal_iteratorIPcNSt7__cxx1112basic_stringIcSt11char_traitsIcESaIcEEEEppEv
FN:1142,1143,_ZN9__gnu_cxx17__normal_iteratorIPN8nlohmann16json_abi_v3_11_310basic_jsonISt3mapSt6vectorNSt7__cxx1112basic_stringIcSt11char_traitsIcESaIcEEEblmdSaNS2_14adl_serializerES5_IhSaIhEEvEES5_ISF_SaISF_EEEpLEl
FN:1147,1148,_ZNK9__gnu_cxx17__normal_iteratorIPN8nlohmann16json_abi_v3_11_310basic_jsonISt3mapSt6vectorNSt7__cxx1112basic_stringIcSt11char_traitsIcESaIcEEEblmdSaNS2_14adl_serializerES5_IhSaIhEEvEES5_ISF_SaISF_EEEplEl
FN:1157,1158,_ZNK9__gnu_cxx17__normal_iteratorIPKN8nlohmann16json_abi_v3_11_310basic_jsonISt3mapSt6vectorNSt7__cxx1112basic_stringIcSt11char_traitsIcESaIcEEEblmdSaNS2_14adl_serializerES5_IhSaIhEEvEES5_ISF_SaISF_EEEmiEl
FN:1157,1158,_ZNK9__gnu_cxx17__normal_iteratorIPKhSt6vectorIhSaIhEEEmiEl
FN:1157,1158,_ZNK9__gnu_cxx17__normal_iteratorIPN8nlohmann16json_abi_v3_11_310basic_jsonISt3mapSt6vectorNSt7__cxx1112basic_stringIcSt11char_traitsIcESaIcEEEblmdSaNS2_14adl_serializerES5_IhSaIhEEvEES5_ISF_SaISF_EEEmiEl
FN:1157,1158,_ZNK9__gnu_cxx17__normal_iteratorIPNSt7__cxx1112basic_stringIcSt11char_traitsIcESaIcEEESt6vectorIS6_SaIS6_EEEmiEl
FN:1157,1158,_ZNK9__gnu_cxx17__normal_iteratorIPPN8nlohmann16json_abi_v3_11_310basic_jsonISt3mapSt6vectorNSt7__cxx1112basic_stringIcSt11char_traitsIcESaIcEEEblmdSaNS2_14adl_serializerES5_IhSaIhEEvEES5_ISG_SaISG_EEEmiEl
FN:1157,1158,_ZNK9__gnu_cxx17__normal_iteratorIPhSt6vectorIhSaIhEEEmiEl
FN:1162,1163,_ZNK9__gnu_cxx17__normal_iteratorIPKN8nlohmann16json_abi_v3_11_310basic_jsonISt3mapSt6vectorNSt7__cxx1112basic_stringIcSt11char_traitsIcESaIcEEEblmdSaNS2_14adl_serializerES5_IhSaIhEEvEES5_ISF_SaISF_EEE4baseEv
FN:1162,1163,_ZNK9__gnu_cxx17__normal_iteratorIPKNSt7__cxx1112basic_stringIcSt11char_traitsIcESaIcEEESt6vectorIS6_SaIS6_EEE4baseEv
FN:1162,1163,_ZNK9__gnu_cxx17__normal_iteratorIPKPN8nlohmann16json_abi_v3_11_310basic_jsonISt3mapSt6vectorNSt7__cxx1112basic_stringIcSt11char_traitsIcESaIcEEEblmdSaNS2_14adl_serializerES5_IhSaIhEEvEES5_ISG_SaISG_EEE4baseEv
FN:1162,1163,_ZNK9__gnu_cxx17__normal_iteratorIPKcSt6vectorIcSaIcEEE4baseEv
FN:1162,1163,_ZNK9__gnu_cxx17__normal_iteratorIPKhSt6vectorIhSaIhEEE4baseEv
FN:1162,1163,_ZNK9__gnu_cxx17__normal_iteratorIPN8nlohmann16json_abi_v3_11_310basic_jsonISt3mapSt6vectorNSt7__cxx1112basic_stringIcSt11char_traitsIcESaIcEEEblmdSaNS2_14adl_serializerES5_IhSaIhEEvEES5_ISF_SaISF_EEE4baseEv
FN:1162,1163,_ZNK9__gnu_cxx17__normal_iteratorIPNSt7__cxx1112basic_stringIcSt11char_traitsIcESaIcEEESt6vectorIS6_SaIS6_EEE4baseEv
FN:1162,1163,_ZNK9__gnu_cxx17__normal_iteratorIPPN8nlohmann16json_abi_v3_11_310basic_jsonISt3mapSt6vectorNSt7__cxx1112basic_stringIcSt11char_traitsIcESaIcEEEblmdSaNS2_14adl_serializerES5_IhSaIhEEvEES5_ISG_SaISG_EEE4baseEv
FN:1162,1163,_ZNK9__gnu_cxx17__normal_iteratorIPcNSt7__cxx1112basic_stringIcSt11char_traitsIcESaIcEEEE4baseEv
FN:1162,1163,_ZNK9__gnu_cxx17__normal_iteratorIPcSt6vectorIcSaIcEEE4baseEv
FN:1225,1228,_ZN9__gnu_cxxeqIPKN8nlohmann16json_abi_v3_11_310basic_jsonISt3mapSt6vectorNSt7__cxx1112basic_stringIcSt11char_traitsIcESaIcEEEblmdSaNS2_14adl_serializerES5_IhSaIhEEvEES5_ISF_SaISF_EEEEbRKNS_17__normal_iteratorIT_T0_EESP_
FN:1225,1228,_ZN9__gnu_cxxeqIPKNSt7__cxx1112basic_stringIcSt11char_traitsIcESaIcEEESt6vectorIS6_SaIS6_EEEEbRKNS_17__normal_iteratorIT_T0_EESH_
FN:1225,1228,_ZN9__gnu_cxxeqIPKPN8nlohmann16json_abi_v3_11_310basic_jsonISt3mapSt6vectorNSt7__cxx1112basic_stringIcSt11char_traitsIcESaIcEEEblmdSaNS2_14adl_serializerES5_IhSaIhEEvEES5_ISG_SaISG_EEEEbRKNS_17__normal_iteratorIT_T0_EESQ_
FN:1225,1228,_ZN9__gnu_cxxeqIPKcSt6vectorIcSaIcEEEEbRKNS_17__normal_iteratorIT_T0_EESB_
FN:1225,1228,_ZN9__gnu_cxxeqIPKhSt6vectorIhSaIhEEEEbRKNS_17__normal_iteratorIT_T0_EESB_
FN:1225,1228,_ZN9__gnu_cxxeqIPN8nlohmann16json_abi_v3_11_310basic_jsonISt3mapSt6vectorNSt7__cxx1112basic_stringIcSt11char_traitsIcESaIcEEEblmdSaNS2_14adl_serializerES5_IhSaIhEEvEES5_ISF_SaISF_EEEEbRKNS_17__normal_iteratorIT_T0_EESO_
FN:1241,1244,_ZN9__gnu_cxxneIPKN8nlohmann16json_abi_v3_11_310basic_jsonISt3mapSt6vectorNSt7__cxx1112basic_stringIcSt11char_traitsIcESaIcEEEblmdSaNS2_14adl_serializerES5_IhSaIhEEvEES5_ISF_SaISF_EEEEbRKNS_17__normal_iteratorIT_T0_EESP_
FN:1241,1244,_ZN9__gnu_cxxneIPKcSt6vectorIcSaIcEEEEbRKNS_17__normal_iteratorIT_T0_EESB_
FN:1241,1244,_ZN9__gnu_cxxneIPKhSt6vectorIhSaIhEEEEbRKNS_17__normal_iteratorIT_T0_EESB_
FN:1241,1244,_ZN9__gnu_cxxneIPN8nlohmann16json_abi_v3_11_310basic_jsonISt3mapSt6vectorNSt7__cxx1112basic_stringIcSt11char_traitsIcESaIcEEEblmdSaNS2_14adl_serializerES5_IhSaIhEEvEES5_ISF_SaISF_EEEEbRKNS_17__normal_iteratorIT_T0_EESO_
FN:1241,1244,_ZN9__gnu_cxxneIPNSt7__cxx1112basic_stringIcSt11char_traitsIcESaIcEEESt6vectorIS6_SaIS6_EEEEbRKNS_17__normal_iteratorIT_T0_EESG_
FN:1241,1244,_ZN9__gnu_cxxneIPcNSt7__cxx1112basic_stringIcSt11char_traitsIcESaIcEEEEEbRKNS_17__normal_iteratorIT_T0_EESD_
FN:1334,1337,_ZN9__gnu_cxxmiIPKN8nlohmann16json_abi_v3_11_310basic_jsonISt3mapSt6vectorNSt7__cxx1112basic_stringIcSt11char_traitsIcESaIcEEEblmdSaNS2_14adl_serializerES5_IhSaIhEEvEES5_ISF_SaISF_EEEENS_17__normal_iteratorIT_T0_E15difference_typeERKSN_SQ_
FN:1334,1337,_ZN9__gnu_cxxmiIPN8nlohmann16json_abi_v3_11_310basic_jsonISt3mapSt6vectorNSt7__cxx1112basic_stringIcSt11char_traitsIcESaIcEEEblmdSaNS2_14adl_serializerES5_IhSaIhEEvEES5_ISF_SaISF_EEEENS_17__normal_iteratorIT_T0_E15difference_typeERKSM_SP_
FN:1334,1337,_ZN9__gnu_cxxmiIPNSt7__cxx1112basic_stringIcSt11char_traitsIcESaIcEEESt6vectorIS6_SaIS6_EEEENS_17__normal_iteratorIT_T0_E15difference_typeERKSE_SH_
FN:1334,1337,_ZN9__gnu_cxxmiIPPN8nlohmann16json_abi_v3_11_310basic_jsonISt3mapSt6vectorNSt7__cxx1112basic_stringIcSt11char_traitsIcESaIcEEEblmdSaNS2_14adl_serializerES5_IhSaIhEEvEES5_ISG_SaISG_EEEENS_17__normal_iteratorIT_T0_E15difference_typeERKSN_SQ_
FN:1334,1337,_ZN9__gnu_cxxmiIPcSt6vectorIcSaIcEEEENS_17__normal_iteratorIT_T0_E15difference_typeERKS8_SB_
FN:1357,1359,_ZSt12__niter_baseIPKN8nlohmann16json_abi_v3_11_310basic_jsonISt3mapSt6vectorNSt7__cxx1112basic_stringIcSt11char_traitsIcESaIcEEEblmdSaNS1_14adl_serializerES4_IhSaIhEEvEES4_ISE_SaISE_EEET_N9__gnu_cxx17__normal_iteratorISJ_T0_EE
FN:1357,1359,_ZSt12__niter_baseIPKhSt6vectorIhSaIhEEET_N9__gnu_cxx17__normal_iteratorIS5_T0_EE
FN:1357,1359,_ZSt12__niter_baseIPN8nlohmann16json_abi_v3_11_310basic_jsonISt3mapSt6vectorNSt7__cxx1112basic_stringIcSt11char_traitsIcESaIcEEEblmdSaNS1_14adl_serializerES4_IhSaIhEEvEES4_ISE_SaISE_EEET_N9__gnu_cxx17__normal_iteratorISI_T0_EE
FN:1519,1520,_ZNSt13move_iteratorIPN8nlohmann16json_abi_v3_11_310basic_jsonISt3mapSt6vectorNSt7__cxx1112basic_stringIcSt11char_traitsIcESaIcEEEblmdSaNS1_14adl_serializerES4_IhSaIhEEvEEEC2ESF_
FN:1519,1520,_ZNSt13move_iteratorIPNSt7__cxx1112basic_stringIcSt11char_traitsIcESaIcEEEEC2ES6_
FN:1519,1520,_ZNSt13move_iteratorIPPN8nlohmann16json_abi_v3_11_310basic_jsonISt3mapSt6vectorNSt7__cxx1112basic_stringIcSt11char_traitsIcESaIcEEEblmdSaNS1_14adl_serializerES4_IhSaIhEEvEEEC2ESG_
FN:1519,1520,_ZNSt13move_iteratorIPcEC2ES0_
FN:1545,1546,_ZNKSt13move_iteratorIPN8nlohmann16json_abi_v3_11_310basic_jsonISt3mapSt6vectorNSt7__cxx1112basic_stringIcSt11char_traitsIcESaIcEEEblmdSaNS1_14adl_serializerES4_IhSaIhEEvEEE4baseEv
FN:1545,1546,_ZNKSt13move_iteratorIPNSt7__cxx1112basic_stringIcSt11char_traitsIcESaIcEEEE4baseEv
FN:1545,1546,_ZNKSt13move_iteratorIPPN8nlohmann16json_abi_v3_11_310basic_jsonISt3mapSt6vectorNSt7__cxx1112basic_stringIcSt11char_traitsIcESaIcEEEblmdSaNS1_14adl_serializerES4_IhSaIhEEvEEE4baseEv
FN:1545,1546,_ZNKSt13move_iteratorIPcE4baseEv
FN:1561,1565,_ZNKSt13move_iteratorIPN8nlohmann16json_abi_v3_11_310basic_jsonISt3mapSt6vectorNSt7__cxx1112basic_stringIcSt11char_traitsIcESaIcEEEblmdSaNS1_14adl_serializerES4_IhSaIhEEvEEEdeEv
FN:1561,1565,_ZNKSt13move_iteratorIPNSt7__cxx1112basic_stringIcSt11char_traitsIcESaIcEEEEdeEv
FN:1574,1578,_ZNSt13move_iteratorIPN8nlohmann16json_abi_v3_11_310basic_jsonISt3mapSt6vectorNSt7__cxx1112basic_stringIcSt11char_traitsIcESaIcEEEblmdSaNS1_14adl_serializerES4_IhSaIhEEvEEEppEv
FN:1574,1578,_ZNSt13move_iteratorIPNSt7__cxx1112basic_stringIcSt11char_traitsIcESaIcEEEEppEv
FN:1748,1750,_ZSteqIPN8nlohmann16json_abi_v3_11_310basic_jsonISt3mapSt6vectorNSt7__cxx1112basic_stringIcSt11char_traitsIcESaIcEEEblmdSaNS1_14adl_serializerES4_IhSaIhEEvEEEbRKSt13move_iteratorIT_ESK_
FN:1748,1750,_ZSteqIPNSt7__cxx1112basic_stringIcSt11char_traitsIcESaIcEEEEbRKSt13move_iteratorIT_ESB_
FN:1763,1765,_ZStneIPN8nlohmann16json_abi_v3_11_310basic_jsonISt3mapSt6vectorNSt7__cxx1112basic_stringIcSt11char_traitsIcESaIcEEEblmdSaNS1_14adl_serializerES4_IhSaIhEEvEEEbRKSt13move_iteratorIT_ESK_
FN:1763,1765,_ZStneIPNSt7__cxx1112basic_stringIcSt11char_traitsIcESaIcEEEEbRKSt13move_iteratorIT_ESB_
FN:1832,1833,_ZSt32__make_move_if_noexcept_iteratorIN8nlohmann16json_abi_v3_11_310basic_jsonISt3mapSt6vectorNSt7__cxx1112basic_stringIcSt11char_traitsIcESaIcEEEblmdSaNS1_14adl_serializerES4_IhSaIhEEvEESt13move_iteratorIPSE_EET0_PT_
FN:1832,1833,_ZSt32__make_move_if_noexcept_iteratorINSt7__cxx1112basic_stringIcSt11char_traitsIcESaIcEEESt13move_iteratorIPS5_EET0_PT_
FN:1832,1833,_ZSt32__make_move_if_noexcept_iteratorIPN8nlohmann16json_abi_v3_11_310basic_jsonISt3mapSt6vectorNSt7__cxx1112basic_stringIcSt11char_traitsIcESaIcEEEblmdSaNS1_14adl_serializerES4_IhSaIhEEvEESt13move_iteratorIPSF_EET0_PT_
FN:1832,1833,_ZSt32__make_move_if_noexcept_iteratorIcSt13move_iteratorIPcEET0_PT_
FN:2968,2970,_ZSt12__miter_baseIPPN8nlohmann16json_abi_v3_11_310basic_jsonISt3mapSt6vectorNSt7__cxx1112basic_stringIcSt11char_traitsIcESaIcEEEblmdSaNS1_14adl_serializerES4_IhSaIhEEvEEEDTcl12__miter_basecldtfp_4baseEEESt13move_iteratorIT_E
FN:2968,2970,_ZSt12__miter_baseIPcEDTcl12__miter_basecldtfp_4baseEEESt13move_iteratorIT_E
FN:713,714,_ZNSt20back_insert_iteratorISt6vectorIN8nlohmann16json_abi_v3_11_310basic_jsonISt3mapS0_NSt7__cxx1112basic_stringIcSt11char_traitsIcESaIcEEEblmdSaNS2_14adl_serializerES0_IhSaIhEEvEESaISE_EEEC2ERSG_
FN:745,749,_ZNSt20back_insert_iteratorISt6vectorIN8nlohmann16json_abi_v3_11_310basic_jsonISt3mapS0_NSt7__cxx1112basic_stringIcSt11char_traitsIcESaIcEEEblmdSaNS2_14adl_serializerES0_IhSaIhEEvEESaISE_EEEaSEOSE_
FN:755,756,_ZNSt20back_insert_iteratorISt6vectorIN8nlohmann16json_abi_v3_11_310basic_jsonISt3mapS0_NSt7__cxx1112basic_stringIcSt11char_traitsIcESaIcEEEblmdSaNS2_14adl_serializerES0_IhSaIhEEvEESaISE_EEEdeEv
FN:761,762,_ZNSt20back_insert_iteratorISt6vectorIN8nlohmann16json_abi_v3_11_310basic_jsonISt3mapS0_NSt7__cxx1112basic_stringIcSt11char_traitsIcESaIcEEEblmdSaNS2_14adl_serializerES0_IhSaIhEEvEESaISE_EEEppEv
FN:785,786,_ZSt13back_inserterISt6vectorIN8nlohmann16json_abi_v3_11_310basic_jsonISt3mapS0_NSt7__cxx1112basic_stringIcSt11char_traitsIcESaIcEEEblmdSaNS2_14adl_serializerES0_IhSaIhEEvEESaISE_EEESt20back_insert_iteratorIT_ERSI_
FNDA:32,_ZN9__gnu_cxx17__normal_iteratorIPN8nlohmann16json_abi_v3_11_310basic_jsonISt3mapSt6vectorNSt7__cxx1112basic_stringIcSt11char_traitsIcESaIcEEEblmdSaNS2_14adl_serializerES5_IhSaIhEEvEES5_ISF_SaISF_EEEC2Ev
FNDA:740,_ZN9__gnu_cxx17__normal_iteratorIPKN8nlohmann16json_abi_v3_11_310basic_jsonISt3mapSt6vectorNSt7__cxx1112basic_stringIcSt11char_traitsIcESaIcEEEblmdSaNS2_14adl_serializerES5_IhSaIhEEvEES5_ISF_SaISF_EEEC2ERKSH_
FNDA:374,_ZN9__gnu_cxx17__normal_iteratorIPKNSt7__cxx1112basic_stringIcSt11char_traitsIcESaIcEEESt6vectorIS6_SaIS6_EEEC2ERKS8_
FNDA:1192,_ZN9__gnu_cxx17__normal_iteratorIPKPN8nlohmann16json_abi_v3_11_310basic_jsonISt3mapSt6vectorNSt7__cxx1112basic_stringIcSt11char_traitsIcESaIcEEEblmdSaNS2_14adl_serializerES5_IhSaIhEEvEES5_ISG_SaISG_EEEC2ERKSI_
FNDA:308,_ZN9__gnu_cxx17__normal_iteratorIPKcSt6vectorIcSaIcEEEC2ERKS2_
FNDA:0,_ZN9__gnu_cxx17__normal_iteratorIPKhSt6vectorIhSaIhEEEC2ERKS2_
FNDA:748,_ZN9__gnu_cxx17__normal_iteratorIPN8nlohmann16json_abi_v3_11_310basic_jsonISt3mapSt6vectorNSt7__cxx1112basic_stringIcSt11char_traitsIcESaIcEEEblmdSaNS2_14adl_serializerES5_IhSaIhEEvEES5_ISF_SaISF_EEEC2ERKSG_
FNDA:794,_ZN9__gnu_cxx17__normal_iteratorIPNSt7__cxx1112basic_stringIcSt11char_traitsIcESaIcEEESt6vectorIS6_SaIS6_EEEC2ERKS7_
FNDA:3460,_ZN9__gnu_cxx17__normal_iteratorIPPN8nlohmann16json_abi_v3_11_310basic_jsonISt3mapSt6vectorNSt7__cxx1112basic_stringIcSt11char_traitsIcESaIcEEEblmdSaNS2_14adl_serializerES5_IhSaIhEEvEES5_ISG_SaISG_EEEC2ERKSH_
FNDA:188,_ZN9__gnu_cxx17__normal_iteratorIPcSt6vectorIcSaIcEEEC2ERKS1_
FNDA:0,_ZN9__gnu_cxx17__normal_iteratorIPhSt6vectorIhSaIhEEEC2ERKS1_
FNDA:0,_ZN9__gnu_cxx17__normal_iteratorIPKN8nlohmann16json_abi_v3_11_310basic_jsonISt3mapSt6vectorNSt7__cxx1112basic_stringIcSt11char_traitsIcESaIcEEEblmdSaNS2_14adl_serializerES5_IhSaIhEEvEES5_ISF_SaISF_EEEC2IPSF_vEERKNS0_IT_SJ_EE
FNDA:4,_ZNK9__gnu_cxx17__normal_iteratorIPKN8nlohmann16json_abi_v3_11_310basic_jsonISt3mapSt6vectorNSt7__cxx1112basic_stringIcSt11char_traitsIcESaIcEEEblmdSaNS2_14adl_serializerES5_IhSaIhEEvEES5_ISF_SaISF_EEEdeEv
FNDA:40,_ZNK9__gnu_cxx17__normal_iteratorIPKcSt6vectorIcSaIcEEEdeEv
FNDA:0,_ZNK9__gnu_cxx17__normal_iteratorIPKhSt6vectorIhSaIhEEEdeEv
FNDA:316,_ZNK9__gnu_cxx17__normal_iteratorIPN8nlohmann16json_abi_v3_11_310basic_jsonISt3mapSt6vectorNSt7__cxx1112basic_stringIcSt11char_traitsIcESaIcEEEblmdSaNS2_14adl_serializerES5_IhSaIhEEvEES5_ISF_SaISF_EEEdeEv
FNDA:88,_ZNK9__gnu_cxx17__normal_iteratorIPNSt7__cxx1112basic_stringIcSt11char_traitsIcESaIcEEESt6vectorIS6_SaIS6_EEEdeEv
FNDA:1692,_ZNK9__gnu_cxx17__normal_iteratorIPPN8nlohmann16json_abi_v3_11_310basic_jsonISt3mapSt6vectorNSt7__cxx1112basic_stringIcSt11char_traitsIcESaIcEEEblmdSaNS2_14adl_serializerES5_IhSaIhEEvEES5_ISG_SaISG_EEEdeEv
FNDA:428,_ZNK9__gnu_cxx17__normal_iteratorIPcNSt7__cxx1112basic_stringIcSt11char_traitsIcESaIcEEEEdeEv
FNDA:0,_ZNK9__gnu_cxx17__normal_iteratorIPhSt6vectorIhSaIhEEEdeEv
FNDA:4,_ZN9__gnu_cxx17__normal_iteratorIPKN8nlohmann16json_abi_v3_11_310basic_jsonISt3mapSt6vectorNSt7__cxx1112basic_stringIcSt11char_traitsIcESaIcEEEblmdSaNS2_14adl_serializerES5_IhSaIhEEvEES5_ISF_SaISF_EEEppEv
FNDA:40,_ZN9__gnu_cxx17__normal_iteratorIPKcSt6vectorIcSaIcEEEppEv
FNDA:0,_ZN9__gnu_cxx17__normal_iteratorIPKhSt6vectorIhSaIhEEEppEv
FNDA:96,_ZN9__gnu_cxx17__normal_iteratorIPNSt7__cxx1112basic_stringIcSt11char_traitsIcESaIcEEESt6vectorIS6_SaIS6_EEEppEv
FNDA:228,_ZN9__gnu_cxx17__normal_iteratorIPcNSt7__cxx1112basic_stringIcSt11char_traitsIcESaIcEEEEppEv
FNDA:16,_ZN9__gnu_cxx17__normal_iteratorIPN8nlohmann16json_abi_v3_11_310basic_jsonISt3mapSt6vectorNSt7__cxx1112basic_stringIcSt11char_traitsIcESaIcEEEblmdSaNS2_14adl_serializerES5_IhSaIhEEvEES5_ISF_SaISF_EEEpLEl
FNDA:0,_ZNK9__gnu_cxx17__normal_iteratorIPN8nlohmann16json_abi_v3_11_310basic_jsonISt3mapSt6vectorNSt7__cxx1112basic_stringIcSt11char_traitsIcESaIcEEEblmdSaNS2_14adl_serializerES5_IhSaIhEEvEES5_ISF_SaISF_EEEplEl
FNDA:8,_ZNK9__gnu_cxx17__normal_iteratorIPKN8nlohmann16json_abi_v3_11_310basic_jsonISt3mapSt6vectorNSt7__cxx1112basic_stringIcSt11char_traitsIcESaIcEEEblmdSaNS2_14adl_serializerES5_IhSaIhEEvEES5_ISF_SaISF_EEEmiEl
FNDA:0,_ZNK9__gnu_cxx17__normal_iteratorIPKhSt6vectorIhSaIhEEEmiEl
FNDA:300,_ZNK9__gnu_cxx17__normal_iteratorIPN8nlohmann16json_abi_v3_11_310basic_jsonISt3mapSt6vectorNSt7__cxx1112basic_stringIcSt11char_traitsIcESaIcEEEblmdSaNS2_14adl_serializerES5_IhSaIhEEvEES5_ISF_SaISF_EEEmiEl
FNDA:2,_ZNK9__gnu_cxx17__normal_iteratorIPNSt7__cxx1112basic_stringIcSt11char_traitsIcESaIcEEESt6vectorIS6_SaIS6_EEEmiEl
FNDA:1692,_ZNK9__gnu_cxx17__normal_iteratorIPPN8nlohmann16json_abi_v3_11_310basic_jsonISt3mapSt6vectorNSt7__cxx1112basic_stringIcSt11char_traitsIcESaIcEEEblmdSaNS2_14adl_serializerES5_IhSaIhEEvEES5_ISG_SaISG_EEEmiEl
FNDA:0,_ZNK9__gnu_cxx17__normal_iteratorIPhSt6vectorIhSaIhEEEmiEl
FNDA:736,_ZNK9__gnu_cxx17__normal_iteratorIPKN8nlohmann16json_abi_v3_11_310basic_jsonISt3mapSt6vectorNSt7__cxx1112basic_stringIcSt11char_traitsIcESaIcEEEblmdSaNS2_14adl_serializerES5_IhSaIhEEvEES5_ISF_SaISF_EEE4baseEv
FNDA:990,_ZNK9__gnu_cxx17__normal_iteratorIPKNSt7__cxx1112basic_stringIcSt11char_traitsIcESaIcEEESt6vectorIS6_SaIS6_EEE4baseEv
FNDA:1192,_ZNK9__gnu_cxx17__normal_iteratorIPKPN8nlohmann16json_abi_v3_11_310basic_jsonISt3mapSt6vectorNSt7__cxx1112basic_stringIcSt11char_traitsIcESaIcEEEblmdSaNS2_14adl_serializerES5_IhSaIhEEvEES5_ISG_SaISG_EEE4baseEv
FNDA:388,_ZNK9__gnu_cxx17__normal_iteratorIPKcSt6vectorIcSaIcEEE4baseEv
FNDA:0,_ZNK9__gnu_cxx17__normal_iteratorIPKhSt6vectorIhSaIhEEE4baseEv
FNDA:288,_ZNK9__gnu_cxx17__normal_iteratorIPN8nlohmann16json_abi_v3_11_310basic_jsonISt3mapSt6vectorNSt7__cxx1112basic_stringIcSt11char_traitsIcESaIcEEEblmdSaNS2_14adl_serializerES5_IhSaIhEEvEES5_ISF_SaISF_EEE4baseEv
FNDA:1565,_ZNK9__gnu_cxx17__normal_iteratorIPNSt7__cxx1112basic_stringIcSt11char_traitsIcESaIcEEESt6vectorIS6_SaIS6_EEE4baseEv
FNDA:152,_ZNK9__gnu_cxx17__normal_iteratorIPPN8nlohmann16json_abi_v3_11_310basic_jsonISt3mapSt6vectorNSt7__cxx1112basic_stringIcSt11char_traitsIcESaIcEEEblmdSaNS2_14adl_serializerES5_IhSaIhEEvEES5_ISG_SaISG_EEE4baseEv
FNDA:492,_ZNK9__gnu_cxx17__normal_iteratorIPcNSt7__cxx1112basic_stringIcSt11char_traitsIcESaIcEEEE4baseEv
FNDA:376,_ZNK9__gnu_cxx17__normal_iteratorIPcSt6vectorIcSaIcEEE4baseEv
FNDA:360,_ZN9__gnu_cxxeqIPKN8nlohmann16json_abi_v3_11_310basic_jsonISt3mapSt6vectorNSt7__cxx1112basic_stringIcSt11char_traitsIcESaIcEEEblmdSaNS2_14adl_serializerES5_IhSaIhEEvEES5_ISF_SaISF_EEEEbRKNS_17__normal_iteratorIT_T0_EESP_
FNDA:177,_ZN9__gnu_cxxeqIPKNSt7__cxx1112basic_stringIcSt11char_traitsIcESaIcEEESt6vectorIS6_SaIS6_EEEEbRKNS_17__normal_iteratorIT_T0_EESH_
FNDA:596,_ZN9__gnu_cxxeqIPKPN8nlohmann16json_abi_v3_11_310basic_jsonISt3mapSt6vectorNSt7__cxx1112basic_stringIcSt11char_traitsIcESaIcEEEblmdSaNS2_14adl_serializerES5_IhSaIhEEvEES5_ISG_SaISG_EEEEbRKNS_17__normal_iteratorIT_T0_EESQ_
FNDA:150,_ZN9__gnu_cxxeqIPKcSt6vectorIcSaIcEEEEbRKNS_17__normal_iteratorIT_T0_EESB_
FNDA:0,_ZN9__gnu_cxxeqIPKhSt6vectorIhSaIhEEEEbRKNS_17__normal_iteratorIT_T0_EESB_
FNDA:24,_ZN9__gnu_cxxeqIPN8nlohmann16json_abi_v3_11_310basic_jsonISt3mapSt6vectorNSt7__cxx1112basic_stringIcSt11char_traitsIcESaIcEEEblmdSaNS2_14adl_serializerES5_IhSaIhEEvEES5_ISF_SaISF_EEEEbRKNS_17__normal_iteratorIT_T0_EESO_
FNDA:8,_ZN9__gnu_cxxneIPKN8nlohmann16json_abi_v3_11_310basic_jsonISt3mapSt6vectorNSt7__cxx1112basic_stringIcSt11char_traitsIcESaIcEEEblmdSaNS2_14adl_serializerES5_IhSaIhEEvEES5_ISF_SaISF_EEEEbRKNS_17__normal_iteratorIT_T0_EESP_
FNDA:44,_ZN9__gnu_cxxneIPKcSt6vectorIcSaIcEEEEbRKNS_17__normal_iteratorIT_T0_EESB_
FNDA:0,_ZN9__gnu_cxxneIPKhSt6vectorIhSaIhEEEEbRKNS_17__normal_iteratorIT_T0_EESB_
FNDA:16,_ZN9__gnu_cxxneIPN8nlohmann16json_abi_v3_11_310basic_jsonISt3mapSt6vectorNSt7__cxx1112basic_stringIcSt11char_traitsIcESaIcEEEblmdSaNS2_14adl_serializerES5_IhSaIhEEvEES5_ISF_SaISF_EEEEbRKNS_17__normal_iteratorIT_T0_EESO_
FNDA:56,_ZN9__gnu_cxxneIPNSt7__cxx1112basic_stringIcSt11char_traitsIcESaIcEEESt6vectorIS6_SaIS6_EEEEbRKNS_17__normal_iteratorIT_T0_EESG_
FNDA:216,_ZN9__gnu_cxxneIPcNSt7__cxx1112basic_stringIcSt11char_traitsIcESaIcEEEEEbRKNS_17__normal_iteratorIT_T0_EESD_
FNDA:0,_ZN9__gnu_cxxmiIPKN8nlohmann16json_abi_v3_11_310basic_jsonISt3mapSt6vectorNSt7__cxx1112basic_stringIcSt11char_traitsIcESaIcEEEblmdSaNS2_14adl_serializerES5_IhSaIhEEvEES5_ISF_SaISF_EEEENS_17__normal_iteratorIT_T0_E15difference_typeERKSN_SQ_
FNDA:46,_ZN9__gnu_cxxmiIPN8nlohmann16json_abi_v3_11_310basic_jsonISt3mapSt6vectorNSt7__cxx1112basic_stringIcSt11char_traitsIcESaIcEEEblmdSaNS2_14adl_serializerES5_IhSaIhEEvEES5_ISF_SaISF_EEEENS_17__normal_iteratorIT_T0_E15difference_typeERKSM_SP_
FNDA:327,_ZN9__gnu_cxxmiIPNSt7__cxx1112basic_stringIcSt11char_traitsIcESaIcEEESt6vectorIS6_SaIS6_EEEENS_17__normal_iteratorIT_T0_E15difference_typeERKSE_SH_
FNDA:38,_ZN9__gnu_cxxmiIPPN8nlohmann16json_abi_v3_11_310basic_jsonISt3mapSt6vectorNSt7__cxx1112basic_stringIcSt11char_traitsIcESaIcEEEblmdSaNS2_14adl_serializerES5_IhSaIhEEvEES5_ISG_SaISG_EEEENS_17__normal_iteratorIT_T0_E15difference_typeERKSN_SQ_
FNDA:94,_ZN9__gnu_cxxmiIPcSt6vectorIcSaIcEEEENS_17__normal_iteratorIT_T0_E15difference_typeERKS8_SB_
FNDA:0,_ZSt12__niter_baseIPKN8nlohmann16json_abi_v3_11_310basic_jsonISt3mapSt6vectorNSt7__cxx1112basic_stringIcSt11char_traitsIcESaIcEEEblmdSaNS1_14adl_serializerES4_IhSaIhEEvEES4_ISE_SaISE_EEET_N9__gnu_cxx17__normal_iteratorISJ_T0_EE
FNDA:0,_ZSt12__niter_baseIPKhSt6vectorIhSaIhEEET_N9__gnu_cxx17__normal_iteratorIS5_T0_EE
FNDA:24,_ZSt12__niter_baseIPN8nlohmann16json_abi_v3_11_310basic_jsonISt3mapSt6vectorNSt7__cxx1112basic_stringIcSt11char_traitsIcESaIcEEEblmdSaNS1_14adl_serializerES4_IhSaIhEEvEES4_ISE_SaISE_EEET_N9__gnu_cxx17__normal_iteratorISI_T0_EE
FNDA:0,_ZNSt13move_iteratorIPN8nlohmann16json_abi_v3_11_310basic_jsonISt3mapSt6vectorNSt7__cxx1112basic_stringIcSt11char_traitsIcESaIcEEEblmdSaNS1_14adl_serializerES4_IhSaIhEEvEEEC2ESF_
FNDA:0,_ZNSt13move_iteratorIPNSt7__cxx1112basic_stringIcSt11char_traitsIcESaIcEEEEC2ES6_
FNDA:0,_ZNSt13move_iteratorIPPN8nlohmann16json_abi_v3_11_310basic_jsonISt3mapSt6vectorNSt7__cxx1112basic_stringIcSt11char_traitsIcESaIcEEEblmdSaNS1_14adl_serializerES4_IhSaIhEEvEEEC2ESG_
FNDA:0,_ZNSt13move_iteratorIPcEC2ES0_
FNDA:0,_ZNKSt13move_iteratorIPN8nlohmann16json_abi_v3_11_310basic_jsonISt3mapSt6vectorNSt7__cxx1112basic_stringIcSt11char_traitsIcESaIcEEEblmdSaNS1_14adl_serializerES4_IhSaIhEEvEEE4baseEv
FNDA:0,_ZNKSt13move_iteratorIPNSt7__cxx1112basic_stringIcSt11char_traitsIcESaIcEEEE4baseEv
FNDA:0,_ZNKSt13move_iteratorIPPN8nlohmann16json_abi_v3_11_310basic_jsonISt3mapSt6vectorNSt7__cxx1112basic_stringIcSt11char_traitsIcESaIcEEEblmdSaNS1_14adl_serializerES4_IhSaIhEEvEEE4baseEv
FNDA:0,_ZNKSt13move_iteratorIPcE4baseEv
FNDA:0,_ZNKSt13move_iteratorIPN8nlohmann16json_abi_v3_11_310basic_jsonISt3mapSt6vectorNSt7__cxx1112basic_stringIcSt11char_traitsIcESaIcEEEblmdSaNS1_14adl_serializerES4_IhSaIhEEvEEEdeEv
FNDA:0,_ZNKSt13move_iteratorIPNSt7__cxx1112basic_stringIcSt11char_traitsIcESaIcEEEEdeEv
FNDA:0,_ZNSt13move_iteratorIPN8nlohmann16json_abi_v3_11_310basic_jsonISt3mapSt6vectorNSt7__cxx1112basic_stringIcSt11char_traitsIcESaIcEEEblmdSaNS1_14adl_serializerES4_IhSaIhEEvEEEppEv
FNDA:0,_ZNSt13move_iteratorIPNSt7__cxx1112basic_stringIcSt11char_traitsIcESaIcEEEEppEv
FNDA:0,_ZSteqIPN8nlohmann16json_abi_v3_11_310basic_jsonISt3mapSt6vectorNSt7__cxx1112basic_stringIcSt11char_traitsIcESaIcEEEblmdSaNS1_14adl_serializerES4_IhSaIhEEvEEEbRKSt13move_iteratorIT_ESK_
FNDA:0,_ZSteqIPNSt7__cxx1112basic_stringIcSt11char_traitsIcESaIcEEEEbRKSt13move_iteratorIT_ESB_
FNDA:0,_ZStneIPN8nlohmann16json_abi_v3_11_310basic_jsonISt3mapSt6vectorNSt7__cxx1112basic_stringIcSt11char_traitsIcESaIcEEEblmdSaNS1_14adl_serializerES4_IhSaIhEEvEEEbRKSt13move_iteratorIT_ESK_
FNDA:0,_ZStneIPNSt7__cxx1112basic_stringIcSt11char_traitsIcESaIcEEEEbRKSt13move_iteratorIT_ESB_
FNDA:0,_ZSt32__make_move_if_noexcept_iteratorIN8nlohmann16json_abi_v3_11_310basic_jsonISt3mapSt6vectorNSt7__cxx1112basic_stringIcSt11char_traitsIcESaIcEEEblmdSaNS1_14adl_serializerES4_IhSaIhEEvEESt13move_iteratorIPSE_EET0_PT_
FNDA:0,_ZSt32__make_move_if_noexcept_iteratorINSt7__cxx1112basic_stringIcSt11char_traitsIcESaIcEEESt13move_iteratorIPS5_EET0_PT_
FNDA:0,_ZSt32__make_move_if_noexcept_iteratorIPN8nlohmann16json_abi_v3_11_310basic_jsonISt3mapSt6vectorNSt7__cxx1112basic_stringIcSt11char_traitsIcESaIcEEEblmdSaNS1_14adl_serializerES4_IhSaIhEEvEESt13move_iteratorIPSF_EET0_PT_
FNDA:0,_ZSt32__make_move_if_noexcept_iteratorIcSt13move_iteratorIPcEET0_PT_
FNDA:0,_ZSt12__miter_baseIPPN8nlohmann16json_abi_v3_11_310basic_jsonISt3mapSt6vectorNSt7__cxx1112basic_stringIcSt11char_traitsIcESaIcEEEblmdSaNS1_14adl_serializerES4_IhSaIhEEvEEEDTcl12__miter_basecldtfp_4baseEEESt13move_iteratorIT_E
FNDA:0,_ZSt12__miter_baseIPcEDTcl12__miter_basecldtfp_4baseEEESt13move_iteratorIT_E
FNDA:12,_ZNSt20back_insert_iteratorISt6vectorIN8nlohmann16json_abi_v3_11_310basic_jsonISt3mapS0_NSt7__cxx1112basic_stringIcSt11char_traitsIcESaIcEEEblmdSaNS2_14adl_serializerES0_IhSaIhEEvEESaISE_EEEC2ERSG_
FNDA:24,_ZNSt20back_insert_iteratorISt6vectorIN8nlohmann16json_abi_v3_11_310basic_jsonISt3mapS0_NSt7__cxx1112basic_stringIcSt11char_traitsIcESaIcEEEblmdSaNS2_14adl_serializerES0_IhSaIhEEvEESaISE_EEEaSEOSE_
FNDA:24,_ZNSt20back_insert_iteratorISt6vectorIN8nlohmann16json_abi_v3_11_310basic_jsonISt3mapS0_NSt7__cxx1112basic_stringIcSt11char_traitsIcESaIcEEEblmdSaNS2_14adl_serializerES0_IhSaIhEEvEESaISE_EEEdeEv
FNDA:24,_ZNSt20back_insert_iteratorISt6vectorIN8nlohmann16json_abi_v3_11_310basic_jsonISt3mapS0_NSt7__cxx1112basic_stringIcSt11char_traitsIcESaIcEEEblmdSaNS2_14adl_serializerES0_IhSaIhEEvEESaISE_EEEppEv
FNDA:12,_ZSt13back_inserterISt6vectorIN8nlohmann16json_abi_v3_11_310basic_jsonISt3mapS0_NSt7__cxx1112basic_stringIcSt11char_traitsIcESaIcEEEblmdSaNS2_14adl_serializerES0_IhSaIhEEvEESaISE_EEESt20back_insert_iteratorIT_ERSI_
FNF:90
FNH:53
DA:713,12
DA:714,12
DA:745,24
DA:747,24
DA:748,24
DA:755,24
DA:756,24
DA:761,24
DA:762,24
DA:785,12
DA:786,12
DA:1072,32
DA:1073,32
DA:1076,7804
DA:1077,7804
DA:1083,0
DA:1094,0
DA:1099,2568
DA:1100,2568
DA:1109,368
DA:1111,368
DA:1112,368
DA:1142,16
DA:1143,16
DA:1147,0
DA:1148,0
DA:1157,2002
DA:1158,2002
DA:1162,6179
DA:1163,6179
DA:1225,1307
DA:1228,1307
DA:1241,340
DA:1244,340
DA:1334,505
DA:1337,505
DA:1357,24
DA:1359,24
DA:1519,0
DA:1520,0
DA:1545,0
DA:1546,0
DA:1561,0
DA:1565,0
DA:1574,0
DA:1576,0
DA:1577,0
DA:1748,0
DA:1750,0
DA:1763,0
DA:1765,0
DA:1832,0
DA:1833,0
DA:2968,0
DA:2970,0
LF:55
LH:34
end_of_record
TN:
SF:/usr/include/c++/13/bits/stl_iterator_base_funcs.h
FN:168,180,_ZSt9__advanceISt17_Rb_tree_iteratorISt4pairIKNSt7__cxx1112basic_stringIcSt11char_traitsIcESaIcEEEN8nlohmann16json_abi_v3_11_310basic_jsonISt3mapSt6vectorS7_blmdSaNSA_14adl_serializerESD_IhSaIhEEvEEEElEvRT_T0_St26bidirectional_iterator_tag
FN:168,180,_ZSt9__advanceISt23_Rb_tree_const_iteratorISt4pairIKNSt7__cxx1112basic_stringIcSt11char_traitsIcESaIcEEEN8nlohmann16json_abi_v3_11_310basic_jsonISt3mapSt6vectorS7_blmdSaNSA_14adl_serializerESD_IhSaIhEEvEEEElEvRT_T0_St26bidirectional_iterator_tag
FN:184,196,_ZSt9__advanceIN9__gnu_cxx17__normal_iteratorIPN8nlohmann16json_abi_v3_11_310basic_jsonISt3mapSt6vectorNSt7__cxx1112basic_stringIcSt11char_traitsIcESaIcEEEblmdSaNS3_14adl_serializerES6_IhSaIhEEvEES6_ISG_SaISG_EEEElEvRT_T0_St26random_access_iterator_tag
FNDA:0,_ZSt9__advanceISt17_Rb_tree_iteratorISt4pairIKNSt7__cxx1112basic_stringIcSt11char_traitsIcESaIcEEEN8nlohmann16json_abi_v3_11_310basic_jsonISt3mapSt6vectorS7_blmdSaNSA_14adl_serializerESD_IhSaIhEEvEEEElEvRT_T0_St26bidirectional_iterator_tag
FNDA:24,_ZSt9__advanceISt23_Rb_tree_const_iteratorISt4pairIKNSt7__cxx1112basic_stringIcSt11char_traitsIcESaIcEEEN8nlohmann16json_abi_v3_11_310basic_jsonISt3mapSt6vectorS7_blmdSaNSA_14adl_serializerESD_IhSaIhEEvEEEElEvRT_T0_St26bidirectional_iterator_tag
FNDA:16,_ZSt9__advanceIN9__gnu_cxx17__normal_iteratorIPN8nlohmann16json_abi_v3_11_310basic_jsonISt3mapSt6vectorNSt7__cxx1112basic_stringIcSt11char_traitsIcESaIcEEEblmdSaNS3_14adl_serializerES6_IhSaIhEEvEES6_ISG_SaISG_EEEElEvRT_T0_St26random_access_iterator_tag
FNF:3
FNH:2
DA:106,2279
DA:151,4558
DA:152,4558
DA:168,24
DA:174,24
DA:175,48
DA:176,24
DA:178,0
DA:179,0
DA:180,24
DA:184,16
DA:195,16
DA:196,16
DA:223,40
DA:224,40
DA:225,40
DA:238,24
LF:17
LH:15
end_of_record
TN:
SF:/usr/include/c++/13/bits/stl_iterator_base_types.h
FNF:0
FNH:0
DA:240,2349
LF:1
LH:1
end_of_record
TN:
SF:/usr/include/c++/13/bits/stl_map.h
FN:1087,1088,_ZNSt3mapINSt7__cxx1112basic_stringIcSt11char_traitsIcESaIcEEEN8nlohmann16json_abi_v3_11_310basic_jsonIS_St6vectorS5_blmdSaNS7_14adl_serializerES9_IhSaIhEEvEESt4lessIvESaISt4pairIKS5_SD_EEE5eraseB5cxx11ESt17_Rb_tree_iteratorISI_E
FN:1183,1184,_ZNSt3mapINSt7__cxx1112basic_stringIcSt11char_traitsIcESaIcEEEN8nlohmann16json_abi_v3_11_310basic_jsonIS_St6vectorS5_blmdSaNS7_14adl_serializerES9_IhSaIhEEvEESt4lessIvESaISt4pairIKS5_SD_EEE5clearEv
FN:1192,1193,_ZNKSt3mapINSt7__cxx1112basic_stringIcSt11char_traitsIcESaIcEEEN8nlohmann16json_abi_v3_11_310basic_jsonIS_St6vectorS5_blmdSaNS7_14adl_serializerES9_IhSaIhEEvEESt4lessIvESaISt4pairIKS5_SD_EEE8key_compEv
FN:1219,1220,_ZNSt3mapINSt7__cxx1112basic_stringIcSt11char_traitsIcESaIcEEEN8nlohmann16json_abi_v3_11_310basic_jsonIS_St6vectorS5_blmdSaNS7_14adl_serializerES9_IhSaIhEEvEESt4lessIvESaISt4pairIKS5_SD_EEE4findERSH_
FN:1225,1226,_ZNSt3mapINSt7__cxx1112basic_stringIcSt11char_traitsIcESaIcEEEN8nlohmann16json_abi_v3_11_310basic_jsonIS_St6vectorS5_blmdSaNS7_14adl_serializerES9_IhSaIhEEvEESt4lessIvESaISt4pairIKS5_SD_EEE4findIA10_cEEDTcldtdtdefpT4_M_t10_M_find_trfp_EERKT_
FN:1225,1226,_ZNSt3mapINSt7__cxx1112basic_stringIcSt11char_traitsIcESaIcEEEN8nlohmann16json_abi_v3_11_310basic_jsonIS_St6vectorS5_blmdSaNS7_14adl_serializerES9_IhSaIhEEvEESt4lessIvESaISt4pairIKS5_SD_EEE4findIA19_cEEDTcldtdtdefpT4_M_t10_M_find_trfp_EERKT_
FN:1225,1226,_ZNSt3mapINSt7__cxx1112basic_stringIcSt11char_traitsIcESaIcEEEN8nlohmann16json_abi_v3_11_310basic_jsonIS_St6vectorS5_blmdSaNS7_14adl_serializerES9_IhSaIhEEvEESt4lessIvESaISt4pairIKS5_SD_EEE4findIA20_cEEDTcldtdtdefpT4_M_t10_M_find_trfp_EERKT_
FN:1225,1226,_ZNSt3mapINSt7__cxx1112basic_stringIcSt11char_traitsIcESaIcEEEN8nlohmann16json_abi_v3_11_310basic_jsonIS_St6vectorS5_blmdSaNS7_14adl_serializerES9_IhSaIhEEvEESt4lessIvESaISt4pairIKS5_SD_EEE4findIA21_cEEDTcldtdtdefpT4_M_t10_M_find_trfp_EERKT_
FN:1225,1226,_ZNSt3mapINSt7__cxx1112basic_stringIcSt11char_traitsIcESaIcEEEN8nlohmann16json_abi_v3_11_310basic_jsonIS_St6vectorS5_blmdSaNS7_14adl_serializerES9_IhSaIhEEvEESt4lessIvESaISt4pairIKS5_SD_EEE4findIA23_cEEDTcldtdtdefpT4_M_t10_M_find_trfp_EERKT_
FN:1225,1226,_ZNSt3mapINSt7__cxx1112basic_stringIcSt11char_traitsIcESaIcEEEN8nlohmann16json_abi_v3_11_310basic_jsonIS_St6vectorS5_blmdSaNS7_14adl_serializerES9_IhSaIhEEvEESt4lessIvESaISt4pairIKS5_SD_EEE4findIA8_cEEDTcldtdtdefpT4_M_t10_M_find_trfp_EERKT_
FN:1308,1309,_ZNSt3mapINSt7__cxx1112basic_stringIcSt11char_traitsIcESaIcEEEN8nlohmann16json_abi_v3_11_310basic_jsonIS_St6vectorS5_blmdSaNS7_14adl_serializerES9_IhSaIhEEvEESt4lessIvESaISt4pairIKS5_SD_EEE11lower_boundERSH_
FN:1513,1515,_ZSteqINSt7__cxx1112basic_stringIcSt11char_traitsIcESaIcEEEN8nlohmann16json_abi_v3_11_310basic_jsonISt3mapSt6vectorS5_blmdSaNS7_14adl_serializerESA_IhSaIhEEvEESt4lessIvESaISt4pairIKS5_SE_EEEbRKS9_IT_T0_T1_T2_ESR_
FN:197,197,_ZNSt3mapINSt7__cxx1112basic_stringIcSt11char_traitsIcESaIcEEEN8nlohmann16json_abi_v3_11_310basic_jsonIS_St6vectorS5_blmdSaNS7_14adl_serializerES9_IhSaIhEEvEESt4lessIvESaISt4pairIKS5_SD_EEEC2Ev
FN:219,219,_ZNSt3mapINSt7__cxx1112basic_stringIcSt11char_traitsIcESaIcEEEN8nlohmann16json_abi_v3_11_310basic_jsonIS_St6vectorS5_blmdSaNS7_14adl_serializerES9_IhSaIhEEvEESt4lessIvESaISt4pairIKS5_SD_EEEC2ERKSK_
FN:314,314,_ZNSt3mapINSt7__cxx1112basic_stringIcSt11char_traitsIcESaIcEEEN8nlohmann16json_abi_v3_11_310basic_jsonIS_St6vectorS5_blmdSaNS7_14adl_serializerES9_IhSaIhEEvEESt4lessIvESaISt4pairIKS5_SD_EEED2Ev
FN:368,369,_ZNSt3mapINSt7__cxx1112basic_stringIcSt11char_traitsIcESaIcEEEN8nlohmann16json_abi_v3_11_310basic_jsonIS_St6vectorS5_blmdSaNS7_14adl_serializerES9_IhSaIhEEvEESt4lessIvESaISt4pairIKS5_SD_EEE5beginEv
FN:386,387,_ZNSt3mapINSt7__cxx1112basic_stringIcSt11char_traitsIcESaIcEEEN8nlohmann16json_abi_v3_11_310basic_jsonIS_St6vectorS5_blmdSaNS7_14adl_serializerES9_IhSaIhEEvEESt4lessIvESaISt4pairIKS5_SD_EEE3endEv
FN:441,442,_ZNKSt3mapINSt7__cxx1112basic_stringIcSt11char_traitsIcESaIcEEEN8nlohmann16json_abi_v3_11_310basic_jsonIS_St6vectorS5_blmdSaNS7_14adl_serializerES9_IhSaIhEEvEESt4lessIvESaISt4pairIKS5_SD_EEE6cbeginEv
FN:450,451,_ZNKSt3mapINSt7__cxx1112basic_stringIcSt11char_traitsIcESaIcEEEN8nlohmann16json_abi_v3_11_310basic_jsonIS_St6vectorS5_blmdSaNS7_14adl_serializerES9_IhSaIhEEvEESt4lessIvESaISt4pairIKS5_SD_EEE4cendEv
FN:477,478,_ZNKSt3mapINSt7__cxx1112basic_stringIcSt11char_traitsIcESaIcEEEN8nlohmann16json_abi_v3_11_310basic_jsonIS_St6vectorS5_blmdSaNS7_14adl_serializerES9_IhSaIhEEvEESt4lessIvESaISt4pairIKS5_SD_EEE5emptyEv
FN:482,483,_ZNKSt3mapINSt7__cxx1112basic_stringIcSt11char_traitsIcESaIcEEEN8nlohmann16json_abi_v3_11_310basic_jsonIS_St6vectorS5_blmdSaNS7_14adl_serializerES9_IhSaIhEEvEESt4lessIvESaISt4pairIKS5_SD_EEE4sizeEv
FN:487,488,_ZNKSt3mapINSt7__cxx1112basic_stringIcSt11char_traitsIcESaIcEEEN8nlohmann16json_abi_v3_11_310basic_jsonIS_St6vectorS5_blmdSaNS7_14adl_serializerES9_IhSaIhEEvEESt4lessIvESaISt4pairIKS5_SD_EEE8max_sizeEv
FN:504,520,_ZNSt3mapINSt7__cxx1112basic_stringIcSt11char_traitsIcESaIcEEEN8nlohmann16json_abi_v3_11_310basic_jsonIS_St6vectorS5_blmdSaNS7_14adl_serializerES9_IhSaIhEEvEESt4lessIvESaISt4pairIKS5_SD_EEEixERSH_
FN:588,609,_ZNSt3mapINSt7__cxx1112basic_stringIcSt11char_traitsIcESaIcEEEN8nlohmann16json_abi_v3_11_310basic_jsonIS_St6vectorS5_blmdSaNS7_14adl_serializerES9_IhSaIhEEvEESt4lessIvESaISt4pairIKS5_SD_EEE7emplaceIJS5_DnEEESG_ISt17_Rb_tree_iteratorISI_EbEDpOT_
FN:588,609,_ZNSt3mapINSt7__cxx1112basic_stringIcSt11char_traitsIcESaIcEEEN8nlohmann16json_abi_v3_11_310basic_jsonIS_St6vectorS5_blmdSaNS7_14adl_serializerES9_IhSaIhEEvEESt4lessIvESaISt4pairIKS5_SD_EEE7emplaceIJS5_SD_EEESG_ISt17_Rb_tree_iteratorISI_EbEDpOT_
FNDA:0,_ZNSt3mapINSt7__cxx1112basic_stringIcSt11char_traitsIcESaIcEEEN8nlohmann16json_abi_v3_11_310basic_jsonIS_St6vectorS5_blmdSaNS7_14adl_serializerES9_IhSaIhEEvEESt4lessIvESaISt4pairIKS5_SD_EEE5eraseB5cxx11ESt17_Rb_tree_iteratorISI_E
FNDA:66,_ZNSt3mapINSt7__cxx1112basic_stringIcSt11char_traitsIcESaIcEEEN8nlohmann16json_abi_v3_11_310basic_jsonIS_St6vectorS5_blmdSaNS7_14adl_serializerES9_IhSaIhEEvEESt4lessIvESaISt4pairIKS5_SD_EEE5clearEv
FNDA:0,_ZNKSt3mapINSt7__cxx1112basic_stringIcSt11char_traitsIcESaIcEEEN8nlohmann16json_abi_v3_11_310basic_jsonIS_St6vectorS5_blmdSaNS7_14adl_serializerES9_IhSaIhEEvEESt4lessIvESaISt4pairIKS5_SD_EEE8key_compEv
FNDA:8,_ZNSt3mapINSt7__cxx1112basic_stringIcSt11char_traitsIcESaIcEEEN8nlohmann16json_abi_v3_11_310basic_jsonIS_St6vectorS5_blmdSaNS7_14adl_serializerES9_IhSaIhEEvEESt4lessIvESaISt4pairIKS5_SD_EEE4findERSH_
FNDA:28,_ZNSt3mapINSt7__cxx1112basic_stringIcSt11char_traitsIcESaIcEEEN8nlohmann16json_abi_v3_11_310basic_jsonIS_St6vectorS5_blmdSaNS7_14adl_serializerES9_IhSaIhEEvEESt4lessIvESaISt4pairIKS5_SD_EEE4findIA10_cEEDTcldtdtdefpT4_M_t10_M_find_trfp_EERKT_
FNDA:14,_ZNSt3mapINSt7__cxx1112basic_stringIcSt11char_traitsIcESaIcEEEN8nlohmann16json_abi_v3_11_310basic_jsonIS_St6vectorS5_blmdSaNS7_14adl_serializerES9_IhSaIhEEvEESt4lessIvESaISt4pairIKS5_SD_EEE4findIA19_cEEDTcldtdtdefpT4_M_t10_M_find_trfp_EERKT_
FNDA:4,_ZNSt3mapINSt7__cxx1112basic_stringIcSt11char_traitsIcESaIcEEEN8nlohmann16json_abi_v3_11_310basic_jsonIS_St6vectorS5_blmdSaNS7_14adl_serializerES9_IhSaIhEEvEESt4lessIvESaISt4pairIKS5_SD_EEE4findIA20_cEEDTcldtdtdefpT4_M_t10_M_find_trfp_EERKT_
FNDA:4,_ZNSt3mapINSt7__cxx1112basic_stringIcSt11char_traitsIcESaIcEEEN8nlohmann16json_abi_v3_11_310basic_jsonIS_St6vectorS5_blmdSaNS7_14adl_serializerES9_IhSaIhEEvEESt4lessIvESaISt4pairIKS5_SD_EEE4findIA21_cEEDTcldtdtdefpT4_M_t10_M_find_trfp_EERKT_
FNDA:2,_ZNSt3mapINSt7__cxx1112basic_stringIcSt11char_traitsIcESaIcEEEN8nlohmann16json_abi_v3_11_310basic_jsonIS_St6vectorS5_blmdSaNS7_14adl_serializerES9_IhSaIhEEvEESt4lessIvESaISt4pairIKS5_SD_EEE4findIA23_cEEDTcldtdtdefpT4_M_t10_M_find_trfp_EERKT_
FNDA:16,_ZNSt3mapINSt7__cxx1112basic_stringIcSt11char_traitsIcESaIcEEEN8nlohmann16json_abi_v3_11_310basic_jsonIS_St6vectorS5_blmdSaNS7_14adl_serializerES9_IhSaIhEEvEESt4lessIvESaISt4pairIKS5_SD_EEE4findIA8_cEEDTcldtdtdefpT4_M_t10_M_find_trfp_EERKT_
FNDA:240,_ZNSt3mapINSt7__cxx1112basic_stringIcSt11char_traitsIcESaIcEEEN8nlohmann16json_abi_v3_11_310basic_jsonIS_St6vectorS5_blmdSaNS7_14adl_serializerES9_IhSaIhEEvEESt4lessIvESaISt4pairIKS5_SD_EEE11lower_boundERSH_
FNDA:0,_ZSteqINSt7__cxx1112basic_stringIcSt11char_traitsIcESaIcEEEN8nlohmann16json_abi_v3_11_310basic_jsonISt3mapSt6vectorS5_blmdSaNS7_14adl_serializerESA_IhSaIhEEvEESt4lessIvESaISt4pairIKS5_SE_EEEbRKS9_IT_T0_T1_T2_ESR_
FNDA:68,_ZNSt3mapINSt7__cxx1112basic_stringIcSt11char_traitsIcESaIcEEEN8nlohmann16json_abi_v3_11_310basic_jsonIS_St6vectorS5_blmdSaNS7_14adl_serializerES9_IhSaIhEEvEESt4lessIvESaISt4pairIKS5_SD_EEEC2Ev
FNDA:0,_ZNSt3mapINSt7__cxx1112basic_stringIcSt11char_traitsIcESaIcEEEN8nlohmann16json_abi_v3_11_310basic_jsonIS_St6vectorS5_blmdSaNS7_14adl_serializerES9_IhSaIhEEvEESt4lessIvESaISt4pairIKS5_SD_EEEC2ERKSK_
FNDA:68,_ZNSt3mapINSt7__cxx1112basic_stringIcSt11char_traitsIcESaIcEEEN8nlohmann16json_abi_v3_11_310basic_jsonIS_St6vectorS5_blmdSaNS7_14adl_serializerES9_IhSaIhEEvEESt4lessIvESaISt4pairIKS5_SD_EEED2Ev
FNDA:134,_ZNSt3mapINSt7__cxx1112basic_stringIcSt11char_traitsIcESaIcEEEN8nlohmann16json_abi_v3_11_310basic_jsonIS_St6vectorS5_blmdSaNS7_14adl_serializerES9_IhSaIhEEvEESt4lessIvESaISt4pairIKS5_SD_EEE5beginEv
FNDA:450,_ZNSt3mapINSt7__cxx1112basic_stringIcSt11char_traitsIcESaIcEEEN8nlohmann16json_abi_v3_11_310basic_jsonIS_St6vectorS5_blmdSaNS7_14adl_serializerES9_IhSaIhEEvEESt4lessIvESaISt4pairIKS5_SD_EEE3endEv
FNDA:24,_ZNKSt3mapINSt7__cxx1112basic_stringIcSt11char_traitsIcESaIcEEEN8nlohmann16json_abi_v3_11_310basic_jsonIS_St6vectorS5_blmdSaNS7_14adl_serializerES9_IhSaIhEEvEESt4lessIvESaISt4pairIKS5_SD_EEE6cbeginEv
FNDA:48,_ZNKSt3mapINSt7__cxx1112basic_stringIcSt11char_traitsIcESaIcEEEN8nlohmann16json_abi_v3_11_310basic_jsonIS_St6vectorS5_blmdSaNS7_14adl_serializerES9_IhSaIhEEvEESt4lessIvESaISt4pairIKS5_SD_EEE4cendEv
FNDA:24,_ZNKSt3mapINSt7__cxx1112basic_stringIcSt11char_traitsIcESaIcEEEN8nlohmann16json_abi_v3_11_310basic_jsonIS_St6vectorS5_blmdSaNS7_14adl_serializerES9_IhSaIhEEvEESt4lessIvESaISt4pairIKS5_SD_EEE5emptyEv
FNDA:160,_ZNKSt3mapINSt7__cxx1112basic_stringIcSt11char_traitsIcESaIcEEEN8nlohmann16json_abi_v3_11_310basic_jsonIS_St6vectorS5_blmdSaNS7_14adl_serializerES9_IhSaIhEEvEESt4lessIvESaISt4pairIKS5_SD_EEE4sizeEv
FNDA:0,_ZNKSt3mapINSt7__cxx1112basic_stringIcSt11char_traitsIcESaIcEEEN8nlohmann16json_abi_v3_11_310basic_jsonIS_St6vectorS5_blmdSaNS7_14adl_serializerES9_IhSaIhEEvEESt4lessIvESaISt4pairIKS5_SD_EEE8max_sizeEv
FNDA:240,_ZNSt3mapINSt7__cxx1112basic_stringIcSt11char_traitsIcESaIcEEEN8nlohmann16json_abi_v3_11_310basic_jsonIS_St6vectorS5_blmdSaNS7_14adl_serializerES9_IhSaIhEEvEESt4lessIvESaISt4pairIKS5_SD_EEEixERSH_
FNDA:116,_ZNSt3mapINSt7__cxx1112basic_stringIcSt11char_traitsIcESaIcEEEN8nlohmann16json_abi_v3_11_310basic_jsonIS_St6vectorS5_blmdSaNS7_14adl_serializerES9_IhSaIhEEvEESt4lessIvESaISt4pairIKS5_SD_EEE7emplaceIJS5_DnEEESG_ISt17_Rb_tree_iteratorISI_EbEDpOT_
FNDA:0,_ZNSt3mapINSt7__cxx1112basic_stringIcSt11char_traitsIcESaIcEEEN8nlohmann16json_abi_v3_11_310basic_jsonIS_St6vectorS5_blmdSaNS7_14adl_serializerES9_IhSaIhEEvEESt4lessIvESaISt4pairIKS5_SD_EEE7emplaceIJS5_SD_EEESG_ISt17_Rb_tree_iteratorISI_EbEDpOT_
FNF:25
FNH:19
DA:197,68
DA:219,0
DA:314,68
DA:368,134
DA:369,134
DA:386,450
DA:387,450
DA:441,24
DA:442,24
DA:450,48
DA:451,48
DA:477,24
DA:478,24
DA:482,160
DA:483,160
DA:487,0
DA:488,0
DA:504,240
DA:509,240
DA:511,240
DA:513,240
DA:514,240
DA:515,240
DA:519,480
DA:588,116
DA:608,116
DA:1087,0
DA:1088,0
DA:1183,66
DA:1184,66
DA:1192,0
DA:1193,0
DA:1219,8
DA:1220,8
DA:1225,68
DA:1226,68
DA:1308,240
DA:1309,240
DA:1513,0
DA:1515,0
LF:40
LH:31
end_of_record
TN:
SF:/usr/include/c++/13/bits/stl_pair.h
FN:197,197,_ZNSt4pairIKNSt7__cxx1112basic_stringIcSt11char_traitsIcESaIcEEEN8nlohmann16json_abi_v3_11_310basic_jsonISt3mapSt6vectorS5_blmdSaNS8_14adl_serializerESB_IhSaIhEEvEEEC2ERKSG_
FN:558,559,_ZNSt4pairIPSt18_Rb_tree_node_baseS1_EC2IS1_S1_Lb1EEERKS1_S5_
FN:687,689,_ZNSt4pairIKNSt7__cxx1112basic_stringIcSt11char_traitsIcESaIcEEEN8nlohmann16json_abi_v3_11_310basic_jsonISt3mapSt6vectorS5_blmdSaNS8_14adl_serializerESB_IhSaIhEEvEEEC2IS5_DnLb1EEEOT_OT0_
FN:687,689,_ZNSt4pairIKNSt7__cxx1112basic_stringIcSt11char_traitsIcESaIcEEEN8nlohmann16json_abi_v3_11_310basic_jsonISt3mapSt6vectorS5_blmdSaNS8_14adl_serializerESB_IhSaIhEEvEEEC2IS5_SF_Lb1EEEOT_OT0_
FN:687,689,_ZNSt4pairIPSt18_Rb_tree_node_baseS1_EC2IRPSt13_Rb_tree_nodeIS_IKNSt7__cxx1112basic_stringIcSt11char_traitsIcESaIcEEEN8nlohmann16json_abi_v3_11_310basic_jsonISt3mapSt6vectorSA_blmdSaNSD_14adl_serializerESG_IhSaIhEEvEEEERS1_Lb1EEEOT_OT0_
FN:687,689,_ZNSt4pairIPSt18_Rb_tree_node_baseS1_EC2IRS1_S4_Lb1EEEOT_OT0_
FN:687,689,_ZNSt4pairISt17_Rb_tree_iteratorIS_IKNSt7__cxx1112basic_stringIcSt11char_traitsIcESaIcEEEN8nlohmann16json_abi_v3_11_310basic_jsonISt3mapSt6vectorS6_blmdSaNS9_14adl_serializerESC_IhSaIhEEvEEEEbEC2ISI_bLb1EEEOT_OT0_
FN:687,689,_ZNSt4pairIbPN8nlohmann16json_abi_v3_11_310basic_jsonISt3mapSt6vectorNSt7__cxx1112basic_stringIcSt11char_traitsIcESaIcEEEblmdSaNS1_14adl_serializerES4_IhSaIhEEvEEEC2IbDnLb1EEEOT_OT0_
FN:687,689,_ZNSt4pairIbPN8nlohmann16json_abi_v3_11_310basic_jsonISt3mapSt6vectorNSt7__cxx1112basic_stringIcSt11char_traitsIcESaIcEEEblmdSaNS1_14adl_serializerES4_IhSaIhEEvEEEC2IbRSF_Lb1EEEOT_OT0_
FN:687,689,_ZNSt4pairIbPN8nlohmann16json_abi_v3_11_310basic_jsonISt3mapSt6vectorNSt7__cxx1112basic_stringIcSt11char_traitsIcESaIcEEEblmdSaNS1_14adl_serializerES4_IhSaIhEEvEEEC2IbSF_Lb1EEEOT_OT0_
FN:812,813,_ZSteqIKNSt7__cxx1112basic_stringIcSt11char_traitsIcESaIcEEEN8nlohmann16json_abi_v3_11_310basic_jsonISt3mapSt6vectorS5_blmdSaNS8_14adl_serializerESB_IhSaIhEEvEEEbRKSt4pairIT_T0_ESL_
FNDA:0,_ZNSt4pairIKNSt7__cxx1112basic_stringIcSt11char_traitsIcESaIcEEEN8nlohmann16json_abi_v3_11_310basic_jsonISt3mapSt6vectorS5_blmdSaNS8_14adl_serializerESB_IhSaIhEEvEEEC2ERKSG_
FNDA:280,_ZNSt4pairIPSt18_Rb_tree_node_baseS1_EC2IS1_S1_Lb1EEERKS1_S5_
FNDA:116,_ZNSt4pairIKNSt7__cxx1112basic_stringIcSt11char_traitsIcESaIcEEEN8nlohmann16json_abi_v3_11_310basic_jsonISt3mapSt6vectorS5_blmdSaNS8_14adl_serializerESB_IhSaIhEEvEEEC2IS5_DnLb1EEEOT_OT0_
FNDA:0,_ZNSt4pairIKNSt7__cxx1112basic_stringIcSt11char_traitsIcESaIcEEEN8nlohmann16json_abi_v3_11_310basic_jsonISt3mapSt6vectorS5_blmdSaNS8_14adl_serializerESB_IhSaIhEEvEEEC2IS5_SF_Lb1EEEOT_OT0_
FNDA:76,_ZNSt4pairIPSt18_Rb_tree_node_baseS1_EC2IRPSt13_Rb_tree_nodeIS_IKNSt7__cxx1112basic_stringIcSt11char_traitsIcESaIcEEEN8nlohmann16json_abi_v3_11_310basic_jsonISt3mapSt6vectorSA_blmdSaNSD_14adl_serializerESG_IhSaIhEEvEEEERS1_Lb1EEEOT_OT0_
FNDA:0,_ZNSt4pairIPSt18_Rb_tree_node_baseS1_EC2IRS1_S4_Lb1EEEOT_OT0_
FNDA:116,_ZNSt4pairISt17_Rb_tree_iteratorIS_IKNSt7__cxx1112basic_stringIcSt11char_traitsIcESaIcEEEN8nlohmann16json_abi_v3_11_310basic_jsonISt3mapSt6vectorS6_blmdSaNS9_14adl_serializerESC_IhSaIhEEvEEEEbEC2ISI_bLb1EEEOT_OT0_
FNDA:0,_ZNSt4pairIbPN8nlohmann16json_abi_v3_11_310basic_jsonISt3mapSt6vectorNSt7__cxx1112basic_stringIcSt11char_traitsIcESaIcEEEblmdSaNS1_14adl_serializerES4_IhSaIhEEvEEEC2IbDnLb1EEEOT_OT0_
FNDA:0,_ZNSt4pairIbPN8nlohmann16json_abi_v3_11_310basic_jsonISt3mapSt6vectorNSt7__cxx1112basic_stringIcSt11char_traitsIcESaIcEEEblmdSaNS1_14adl_serializerES4_IhSaIhEEvEEEC2IbRSF_Lb1EEEOT_OT0_
FNDA:0,_ZNSt4pairIbPN8nlohmann16json_abi_v3_11_310basic_jsonISt3mapSt6vectorNSt7__cxx1112basic_stringIcSt11char_traitsIcESaIcEEEblmdSaNS1_14adl_serializerES4_IhSaIhEEvEEEC2IbSF_Lb1EEEOT_OT0_
FNDA:0,_ZSteqIKNSt7__cxx1112basic_stringIcSt11char_traitsIcESaIcEEEN8nlohmann16json_abi_v3_11_310basic_jsonISt3mapSt6vectorS5_blmdSaNS8_14adl_serializerESB_IhSaIhEEvEEEbRKSt4pairIT_T0_ESL_
FNF:11
FNH:4
DA:197,0
DA:558,280
DA:559,280
DA:687,308
DA:688,308
DA:689,308
DA:812,0
DA:813,0
LF:8
LH:5
end_of_record
TN:
SF:/usr/include/c++/13/bits/stl_tree.h
FN:1001,1002,_ZNKSt8_Rb_treeINSt7__cxx1112basic_stringIcSt11char_traitsIcESaIcEEESt4pairIKS5_N8nlohmann16json_abi_v3_11_310basic_jsonISt3mapSt6vectorS5_blmdSaNS9_14adl_serializerESC_IhSaIhEEvEEESt10_Select1stISH_ESt4lessIvESaISH_EE5beginEv
FN:1005,1006,_ZNSt8_Rb_treeINSt7__cxx1112basic_stringIcSt11char_traitsIcESaIcEEESt4pairIKS5_N8nlohmann16json_abi_v3_11_310basic_jsonISt3mapSt6vectorS5_blmdSaNS9_14adl_serializerESC_IhSaIhEEvEEESt10_Select1stISH_ESt4lessIvESaISH_EE3endEv
FN:1009,1010,_ZNKSt8_Rb_treeINSt7__cxx1112basic_stringIcSt11char_traitsIcESaIcEEESt4pairIKS5_N8nlohmann16json_abi_v3_11_310basic_jsonISt3mapSt6vectorS5_blmdSaNS9_14adl_serializerESC_IhSaIhEEvEEESt10_Select1stISH_ESt4lessIvESaISH_EE3endEv
FN:1029,1030,_ZNKSt8_Rb_treeINSt7__cxx1112basic_stringIcSt11char_traitsIcESaIcEEESt4pairIKS5_N8nlohmann16json_abi_v3_11_310basic_jsonISt3mapSt6vectorS5_blmdSaNS9_14adl_serializerESC_IhSaIhEEvEEESt10_Select1stISH_ESt4lessIvESaISH_EE5emptyEv
FN:1033,1034,_ZNKSt8_Rb_treeINSt7__cxx1112basic_stringIcSt11char_traitsIcESaIcEEESt4pairIKS5_N8nlohmann16json_abi_v3_11_310basic_jsonISt3mapSt6vectorS5_blmdSaNS9_14adl_serializerESC_IhSaIhEEvEEESt10_Select1stISH_ESt4lessIvESaISH_EE4sizeEv
FN:1037,1038,_ZNKSt8_Rb_treeINSt7__cxx1112basic_stringIcSt11char_traitsIcESaIcEEESt4pairIKS5_N8nlohmann16json_abi_v3_11_310basic_jsonISt3mapSt6vectorS5_blmdSaNS9_14adl_serializerESC_IhSaIhEEvEEESt10_Select1stISH_ESt4lessIvESaISH_EE8max_sizeEv
FN:112,116,_ZNSt18_Rb_tree_node_base10_S_minimumEPS_
FN:1205,1212,_ZNSt8_Rb_treeINSt7__cxx1112basic_stringIcSt11char_traitsIcESaIcEEESt4pairIKS5_N8nlohmann16json_abi_v3_11_310basic_jsonISt3mapSt6vectorS5_blmdSaNS9_14adl_serializerESC_IhSaIhEEvEEESt10_Select1stISH_ESt4lessIvESaISH_EE5eraseB5cxx11ESt17_Rb_tree_iteratorISH_E
FN:1253,1257,_ZNSt8_Rb_treeINSt7__cxx1112basic_stringIcSt11char_traitsIcESaIcEEESt4pairIKS5_N8nlohmann16json_abi_v3_11_310basic_jsonISt3mapSt6vectorS5_blmdSaNS9_14adl_serializerESC_IhSaIhEEvEEESt10_Select1stISH_ESt4lessIvESaISH_EE5clearEv
FN:126,130,_ZNSt18_Rb_tree_node_base10_S_maximumEPS_
FN:1270,1271,_ZNSt8_Rb_treeINSt7__cxx1112basic_stringIcSt11char_traitsIcESaIcEEESt4pairIKS5_N8nlohmann16json_abi_v3_11_310basic_jsonISt3mapSt6vectorS5_blmdSaNS9_14adl_serializerESC_IhSaIhEEvEEESt10_Select1stISH_ESt4lessIvESaISH_EE11lower_boundERS7_
FN:1295,1299,_ZNSt8_Rb_treeINSt7__cxx1112basic_stringIcSt11char_traitsIcESaIcEEESt4pairIKS5_N8nlohmann16json_abi_v3_11_310basic_jsonISt3mapSt6vectorS5_blmdSaNS9_14adl_serializerESC_IhSaIhEEvEEESt10_Select1stISH_ESt4lessIvESaISH_EE10_M_find_trIA10_cvEESt17_Rb_tree_iteratorISH_ERKT_
FN:1295,1299,_ZNSt8_Rb_treeINSt7__cxx1112basic_stringIcSt11char_traitsIcESaIcEEESt4pairIKS5_N8nlohmann16json_abi_v3_11_310basic_jsonISt3mapSt6vectorS5_blmdSaNS9_14adl_serializerESC_IhSaIhEEvEEESt10_Select1stISH_ESt4lessIvESaISH_EE10_M_find_trIA19_cvEESt17_Rb_tree_iteratorISH_ERKT_
FN:1295,1299,_ZNSt8_Rb_treeINSt7__cxx1112basic_stringIcSt11char_traitsIcESaIcEEESt4pairIKS5_N8nlohmann16json_abi_v3_11_310basic_jsonISt3mapSt6vectorS5_blmdSaNS9_14adl_serializerESC_IhSaIhEEvEEESt10_Select1stISH_ESt4lessIvESaISH_EE10_M_find_trIA20_cvEESt17_Rb_tree_iteratorISH_ERKT_
FN:1295,1299,_ZNSt8_Rb_treeINSt7__cxx1112basic_stringIcSt11char_traitsIcESaIcEEESt4pairIKS5_N8nlohmann16json_abi_v3_11_310basic_jsonISt3mapSt6vectorS5_blmdSaNS9_14adl_serializerESC_IhSaIhEEvEEESt10_Select1stISH_ESt4lessIvESaISH_EE10_M_find_trIA21_cvEESt17_Rb_tree_iteratorISH_ERKT_
FN:1295,1299,_ZNSt8_Rb_treeINSt7__cxx1112basic_stringIcSt11char_traitsIcESaIcEEESt4pairIKS5_N8nlohmann16json_abi_v3_11_310basic_jsonISt3mapSt6vectorS5_blmdSaNS9_14adl_serializerESC_IhSaIhEEvEEESt10_Select1stISH_ESt4lessIvESaISH_EE10_M_find_trIA23_cvEESt17_Rb_tree_iteratorISH_ERKT_
FN:1295,1299,_ZNSt8_Rb_treeINSt7__cxx1112basic_stringIcSt11char_traitsIcESaIcEEESt4pairIKS5_N8nlohmann16json_abi_v3_11_310basic_jsonISt3mapSt6vectorS5_blmdSaNS9_14adl_serializerESC_IhSaIhEEvEEESt10_Select1stISH_ESt4lessIvESaISH_EE10_M_find_trIA8_cvEESt17_Rb_tree_iteratorISH_ERKT_
FN:1304,1310,_ZNKSt8_Rb_treeINSt7__cxx1112basic_stringIcSt11char_traitsIcESaIcEEESt4pairIKS5_N8nlohmann16json_abi_v3_11_310basic_jsonISt3mapSt6vectorS5_blmdSaNS9_14adl_serializerESC_IhSaIhEEvEEESt10_Select1stISH_ESt4lessIvESaISH_EE10_M_find_trIA10_cvEESt23_Rb_tree_const_iteratorISH_ERKT_
FN:1304,1310,_ZNKSt8_Rb_treeINSt7__cxx1112basic_stringIcSt11char_traitsIcESaIcEEESt4pairIKS5_N8nlohmann16json_abi_v3_11_310basic_jsonISt3mapSt6vectorS5_blmdSaNS9_14adl_serializerESC_IhSaIhEEvEEESt10_Select1stISH_ESt4lessIvESaISH_EE10_M_find_trIA19_cvEESt23_Rb_tree_const_iteratorISH_ERKT_
FN:1304,1310,_ZNKSt8_Rb_treeINSt7__cxx1112basic_stringIcSt11char_traitsIcESaIcEEESt4pairIKS5_N8nlohmann16json_abi_v3_11_310basic_jsonISt3mapSt6vectorS5_blmdSaNS9_14adl_serializerESC_IhSaIhEEvEEESt10_Select1stISH_ESt4lessIvESaISH_EE10_M_find_trIA20_cvEESt23_Rb_tree_const_iteratorISH_ERKT_
FN:1304,1310,_ZNKSt8_Rb_treeINSt7__cxx1112basic_stringIcSt11char_traitsIcESaIcEEESt4pairIKS5_N8nlohmann16json_abi_v3_11_310basic_jsonISt3mapSt6vectorS5_blmdSaNS9_14adl_serializerESC_IhSaIhEEvEEESt10_Select1stISH_ESt4lessIvESaISH_EE10_M_find_trIA21_cvEESt23_Rb_tree_const_iteratorISH_ERKT_
FN:1304,1310,_ZNKSt8_Rb_treeINSt7__cxx1112basic_stringIcSt11char_traitsIcESaIcEEESt4pairIKS5_N8nlohmann16json_abi_v3_11_310basic_jsonISt3mapSt6vectorS5_blmdSaNS9_14adl_serializerESC_IhSaIhEEvEEESt10_Select1stISH_ESt4lessIvESaISH_EE10_M_find_trIA23_cvEESt23_Rb_tree_const_iteratorISH_ERKT_
FN:1304,1310,_ZNKSt8_Rb_treeINSt7__cxx1112basic_stringIcSt11char_traitsIcESaIcEEESt4pairIKS5_N8nlohmann16json_abi_v3_11_310basic_jsonISt3mapSt6vectorS5_blmdSaNS9_14adl_serializerESC_IhSaIhEEvEEESt10_Select1stISH_ESt4lessIvESaISH_EE10_M_find_trIA8_cvEESt23_Rb_tree_const_iteratorISH_ERKT_
FN:1333,1346,_ZNKSt8_Rb_treeINSt7__cxx1112basic_stringIcSt11char_traitsIcESaIcEEESt4pairIKS5_N8nlohmann16json_abi_v3_11_310basic_jsonISt3mapSt6vectorS5_blmdSaNS9_14adl_serializerESC_IhSaIhEEvEEESt10_Select1stISH_ESt4lessIvESaISH_EE17_M_lower_bound_trIA10_cvEESt23_Rb_tree_const_iteratorISH_ERKT_
FN:1333,1346,_ZNKSt8_Rb_treeINSt7__cxx1112basic_stringIcSt11char_traitsIcESaIcEEESt4pairIKS5_N8nlohmann16json_abi_v3_11_310basic_jsonISt3mapSt6vectorS5_blmdSaNS9_14adl_serializerESC_IhSaIhEEvEEESt10_Select1stISH_ESt4lessIvESaISH_EE17_M_lower_bound_trIA19_cvEESt23_Rb_tree_const_iteratorISH_ERKT_
FN:1333,1346,_ZNKSt8_Rb_treeINSt7__cxx1112basic_stringIcSt11char_traitsIcESaIcEEESt4pairIKS5_N8nlohmann16json_abi_v3_11_310basic_jsonISt3mapSt6vectorS5_blmdSaNS9_14adl_serializerESC_IhSaIhEEvEEESt10_Select1stISH_ESt4lessIvESaISH_EE17_M_lower_bound_trIA20_cvEESt23_Rb_tree_const_iteratorISH_ERKT_
FN:1333,1346,_ZNKSt8_Rb_treeINSt7__cxx1112basic_stringIcSt11char_traitsIcESaIcEEESt4pairIKS5_N8nlohmann16json_abi_v3_11_310basic_jsonISt3mapSt6vectorS5_blmdSaNS9_14adl_serializerESC_IhSaIhEEvEEESt10_Select1stISH_ESt4lessIvESaISH_EE17_M_lower_bound_trIA21_cvEESt23_Rb_tree_const_iteratorISH_ERKT_
FN:1333,1346,_ZNKSt8_Rb_treeINSt7__cxx1112basic_stringIcSt11char_traitsIcESaIcEEESt4pairIKS5_N8nlohmann16json_abi_v3_11_310basic_jsonISt3mapSt6vectorS5_blmdSaNS9_14adl_serializerESC_IhSaIhEEvEEESt10_Select1stISH_ESt4lessIvESaISH_EE17_M_lower_bound_trIA23_cvEESt23_Rb_tree_const_iteratorISH_ERKT_
FN:1333,1346,_ZNKSt8_Rb_treeINSt7__cxx1112basic_stringIcSt11char_traitsIcESaIcEEESt4pairIKS5_N8nlohmann16json_abi_v3_11_310basic_jsonISt3mapSt6vectorS5_blmdSaNS9_14adl_serializerESC_IhSaIhEEvEEESt10_Select1stISH_ESt4lessIvESaISH_EE17_M_lower_bound_trIA8_cvEESt23_Rb_tree_const_iteratorISH_ERKT_
FN:146,150,_ZNSt20_Rb_tree_key_compareISt4lessIvEEC2Ev
FN:152,154,_ZNSt20_Rb_tree_key_compareISt4lessIvEEC2ERKS1_
FN:1605,1609,_ZSteqRKSt8_Rb_treeINSt7__cxx1112basic_stringIcSt11char_traitsIcESaIcEEESt4pairIKS5_N8nlohmann16json_abi_v3_11_310basic_jsonISt3mapSt6vectorS5_blmdSaNS9_14adl_serializerESC_IhSaIhEEvEEESt10_Select1stISH_ESt4lessIvESaISH_EESP_
FN:1635,1638,_ZNSt8_Rb_treeINSt7__cxx1112basic_stringIcSt11char_traitsIcESaIcEEESt4pairIKS5_N8nlohmann16json_abi_v3_11_310basic_jsonISt3mapSt6vectorS5_blmdSaNS9_14adl_serializerESC_IhSaIhEEvEEESt10_Select1stISH_ESt4lessIvESaISH_EE10_Auto_nodeC2IJRKSt21piecewise_construct_tSt5tupleIJRS7_EEST_IJEEEEERSN_DpOT_
FN:1635,1638,_ZNSt8_Rb_treeINSt7__cxx1112basic_stringIcSt11char_traitsIcESaIcEEESt4pairIKS5_N8nlohmann16json_abi_v3_11_310basic_jsonISt3mapSt6vectorS5_blmdSaNS9_14adl_serializerESC_IhSaIhEEvEEESt10_Select1stISH_ESt4lessIvESaISH_EE10_Auto_nodeC2IJS5_DnEEERSN_DpOT_
FN:1635,1638,_ZNSt8_Rb_treeINSt7__cxx1112basic_stringIcSt11char_traitsIcESaIcEEESt4pairIKS5_N8nlohmann16json_abi_v3_11_310basic_jsonISt3mapSt6vectorS5_blmdSaNS9_14adl_serializerESC_IhSaIhEEvEEESt10_Select1stISH_ESt4lessIvESaISH_EE10_Auto_nodeC2IJS5_SG_EEERSN_DpOT_
FN:1640,1644,_ZNSt8_Rb_treeINSt7__cxx1112basic_stringIcSt11char_traitsIcESaIcEEESt4pairIKS5_N8nlohmann16json_abi_v3_11_310basic_jsonISt3mapSt6vectorS5_blmdSaNS9_14adl_serializerESC_IhSaIhEEvEEESt10_Select1stISH_ESt4lessIvESaISH_EE10_Auto_nodeD2Ev
FN:1651,1652,_ZNKSt8_Rb_treeINSt7__cxx1112basic_stringIcSt11char_traitsIcESaIcEEESt4pairIKS5_N8nlohmann16json_abi_v3_11_310basic_jsonISt3mapSt6vectorS5_blmdSaNS9_14adl_serializerESC_IhSaIhEEvEEESt10_Select1stISH_ESt4lessIvESaISH_EE10_Auto_node6_M_keyEv
FN:1655,1660,_ZNSt8_Rb_treeINSt7__cxx1112basic_stringIcSt11char_traitsIcESaIcEEESt4pairIKS5_N8nlohmann16json_abi_v3_11_310basic_jsonISt3mapSt6vectorS5_blmdSaNS9_14adl_serializerESC_IhSaIhEEvEEESt10_Select1stISH_ESt4lessIvESaISH_EE10_Auto_node9_M_insertES6_IPSt18_Rb_tree_node_baseSQ_E
FN:173,177,_ZNSt15_Rb_tree_headerC2Ev
FN:1892,1925,_ZNSt8_Rb_treeINSt7__cxx1112basic_stringIcSt11char_traitsIcESaIcEEESt4pairIKS5_N8nlohmann16json_abi_v3_11_310basic_jsonISt3mapSt6vectorS5_blmdSaNS9_14adl_serializerESC_IhSaIhEEvEEESt10_Select1stISH_ESt4lessIvESaISH_EE7_M_copyILb0ENSN_11_Alloc_nodeEEEPSt13_Rb_tree_nodeISH_ESS_PSt18_Rb_tree_node_baseRT0_
FN:1930,1941,_ZNSt8_Rb_treeINSt7__cxx1112basic_stringIcSt11char_traitsIcESaIcEEESt4pairIKS5_N8nlohmann16json_abi_v3_11_310basic_jsonISt3mapSt6vectorS5_blmdSaNS9_14adl_serializerESC_IhSaIhEEvEEESt10_Select1stISH_ESt4lessIvESaISH_EE8_M_eraseEPSt13_Rb_tree_nodeISH_E
FN:1947,1957,_ZNSt8_Rb_treeINSt7__cxx1112basic_stringIcSt11char_traitsIcESaIcEEESt4pairIKS5_N8nlohmann16json_abi_v3_11_310basic_jsonISt3mapSt6vectorS5_blmdSaNS9_14adl_serializerESC_IhSaIhEEvEEESt10_Select1stISH_ESt4lessIvESaISH_EE14_M_lower_boundEPSt13_Rb_tree_nodeISH_EPSt18_Rb_tree_node_baseRS7_
FN:206,212,_ZNSt15_Rb_tree_header8_M_resetEv
FN:2108,2132,_ZNSt8_Rb_treeINSt7__cxx1112basic_stringIcSt11char_traitsIcESaIcEEESt4pairIKS5_N8nlohmann16json_abi_v3_11_310basic_jsonISt3mapSt6vectorS5_blmdSaNS9_14adl_serializerESC_IhSaIhEEvEEESt10_Select1stISH_ESt4lessIvESaISH_EE24_M_get_insert_unique_posERS7_
FN:2210,2261,_ZNSt8_Rb_treeINSt7__cxx1112basic_stringIcSt11char_traitsIcESaIcEEESt4pairIKS5_N8nlohmann16json_abi_v3_11_310basic_jsonISt3mapSt6vectorS5_blmdSaNS9_14adl_serializerESC_IhSaIhEEvEEESt10_Select1stISH_ESt4lessIvESaISH_EE29_M_get_insert_hint_unique_posESt23_Rb_tree_const_iteratorISH_ERS7_
FN:234,235,_ZNSt13_Rb_tree_nodeISt4pairIKNSt7__cxx1112basic_stringIcSt11char_traitsIcESaIcEEEN8nlohmann16json_abi_v3_11_310basic_jsonISt3mapSt6vectorS6_blmdSaNS9_14adl_serializerESC_IhSaIhEEvEEEE9_M_valptrEv
FN:2377,2389,_ZNSt8_Rb_treeINSt7__cxx1112basic_stringIcSt11char_traitsIcESaIcEEESt4pairIKS5_N8nlohmann16json_abi_v3_11_310basic_jsonISt3mapSt6vectorS5_blmdSaNS9_14adl_serializerESC_IhSaIhEEvEEESt10_Select1stISH_ESt4lessIvESaISH_EE14_M_insert_nodeEPSt18_Rb_tree_node_baseSP_PSt13_Rb_tree_nodeISH_E
FN:238,239,_ZNKSt13_Rb_tree_nodeISt4pairIKNSt7__cxx1112basic_stringIcSt11char_traitsIcESaIcEEEN8nlohmann16json_abi_v3_11_310basic_jsonISt3mapSt6vectorS6_blmdSaNS9_14adl_serializerESC_IhSaIhEEvEEEE9_M_valptrEv
FN:2430,2439,_ZNSt8_Rb_treeINSt7__cxx1112basic_stringIcSt11char_traitsIcESaIcEEESt4pairIKS5_N8nlohmann16json_abi_v3_11_310basic_jsonISt3mapSt6vectorS5_blmdSaNS9_14adl_serializerESC_IhSaIhEEvEEESt10_Select1stISH_ESt4lessIvESaISH_EE17_M_emplace_uniqueIJS5_DnEEES6_ISt17_Rb_tree_iteratorISH_EbEDpOT_
FN:2430,2439,_ZNSt8_Rb_treeINSt7__cxx1112basic_stringIcSt11char_traitsIcESaIcEEESt4pairIKS5_N8nlohmann16json_abi_v3_11_310basic_jsonISt3mapSt6vectorS5_blmdSaNS9_14adl_serializerESC_IhSaIhEEvEEESt10_Select1stISH_ESt4lessIvESaISH_EE17_M_emplace_uniqueIJS5_SG_EEES6_ISt17_Rb_tree_iteratorISH_EbEDpOT_
FN:2458,2467,_ZNSt8_Rb_treeINSt7__cxx1112basic_stringIcSt11char_traitsIcESaIcEEESt4pairIKS5_N8nlohmann16json_abi_v3_11_310basic_jsonISt3mapSt6vectorS5_blmdSaNS9_14adl_serializerESC_IhSaIhEEvEEESt10_Select1stISH_ESt4lessIvESaISH_EE22_M_emplace_hint_uniqueIJRKSt21piecewise_construct_tSt5tupleIJRS7_EESS_IJEEEEESt17_Rb_tree_iteratorISH_ESt23_Rb_tree_const_iteratorISH_EDpOT_
FN:2489,2498,_ZNSt8_Rb_treeINSt7__cxx1112basic_stringIcSt11char_traitsIcESaIcEEESt4pairIKS5_N8nlohmann16json_abi_v3_11_310basic_jsonISt3mapSt6vectorS5_blmdSaNS9_14adl_serializerESC_IhSaIhEEvEEESt10_Select1stISH_ESt4lessIvESaISH_EE12_M_erase_auxESt23_Rb_tree_const_iteratorISH_E
FN:2529,2536,_ZNSt8_Rb_treeINSt7__cxx1112basic_stringIcSt11char_traitsIcESaIcEEESt4pairIKS5_N8nlohmann16json_abi_v3_11_310basic_jsonISt3mapSt6vectorS5_blmdSaNS9_14adl_serializerESC_IhSaIhEEvEEESt10_Select1stISH_ESt4lessIvESaISH_EE4findERS7_
FN:269,270,_ZNSt17_Rb_tree_iteratorISt4pairIKNSt7__cxx1112basic_stringIcSt11char_traitsIcESaIcEEEN8nlohmann16json_abi_v3_11_310basic_jsonISt3mapSt6vectorS6_blmdSaNS9_14adl_serializerESC_IhSaIhEEvEEEEC2Ev
FN:273,274,_ZNSt17_Rb_tree_iteratorISt4pairIKNSt7__cxx1112basic_stringIcSt11char_traitsIcESaIcEEEN8nlohmann16json_abi_v3_11_310basic_jsonISt3mapSt6vectorS6_blmdSaNS9_14adl_serializerESC_IhSaIhEEvEEEEC2EPSt18_Rb_tree_node_base
FN:277,278,_ZNKSt17_Rb_tree_iteratorISt4pairIKNSt7__cxx1112basic_stringIcSt11char_traitsIcESaIcEEEN8nlohmann16json_abi_v3_11_310basic_jsonISt3mapSt6vectorS6_blmdSaNS9_14adl_serializerESC_IhSaIhEEvEEEEdeEv
FN:281,282,_ZNKSt17_Rb_tree_iteratorISt4pairIKNSt7__cxx1112basic_stringIcSt11char_traitsIcESaIcEEEN8nlohmann16json_abi_v3_11_310basic_jsonISt3mapSt6vectorS6_blmdSaNS9_14adl_serializerESC_IhSaIhEEvEEEEptEv
FN:285,289,_ZNSt17_Rb_tree_iteratorISt4pairIKNSt7__cxx1112basic_stringIcSt11char_traitsIcESaIcEEEN8nlohmann16json_abi_v3_11_310basic_jsonISt3mapSt6vectorS6_blmdSaNS9_14adl_serializerESC_IhSaIhEEvEEEEppEv
FN:300,304,_ZNSt17_Rb_tree_iteratorISt4pairIKNSt7__cxx1112basic_stringIcSt11char_traitsIcESaIcEEEN8nlohmann16json_abi_v3_11_310basic_jsonISt3mapSt6vectorS6_blmdSaNS9_14adl_serializerESC_IhSaIhEEvEEEEmmEv
FN:315,316,_ZSteqRKSt17_Rb_tree_iteratorISt4pairIKNSt7__cxx1112basic_stringIcSt11char_traitsIcESaIcEEEN8nlohmann16json_abi_v3_11_310basic_jsonISt3mapSt6vectorS6_blmdSaNS9_14adl_serializerESC_IhSaIhEEvEEEESK_
FN:320,321,_ZStneRKSt17_Rb_tree_iteratorISt4pairIKNSt7__cxx1112basic_stringIcSt11char_traitsIcESaIcEEEN8nlohmann16json_abi_v3_11_310basic_jsonISt3mapSt6vectorS6_blmdSaNS9_14adl_serializerESC_IhSaIhEEvEEEESK_
FN:347,348,_ZNSt23_Rb_tree_const_iteratorISt4pairIKNSt7__cxx1112basic_stringIcSt11char_traitsIcESaIcEEEN8nlohmann16json_abi_v3_11_310basic_jsonISt3mapSt6vectorS6_blmdSaNS9_14adl_serializerESC_IhSaIhEEvEEEEC2EPKSt18_Rb_tree_node_base
FN:350,351,_ZNSt23_Rb_tree_const_iteratorISt4pairIKNSt7__cxx1112basic_stringIcSt11char_traitsIcESaIcEEEN8nlohmann16json_abi_v3_11_310basic_jsonISt3mapSt6vectorS6_blmdSaNS9_14adl_serializerESC_IhSaIhEEvEEEEC2ERKSt17_Rb_tree_iteratorISH_E
FN:354,355,_ZNKSt23_Rb_tree_const_iteratorISt4pairIKNSt7__cxx1112basic_stringIcSt11char_traitsIcESaIcEEEN8nlohmann16json_abi_v3_11_310basic_jsonISt3mapSt6vectorS6_blmdSaNS9_14adl_serializerESC_IhSaIhEEvEEEE13_M_const_castEv
FN:358,359,_ZNKSt23_Rb_tree_const_iteratorISt4pairIKNSt7__cxx1112basic_stringIcSt11char_traitsIcESaIcEEEN8nlohmann16json_abi_v3_11_310basic_jsonISt3mapSt6vectorS6_blmdSaNS9_14adl_serializerESC_IhSaIhEEvEEEEdeEv
FN:362,363,_ZNKSt23_Rb_tree_const_iteratorISt4pairIKNSt7__cxx1112basic_stringIcSt11char_traitsIcESaIcEEEN8nlohmann16json_abi_v3_11_310basic_jsonISt3mapSt6vectorS6_blmdSaNS9_14adl_serializerESC_IhSaIhEEvEEEEptEv
FN:366,370,_ZNSt23_Rb_tree_const_iteratorISt4pairIKNSt7__cxx1112basic_stringIcSt11char_traitsIcESaIcEEEN8nlohmann16json_abi_v3_11_310basic_jsonISt3mapSt6vectorS6_blmdSaNS9_14adl_serializerESC_IhSaIhEEvEEEEppEv
FN:381,385,_ZNSt23_Rb_tree_const_iteratorISt4pairIKNSt7__cxx1112basic_stringIcSt11char_traitsIcESaIcEEEN8nlohmann16json_abi_v3_11_310basic_jsonISt3mapSt6vectorS6_blmdSaNS9_14adl_serializerESC_IhSaIhEEvEEEEmmEv
FN:396,397,_ZSteqRKSt23_Rb_tree_const_iteratorISt4pairIKNSt7__cxx1112basic_stringIcSt11char_traitsIcESaIcEEEN8nlohmann16json_abi_v3_11_310basic_jsonISt3mapSt6vectorS6_blmdSaNS9_14adl_serializerESC_IhSaIhEEvEEEESK_
FN:401,402,_ZStneRKSt23_Rb_tree_const_iteratorISt4pairIKNSt7__cxx1112basic_stringIcSt11char_traitsIcESaIcEEEN8nlohmann16json_abi_v3_11_310basic_jsonISt3mapSt6vectorS6_blmdSaNS9_14adl_serializerESC_IhSaIhEEvEEEESK_
FN:525,526,_ZNSt8_Rb_treeINSt7__cxx1112basic_stringIcSt11char_traitsIcESaIcEEESt4pairIKS5_N8nlohmann16json_abi_v3_11_310basic_jsonISt3mapSt6vectorS5_blmdSaNS9_14adl_serializerESC_IhSaIhEEvEEESt10_Select1stISH_ESt4lessIvESaISH_EE11_Alloc_nodeC2ERSN_
FN:530,531,_ZNKSt8_Rb_treeINSt7__cxx1112basic_stringIcSt11char_traitsIcESaIcEEESt4pairIKS5_N8nlohmann16json_abi_v3_11_310basic_jsonISt3mapSt6vectorS5_blmdSaNS9_14adl_serializerESC_IhSaIhEEvEEESt10_Select1stISH_ESt4lessIvESaISH_EE11_Alloc_nodeclIRKSH_EEPSt13_Rb_tree_nodeISH_EOT_
FN:549,550,_ZNSt8_Rb_treeINSt7__cxx1112basic_stringIcSt11char_traitsIcESaIcEEESt4pairIKS5_N8nlohmann16json_abi_v3_11_310basic_jsonISt3mapSt6vectorS5_blmdSaNS9_14adl_serializerESC_IhSaIhEEvEEESt10_Select1stISH_ESt4lessIvESaISH_EE21_M_get_Node_allocatorEv
FN:553,554,_ZNKSt8_Rb_treeINSt7__cxx1112basic_stringIcSt11char_traitsIcESaIcEEESt4pairIKS5_N8nlohmann16json_abi_v3_11_310basic_jsonISt3mapSt6vectorS5_blmdSaNS9_14adl_serializerESC_IhSaIhEEvEEESt10_Select1stISH_ESt4lessIvESaISH_EE21_M_get_Node_allocatorEv
FN:562,563,_ZNSt8_Rb_treeINSt7__cxx1112basic_stringIcSt11char_traitsIcESaIcEEESt4pairIKS5_N8nlohmann16json_abi_v3_11_310basic_jsonISt3mapSt6vectorS5_blmdSaNS9_14adl_serializerESC_IhSaIhEEvEEESt10_Select1stISH_ESt4lessIvESaISH_EE11_M_get_nodeEv
FN:566,567,_ZNSt8_Rb_treeINSt7__cxx1112basic_stringIcSt11char_traitsIcESaIcEEESt4pairIKS5_N8nlohmann16json_abi_v3_11_310basic_jsonISt3mapSt6vectorS5_blmdSaNS9_14adl_serializerESC_IhSaIhEEvEEESt10_Select1stISH_ESt4lessIvESaISH_EE11_M_put_nodeEPSt13_Rb_tree_nodeISH_E
FN:592,607,_ZNSt8_Rb_treeINSt7__cxx1112basic_stringIcSt11char_traitsIcESaIcEEESt4pairIKS5_N8nlohmann16json_abi_v3_11_310basic_jsonISt3mapSt6vectorS5_blmdSaNS9_14adl_serializerESC_IhSaIhEEvEEESt10_Select1stISH_ESt4lessIvESaISH_EE17_M_construct_nodeIJRKSH_EEEvPSt13_Rb_tree_nodeISH_EDpOT_
FN:592,607,_ZNSt8_Rb_treeINSt7__cxx1112basic_stringIcSt11char_traitsIcESaIcEEESt4pairIKS5_N8nlohmann16json_abi_v3_11_310basic_jsonISt3mapSt6vectorS5_blmdSaNS9_14adl_serializerESC_IhSaIhEEvEEESt10_Select1stISH_ESt4lessIvESaISH_EE17_M_construct_nodeIJRKSt21piecewise_construct_tSt5tupleIJRS7_EESS_IJEEEEEvPSt13_Rb_tree_nodeISH_EDpOT_
FN:592,607,_ZNSt8_Rb_treeINSt7__cxx1112basic_stringIcSt11char_traitsIcESaIcEEESt4pairIKS5_N8nlohmann16json_abi_v3_11_310basic_jsonISt3mapSt6vectorS5_blmdSaNS9_14adl_serializerESC_IhSaIhEEvEEESt10_Select1stISH_ESt4lessIvESaISH_EE17_M_construct_nodeIJS5_DnEEEvPSt13_Rb_tree_nodeISH_EDpOT_
FN:592,607,_ZNSt8_Rb_treeINSt7__cxx1112basic_stringIcSt11char_traitsIcESaIcEEESt4pairIKS5_N8nlohmann16json_abi_v3_11_310basic_jsonISt3mapSt6vectorS5_blmdSaNS9_14adl_serializerESC_IhSaIhEEvEEESt10_Select1stISH_ESt4lessIvESaISH_EE17_M_construct_nodeIJS5_SG_EEEvPSt13_Rb_tree_nodeISH_EDpOT_
FN:611,616,_ZNSt8_Rb_treeINSt7__cxx1112basic_stringIcSt11char_traitsIcESaIcEEESt4pairIKS5_N8nlohmann16json_abi_v3_11_310basic_jsonISt3mapSt6vectorS5_blmdSaNS9_14adl_serializerESC_IhSaIhEEvEEESt10_Select1stISH_ESt4lessIvESaISH_EE14_M_create_nodeIJRKSH_EEEPSt13_Rb_tree_nodeISH_EDpOT_
FN:611,616,_ZNSt8_Rb_treeINSt7__cxx1112basic_stringIcSt11char_traitsIcESaIcEEESt4pairIKS5_N8nlohmann16json_abi_v3_11_310basic_jsonISt3mapSt6vectorS5_blmdSaNS9_14adl_serializerESC_IhSaIhEEvEEESt10_Select1stISH_ESt4lessIvESaISH_EE14_M_create_nodeIJRKSt21piecewise_construct_tSt5tupleIJRS7_EESS_IJEEEEEPSt13_Rb_tree_nodeISH_EDpOT_
FN:611,616,_ZNSt8_Rb_treeINSt7__cxx1112basic_stringIcSt11char_traitsIcESaIcEEESt4pairIKS5_N8nlohmann16json_abi_v3_11_310basic_jsonISt3mapSt6vectorS5_blmdSaNS9_14adl_serializerESC_IhSaIhEEvEEESt10_Select1stISH_ESt4lessIvESaISH_EE14_M_create_nodeIJS5_DnEEEPSt13_Rb_tree_nodeISH_EDpOT_
FN:611,616,_ZNSt8_Rb_treeINSt7__cxx1112basic_stringIcSt11char_traitsIcESaIcEEESt4pairIKS5_N8nlohmann16json_abi_v3_11_310basic_jsonISt3mapSt6vectorS5_blmdSaNS9_14adl_serializerESC_IhSaIhEEvEEESt10_Select1stISH_ESt4lessIvESaISH_EE14_M_create_nodeIJS5_SG_EEEPSt13_Rb_tree_nodeISH_EDpOT_
FN:620,628,_ZNSt8_Rb_treeINSt7__cxx1112basic_stringIcSt11char_traitsIcESaIcEEESt4pairIKS5_N8nlohmann16json_abi_v3_11_310basic_jsonISt3mapSt6vectorS5_blmdSaNS9_14adl_serializerESC_IhSaIhEEvEEESt10_Select1stISH_ESt4lessIvESaISH_EE15_M_destroy_nodeEPSt13_Rb_tree_nodeISH_E
FN:631,635,_ZNSt8_Rb_treeINSt7__cxx1112basic_stringIcSt11char_traitsIcESaIcEEESt4pairIKS5_N8nlohmann16json_abi_v3_11_310basic_jsonISt3mapSt6vectorS5_blmdSaNS9_14adl_serializerESC_IhSaIhEEvEEESt10_Select1stISH_ESt4lessIvESaISH_EE12_M_drop_nodeEPSt13_Rb_tree_nodeISH_E
FN:639,652,_ZNSt8_Rb_treeINSt7__cxx1112basic_stringIcSt11char_traitsIcESaIcEEESt4pairIKS5_N8nlohmann16json_abi_v3_11_310basic_jsonISt3mapSt6vectorS5_blmdSaNS9_14adl_serializerESC_IhSaIhEEvEEESt10_Select1stISH_ESt4lessIvESaISH_EE13_M_clone_nodeILb0ENSN_11_Alloc_nodeEEEPSt13_Rb_tree_nodeISH_ESS_RT0_
FN:669,674,_ZNSt8_Rb_treeINSt7__cxx1112basic_stringIcSt11char_traitsIcESaIcEEESt4pairIKS5_N8nlohmann16json_abi_v3_11_310basic_jsonISt3mapSt6vectorS5_blmdSaNS9_14adl_serializerESC_IhSaIhEEvEEESt10_Select1stISH_ESt4lessIvESaISH_EE13_Rb_tree_implISL_Lb1EEC2Ev
FN:676,680,_ZNSt8_Rb_treeINSt7__cxx1112basic_stringIcSt11char_traitsIcESaIcEEESt4pairIKS5_N8nlohmann16json_abi_v3_11_310basic_jsonISt3mapSt6vectorS5_blmdSaNS9_14adl_serializerESC_IhSaIhEEvEEESt10_Select1stISH_ESt4lessIvESaISH_EE13_Rb_tree_implISL_Lb1EEC2ERKSP_
FN:712,713,_ZNSt8_Rb_treeINSt7__cxx1112basic_stringIcSt11char_traitsIcESaIcEEESt4pairIKS5_N8nlohmann16json_abi_v3_11_310basic_jsonISt3mapSt6vectorS5_blmdSaNS9_14adl_serializerESC_IhSaIhEEvEEESt10_Select1stISH_ESt4lessIvESaISH_EE7_M_rootEv
FN:716,717,_ZNKSt8_Rb_treeINSt7__cxx1112basic_stringIcSt11char_traitsIcESaIcEEESt4pairIKS5_N8nlohmann16json_abi_v3_11_310basic_jsonISt3mapSt6vectorS5_blmdSaNS9_14adl_serializerESC_IhSaIhEEvEEESt10_Select1stISH_ESt4lessIvESaISH_EE7_M_rootEv
FN:720,721,_ZNSt8_Rb_treeINSt7__cxx1112basic_stringIcSt11char_traitsIcESaIcEEESt4pairIKS5_N8nlohmann16json_abi_v3_11_310basic_jsonISt3mapSt6vectorS5_blmdSaNS9_14adl_serializerESC_IhSaIhEEvEEESt10_Select1stISH_ESt4lessIvESaISH_EE11_M_leftmostEv
FN:728,729,_ZNSt8_Rb_treeINSt7__cxx1112basic_stringIcSt11char_traitsIcESaIcEEESt4pairIKS5_N8nlohmann16json_abi_v3_11_310basic_jsonISt3mapSt6vectorS5_blmdSaNS9_14adl_serializerESC_IhSaIhEEvEEESt10_Select1stISH_ESt4lessIvESaISH_EE12_M_rightmostEv
FN:736,737,_ZNKSt8_Rb_treeINSt7__cxx1112basic_stringIcSt11char_traitsIcESaIcEEESt4pairIKS5_N8nlohmann16json_abi_v3_11_310basic_jsonISt3mapSt6vectorS5_blmdSaNS9_14adl_serializerESC_IhSaIhEEvEEESt10_Select1stISH_ESt4lessIvESaISH_EE9_M_mbeginEv
FN:740,741,_ZNSt8_Rb_treeINSt7__cxx1112basic_stringIcSt11char_traitsIcESaIcEEESt4pairIKS5_N8nlohmann16json_abi_v3_11_310basic_jsonISt3mapSt6vectorS5_blmdSaNS9_14adl_serializerESC_IhSaIhEEvEEESt10_Select1stISH_ESt4lessIvESaISH_EE8_M_beginEv
FN:744,748,_ZNKSt8_Rb_treeINSt7__cxx1112basic_stringIcSt11char_traitsIcESaIcEEESt4pairIKS5_N8nlohmann16json_abi_v3_11_310basic_jsonISt3mapSt6vectorS5_blmdSaNS9_14adl_serializerESC_IhSaIhEEvEEESt10_Select1stISH_ESt4lessIvESaISH_EE8_M_beginEv
FN:751,752,_ZNSt8_Rb_treeINSt7__cxx1112basic_stringIcSt11char_traitsIcESaIcEEESt4pairIKS5_N8nlohmann16json_abi_v3_11_310basic_jsonISt3mapSt6vectorS5_blmdSaNS9_14adl_serializerESC_IhSaIhEEvEEESt10_Select1stISH_ESt4lessIvESaISH_EE6_M_endEv
FN:755,756,_ZNKSt8_Rb_treeINSt7__cxx1112basic_stringIcSt11char_traitsIcESaIcEEESt4pairIKS5_N8nlohmann16json_abi_v3_11_310basic_jsonISt3mapSt6vectorS5_blmdSaNS9_14adl_serializerESC_IhSaIhEEvEEESt10_Select1stISH_ESt4lessIvESaISH_EE6_M_endEv
FN:759,778,_ZNSt8_Rb_treeINSt7__cxx1112basic_stringIcSt11char_traitsIcESaIcEEESt4pairIKS5_N8nlohmann16json_abi_v3_11_310basic_jsonISt3mapSt6vectorS5_blmdSaNS9_14adl_serializerESC_IhSaIhEEvEEESt10_Select1stISH_ESt4lessIvESaISH_EE6_S_keyEPKSt13_Rb_tree_nodeISH_E
FN:781,782,_ZNSt8_Rb_treeINSt7__cxx1112basic_stringIcSt11char_traitsIcESaIcEEESt4pairIKS5_N8nlohmann16json_abi_v3_11_310basic_jsonISt3mapSt6vectorS5_blmdSaNS9_14adl_serializerESC_IhSaIhEEvEEESt10_Select1stISH_ESt4lessIvESaISH_EE7_S_leftEPSt18_Rb_tree_node_base
FN:785,786,_ZNSt8_Rb_treeINSt7__cxx1112basic_stringIcSt11char_traitsIcESaIcEEESt4pairIKS5_N8nlohmann16json_abi_v3_11_310basic_jsonISt3mapSt6vectorS5_blmdSaNS9_14adl_serializerESC_IhSaIhEEvEEESt10_Select1stISH_ESt4lessIvESaISH_EE7_S_leftEPKSt18_Rb_tree_node_base
FN:789,790,_ZNSt8_Rb_treeINSt7__cxx1112basic_stringIcSt11char_traitsIcESaIcEEESt4pairIKS5_N8nlohmann16json_abi_v3_11_310basic_jsonISt3mapSt6vectorS5_blmdSaNS9_14adl_serializerESC_IhSaIhEEvEEESt10_Select1stISH_ESt4lessIvESaISH_EE8_S_rightEPSt18_Rb_tree_node_base
FN:793,794,_ZNSt8_Rb_treeINSt7__cxx1112basic_stringIcSt11char_traitsIcESaIcEEESt4pairIKS5_N8nlohmann16json_abi_v3_11_310basic_jsonISt3mapSt6vectorS5_blmdSaNS9_14adl_serializerESC_IhSaIhEEvEEESt10_Select1stISH_ESt4lessIvESaISH_EE8_S_rightEPKSt18_Rb_tree_node_base
FN:797,798,_ZNSt8_Rb_treeINSt7__cxx1112basic_stringIcSt11char_traitsIcESaIcEEESt4pairIKS5_N8nlohmann16json_abi_v3_11_310basic_jsonISt3mapSt6vectorS5_blmdSaNS9_14adl_serializerESC_IhSaIhEEvEEESt10_Select1stISH_ESt4lessIvESaISH_EE6_S_keyEPKSt18_Rb_tree_node_base
FN:801,802,_ZNSt8_Rb_treeINSt7__cxx1112basic_stringIcSt11char_traitsIcESaIcEEESt4pairIKS5_N8nlohmann16json_abi_v3_11_310basic_jsonISt3mapSt6vectorS5_blmdSaNS9_14adl_serializerESC_IhSaIhEEvEEESt10_Select1stISH_ESt4lessIvESaISH_EE10_S_minimumEPSt18_Rb_tree_node_base
FN:809,810,_ZNSt8_Rb_treeINSt7__cxx1112basic_stringIcSt11char_traitsIcESaIcEEESt4pairIKS5_N8nlohmann16json_abi_v3_11_310basic_jsonISt3mapSt6vectorS5_blmdSaNS9_14adl_serializerESC_IhSaIhEEvEEESt10_Select1stISH_ESt4lessIvESaISH_EE10_S_maximumEPSt18_Rb_tree_node_base
FN:889,897,_ZNSt8_Rb_treeINSt7__cxx1112basic_stringIcSt11char_traitsIcESaIcEEESt4pairIKS5_N8nlohmann16json_abi_v3_11_310basic_jsonISt3mapSt6vectorS5_blmdSaNS9_14adl_serializerESC_IhSaIhEEvEEESt10_Select1stISH_ESt4lessIvESaISH_EE7_M_copyILb0ENSN_11_Alloc_nodeEEEPSt13_Rb_tree_nodeISH_ERKSN_RT0_
FN:900,904,_ZNSt8_Rb_treeINSt7__cxx1112basic_stringIcSt11char_traitsIcESaIcEEESt4pairIKS5_N8nlohmann16json_abi_v3_11_310basic_jsonISt3mapSt6vectorS5_blmdSaNS9_14adl_serializerESC_IhSaIhEEvEEESt10_Select1stISH_ESt4lessIvESaISH_EE7_M_copyERKSN_
FN:930,930,_ZNSt8_Rb_treeINSt7__cxx1112basic_stringIcSt11char_traitsIcESaIcEEESt4pairIKS5_N8nlohmann16json_abi_v3_11_310basic_jsonISt3mapSt6vectorS5_blmdSaNS9_14adl_serializerESC_IhSaIhEEvEEESt10_Select1stISH_ESt4lessIvESaISH_EEC2Ev
FN:937,942,_ZNSt8_Rb_treeINSt7__cxx1112basic_stringIcSt11char_traitsIcESaIcEEESt4pairIKS5_N8nlohmann16json_abi_v3_11_310basic_jsonISt3mapSt6vectorS5_blmdSaNS9_14adl_serializerESC_IhSaIhEEvEEESt10_Select1stISH_ESt4lessIvESaISH_EEC2ERKSN_
FN:985,986,_ZNSt8_Rb_treeINSt7__cxx1112basic_stringIcSt11char_traitsIcESaIcEEESt4pairIKS5_N8nlohmann16json_abi_v3_11_310basic_jsonISt3mapSt6vectorS5_blmdSaNS9_14adl_serializerESC_IhSaIhEEvEEESt10_Select1stISH_ESt4lessIvESaISH_EED2Ev
FN:993,994,_ZNKSt8_Rb_treeINSt7__cxx1112basic_stringIcSt11char_traitsIcESaIcEEESt4pairIKS5_N8nlohmann16json_abi_v3_11_310basic_jsonISt3mapSt6vectorS5_blmdSaNS9_14adl_serializerESC_IhSaIhEEvEEESt10_Select1stISH_ESt4lessIvESaISH_EE8key_compEv
FN:997,998,_ZNSt8_Rb_treeINSt7__cxx1112basic_stringIcSt11char_traitsIcESaIcEEESt4pairIKS5_N8nlohmann16json_abi_v3_11_310basic_jsonISt3mapSt6vectorS5_blmdSaNS9_14adl_serializerESC_IhSaIhEEvEEESt10_Select1stISH_ESt4lessIvESaISH_EE5beginEv
FNDA:24,_ZNKSt8_Rb_treeINSt7__cxx1112basic_stringIcSt11char_traitsIcESaIcEEESt4pairIKS5_N8nlohmann16json_abi_v3_11_310basic_jsonISt3mapSt6vectorS5_blmdSaNS9_14adl_serializerESC_IhSaIhEEvEEESt10_Select1stISH_ESt4lessIvESaISH_EE5beginEv
FNDA:458,_ZNSt8_Rb_treeINSt7__cxx1112basic_stringIcSt11char_traitsIcESaIcEEESt4pairIKS5_N8nlohmann16json_abi_v3_11_310basic_jsonISt3mapSt6vectorS5_blmdSaNS9_14adl_serializerESC_IhSaIhEEvEEESt10_Select1stISH_ESt4lessIvESaISH_EE3endEv
FNDA:122,_ZNKSt8_Rb_treeINSt7__cxx1112basic_stringIcSt11char_traitsIcESaIcEEESt4pairIKS5_N8nlohmann16json_abi_v3_11_310basic_jsonISt3mapSt6vectorS5_blmdSaNS9_14adl_serializerESC_IhSaIhEEvEEESt10_Select1stISH_ESt4lessIvESaISH_EE3endEv
FNDA:24,_ZNKSt8_Rb_treeINSt7__cxx1112basic_stringIcSt11char_traitsIcESaIcEEESt4pairIKS5_N8nlohmann16json_abi_v3_11_310basic_jsonISt3mapSt6vectorS5_blmdSaNS9_14adl_serializerESC_IhSaIhEEvEEESt10_Select1stISH_ESt4lessIvESaISH_EE5emptyEv
FNDA:400,_ZNKSt8_Rb_treeINSt7__cxx1112basic_stringIcSt11char_traitsIcESaIcEEESt4pairIKS5_N8nlohmann16json_abi_v3_11_310basic_jsonISt3mapSt6vectorS5_blmdSaNS9_14adl_serializerESC_IhSaIhEEvEEESt10_Select1stISH_ESt4lessIvESaISH_EE4sizeEv
FNDA:0,_ZNKSt8_Rb_treeINSt7__cxx1112basic_stringIcSt11char_traitsIcESaIcEEESt4pairIKS5_N8nlohmann16json_abi_v3_11_310basic_jsonISt3mapSt6vectorS5_blmdSaNS9_14adl_serializerESC_IhSaIhEEvEEESt10_Select1stISH_ESt4lessIvESaISH_EE8max_sizeEv
FNDA:0,_ZNSt18_Rb_tree_node_base10_S_minimumEPS_
FNDA:0,_ZNSt8_Rb_treeINSt7__cxx1112basic_stringIcSt11char_traitsIcESaIcEEESt4pairIKS5_N8nlohmann16json_abi_v3_11_310basic_jsonISt3mapSt6vectorS5_blmdSaNS9_14adl_serializerESC_IhSaIhEEvEEESt10_Select1stISH_ESt4lessIvESaISH_EE5eraseB5cxx11ESt17_Rb_tree_iteratorISH_E
FNDA:66,_ZNSt8_Rb_treeINSt7__cxx1112basic_stringIcSt11char_traitsIcESaIcEEESt4pairIKS5_N8nlohmann16json_abi_v3_11_310basic_jsonISt3mapSt6vectorS5_blmdSaNS9_14adl_serializerESC_IhSaIhEEvEEESt10_Select1stISH_ESt4lessIvESaISH_EE5clearEv
FNDA:0,_ZNSt18_Rb_tree_node_base10_S_maximumEPS_
FNDA:240,_ZNSt8_Rb_treeINSt7__cxx1112basic_stringIcSt11char_traitsIcESaIcEEESt4pairIKS5_N8nlohmann16json_abi_v3_11_310basic_jsonISt3mapSt6vectorS5_blmdSaNS9_14adl_serializerESC_IhSaIhEEvEEESt10_Select1stISH_ESt4lessIvESaISH_EE11lower_boundERS7_
FNDA:28,_ZNSt8_Rb_treeINSt7__cxx1112basic_stringIcSt11char_traitsIcESaIcEEESt4pairIKS5_N8nlohmann16json_abi_v3_11_310basic_jsonISt3mapSt6vectorS5_blmdSaNS9_14adl_serializerESC_IhSaIhEEvEEESt10_Select1stISH_ESt4lessIvESaISH_EE10_M_find_trIA10_cvEESt17_Rb_tree_iteratorISH_ERKT_
FNDA:14,_ZNSt8_Rb_treeINSt7__cxx1112basic_stringIcSt11char_traitsIcESaIcEEESt4pairIKS5_N8nlohmann16json_abi_v3_11_310basic_jsonISt3mapSt6vectorS5_blmdSaNS9_14adl_serializerESC_IhSaIhEEvEEESt10_Select1stISH_ESt4lessIvESaISH_EE10_M_find_trIA19_cvEESt17_Rb_tree_iteratorISH_ERKT_
FNDA:4,_ZNSt8_Rb_treeINSt7__cxx1112basic_stringIcSt11char_traitsIcESaIcEEESt4pairIKS5_N8nlohmann16json_abi_v3_11_310basic_jsonISt3mapSt6vectorS5_blmdSaNS9_14adl_serializerESC_IhSaIhEEvEEESt10_Select1stISH_ESt4lessIvESaISH_EE10_M_find_trIA20_cvEESt17_Rb_tree_iteratorISH_ERKT_
FNDA:4,_ZNSt8_Rb_treeINSt7__cxx1112basic_stringIcSt11char_traitsIcESaIcEEESt4pairIKS5_N8nlohmann16json_abi_v3_11_310basic_jsonISt3mapSt6vectorS5_blmdSaNS9_14adl_serializerESC_IhSaIhEEvEEESt10_Select1stISH_ESt4lessIvESaISH_EE10_M_find_trIA21_cvEESt17_Rb_tree_iteratorISH_ERKT_
FNDA:2,_ZNSt8_Rb_treeINSt7__cxx1112basic_stringIcSt11char_traitsIcESaIcEEESt4pairIKS5_N8nlohmann16json_abi_v3_11_310basic_jsonISt3mapSt6vectorS5_blmdSaNS9_14adl_serializerESC_IhSaIhEEvEEESt10_Select1stISH_ESt4lessIvESaISH_EE10_M_find_trIA23_cvEESt17_Rb_tree_iteratorISH_ERKT_
FNDA:16,_ZNSt8_Rb_treeINSt7__cxx1112basic_stringIcSt11char_traitsIcESaIcEEESt4pairIKS5_N8nlohmann16json_abi_v3_11_310basic_jsonISt3mapSt6vectorS5_blmdSaNS9_14adl_serializerESC_IhSaIhEEvEEESt10_Select1stISH_ESt4lessIvESaISH_EE10_M_find_trIA8_cvEESt17_Rb_tree_iteratorISH_ERKT_
FNDA:28,_ZNKSt8_Rb_treeINSt7__cxx1112basic_stringIcSt11char_traitsIcESaIcEEESt4pairIKS5_N8nlohmann16json_abi_v3_11_310basic_jsonISt3mapSt6vectorS5_blmdSaNS9_14adl_serializerESC_IhSaIhEEvEEESt10_Select1stISH_ESt4lessIvESaISH_EE10_M_find_trIA10_cvEESt23_Rb_tree_const_iteratorISH_ERKT_
FNDA:14,_ZNKSt8_Rb_treeINSt7__cxx1112basic_stringIcSt11char_traitsIcESaIcEEESt4pairIKS5_N8nlohmann16json_abi_v3_11_310basic_jsonISt3mapSt6vectorS5_blmdSaNS9_14adl_serializerESC_IhSaIhEEvEEESt10_Select1stISH_ESt4lessIvESaISH_EE10_M_find_trIA19_cvEESt23_Rb_tree_const_iteratorISH_ERKT_
FNDA:4,_ZNKSt8_Rb_treeINSt7__cxx1112basic_stringIcSt11char_traitsIcESaIcEEESt4pairIKS5_N8nlohmann16json_abi_v3_11_310basic_jsonISt3mapSt6vectorS5_blmdSaNS9_14adl_serializerESC_IhSaIhEEvEEESt10_Select1stISH_ESt4lessIvESaISH_EE10_M_find_trIA20_cvEESt23_Rb_tree_const_iteratorISH_ERKT_
FNDA:4,_ZNKSt8_Rb_treeINSt7__cxx1112basic_stringIcSt11char_traitsIcESaIcEEESt4pairIKS5_N8nlohmann16json_abi_v3_11_310basic_jsonISt3mapSt6vectorS5_blmdSaNS9_14adl_serializerESC_IhSaIhEEvEEESt10_Select1stISH_ESt4lessIvESaISH_EE10_M_find_trIA21_cvEESt23_Rb_tree_const_iteratorISH_ERKT_
FNDA:2,_ZNKSt8_Rb_treeINSt7__cxx1112basic_stringIcSt11char_traitsIcESaIcEEESt4pairIKS5_N8nlohmann16json_abi_v3_11_310basic_jsonISt3mapSt6vectorS5_blmdSaNS9_14adl_serializerESC_IhSaIhEEvEEESt10_Select1stISH_ESt4lessIvESaISH_EE10_M_find_trIA23_cvEESt23_Rb_tree_const_iteratorISH_ERKT_
FNDA:16,_ZNKSt8_Rb_treeINSt7__cxx1112basic_stringIcSt11char_traitsIcESaIcEEESt4pairIKS5_N8nlohmann16json_abi_v3_11_310basic_jsonISt3mapSt6vectorS5_blmdSaNS9_14adl_serializerESC_IhSaIhEEvEEESt10_Select1stISH_ESt4lessIvESaISH_EE10_M_find_trIA8_cvEESt23_Rb_tree_const_iteratorISH_ERKT_
FNDA:28,_ZNKSt8_Rb_treeINSt7__cxx1112basic_stringIcSt11char_traitsIcESaIcEEESt4pairIKS5_N8nlohmann16json_abi_v3_11_310basic_jsonISt3mapSt6vectorS5_blmdSaNS9_14adl_serializerESC_IhSaIhEEvEEESt10_Select1stISH_ESt4lessIvESaISH_EE17_M_lower_bound_trIA10_cvEESt23_Rb_tree_const_iteratorISH_ERKT_
FNDA:14,_ZNKSt8_Rb_treeINSt7__cxx1112basic_stringIcSt11char_traitsIcESaIcEEESt4pairIKS5_N8nlohmann16json_abi_v3_11_310basic_jsonISt3mapSt6vectorS5_blmdSaNS9_14adl_serializerESC_IhSaIhEEvEEESt10_Select1stISH_ESt4lessIvESaISH_EE17_M_lower_bound_trIA19_cvEESt23_Rb_tree_const_iteratorISH_ERKT_
FNDA:4,_ZNKSt8_Rb_treeINSt7__cxx1112basic_stringIcSt11char_traitsIcESaIcEEESt4pairIKS5_N8nlohmann16json_abi_v3_11_310basic_jsonISt3mapSt6vectorS5_blmdSaNS9_14adl_serializerESC_IhSaIhEEvEEESt10_Select1stISH_ESt4lessIvESaISH_EE17_M_lower_bound_trIA20_cvEESt23_Rb_tree_const_iteratorISH_ERKT_
FNDA:4,_ZNKSt8_Rb_treeINSt7__cxx1112basic_stringIcSt11char_traitsIcESaIcEEESt4pairIKS5_N8nlohmann16json_abi_v3_11_310basic_jsonISt3mapSt6vectorS5_blmdSaNS9_14adl_serializerESC_IhSaIhEEvEEESt10_Select1stISH_ESt4lessIvESaISH_EE17_M_lower_bound_trIA21_cvEESt23_Rb_tree_const_iteratorISH_ERKT_
FNDA:2,_ZNKSt8_Rb_treeINSt7__cxx1112basic_stringIcSt11char_traitsIcESaIcEEESt4pairIKS5_N8nlohmann16json_abi_v3_11_310basic_jsonISt3mapSt6vectorS5_blmdSaNS9_14adl_serializerESC_IhSaIhEEvEEESt10_Select1stISH_ESt4lessIvESaISH_EE17_M_lower_bound_trIA23_cvEESt23_Rb_tree_const_iteratorISH_ERKT_
FNDA:16,_ZNKSt8_Rb_treeINSt7__cxx1112basic_stringIcSt11char_traitsIcESaIcEEESt4pairIKS5_N8nlohmann16json_abi_v3_11_310basic_jsonISt3mapSt6vectorS5_blmdSaNS9_14adl_serializerESC_IhSaIhEEvEEESt10_Select1stISH_ESt4lessIvESaISH_EE17_M_lower_bound_trIA8_cvEESt23_Rb_tree_const_iteratorISH_ERKT_
FNDA:68,_ZNSt20_Rb_tree_key_compareISt4lessIvEEC2Ev
FNDA:0,_ZNSt20_Rb_tree_key_compareISt4lessIvEEC2ERKS1_
FNDA:0,_ZSteqRKSt8_Rb_treeINSt7__cxx1112basic_stringIcSt11char_traitsIcESaIcEEESt4pairIKS5_N8nlohmann16json_abi_v3_11_310basic_jsonISt3mapSt6vectorS5_blmdSaNS9_14adl_serializerESC_IhSaIhEEvEEESt10_Select1stISH_ESt4lessIvESaISH_EESP_
FNDA:240,_ZNSt8_Rb_treeINSt7__cxx1112basic_stringIcSt11char_traitsIcESaIcEEESt4pairIKS5_N8nlohmann16json_abi_v3_11_310basic_jsonISt3mapSt6vectorS5_blmdSaNS9_14adl_serializerESC_IhSaIhEEvEEESt10_Select1stISH_ESt4lessIvESaISH_EE10_Auto_nodeC2IJRKSt21piecewise_construct_tSt5tupleIJRS7_EEST_IJEEEEERSN_DpOT_
FNDA:116,_ZNSt8_Rb_treeINSt7__cxx1112basic_stringIcSt11char_traitsIcESaIcEEESt4pairIKS5_N8nlohmann16json_abi_v3_11_310basic_jsonISt3mapSt6vectorS5_blmdSaNS9_14adl_serializerESC_IhSaIhEEvEEESt10_Select1stISH_ESt4lessIvESaISH_EE10_Auto_nodeC2IJS5_DnEEERSN_DpOT_
FNDA:0,_ZNSt8_Rb_treeINSt7__cxx1112basic_stringIcSt11char_traitsIcESaIcEEESt4pairIKS5_N8nlohmann16json_abi_v3_11_310basic_jsonISt3mapSt6vectorS5_blmdSaNS9_14adl_serializerESC_IhSaIhEEvEEESt10_Select1stISH_ESt4lessIvESaISH_EE10_Auto_nodeC2IJS5_SG_EEERSN_DpOT_
FNDA:356,_ZNSt8_Rb_treeINSt7__cxx1112basic_stringIcSt11char_traitsIcESaIcEEESt4pairIKS5_N8nlohmann16json_abi_v3_11_310basic_jsonISt3mapSt6vectorS5_blmdSaNS9_14adl_serializerESC_IhSaIhEEvEEESt10_Select1stISH_ESt4lessIvESaISH_EE10_Auto_nodeD2Ev
FNDA:356,_ZNKSt8_Rb_treeINSt7__cxx1112basic_stringIcSt11char_traitsIcESaIcEEESt4pairIKS5_N8nlohmann16json_abi_v3_11_310basic_jsonISt3mapSt6vectorS5_blmdSaNS9_14adl_serializerESC_IhSaIhEEvEEESt10_Select1stISH_ESt4lessIvESaISH_EE10_Auto_node6_M_keyEv
FNDA:248,_ZNSt8_Rb_treeINSt7__cxx1112basic_stringIcSt11char_traitsIcESaIcEEESt4pairIKS5_N8nlohmann16json_abi_v3_11_310basic_jsonISt3mapSt6vectorS5_blmdSaNS9_14adl_serializerESC_IhSaIhEEvEEESt10_Select1stISH_ESt4lessIvESaISH_EE10_Auto_node9_M_insertES6_IPSt18_Rb_tree_node_baseSQ_E
FNDA:78,_ZNSt15_Rb_tree_headerC2Ev
FNDA:0,_ZNSt8_Rb_treeINSt7__cxx1112basic_stringIcSt11char_traitsIcESaIcEEESt4pairIKS5_N8nlohmann16json_abi_v3_11_310basic_jsonISt3mapSt6vectorS5_blmdSaNS9_14adl_serializerESC_IhSaIhEEvEEESt10_Select1stISH_ESt4lessIvESaISH_EE7_M_copyILb0ENSN_11_Alloc_nodeEEEPSt13_Rb_tree_nodeISH_ESS_PSt18_Rb_tree_node_baseRT0_
FNDA:382,_ZNSt8_Rb_treeINSt7__cxx1112basic_stringIcSt11char_traitsIcESaIcEEESt4pairIKS5_N8nlohmann16json_abi_v3_11_310basic_jsonISt3mapSt6vectorS5_blmdSaNS9_14adl_serializerESC_IhSaIhEEvEEESt10_Select1stISH_ESt4lessIvESaISH_EE8_M_eraseEPSt13_Rb_tree_nodeISH_E
FNDA:248,_ZNSt8_Rb_treeINSt7__cxx1112basic_stringIcSt11char_traitsIcESaIcEEESt4pairIKS5_N8nlohmann16json_abi_v3_11_310basic_jsonISt3mapSt6vectorS5_blmdSaNS9_14adl_serializerESC_IhSaIhEEvEEESt10_Select1stISH_ESt4lessIvESaISH_EE14_M_lower_boundEPSt13_Rb_tree_nodeISH_EPSt18_Rb_tree_node_baseRS7_
FNDA:144,_ZNSt15_Rb_tree_header8_M_resetEv
FNDA:184,_ZNSt8_Rb_treeINSt7__cxx1112basic_stringIcSt11char_traitsIcESaIcEEESt4pairIKS5_N8nlohmann16json_abi_v3_11_310basic_jsonISt3mapSt6vectorS5_blmdSaNS9_14adl_serializerESC_IhSaIhEEvEEESt10_Select1stISH_ESt4lessIvESaISH_EE24_M_get_insert_unique_posERS7_
FNDA:240,_ZNSt8_Rb_treeINSt7__cxx1112basic_stringIcSt11char_traitsIcESaIcEEESt4pairIKS5_N8nlohmann16json_abi_v3_11_310basic_jsonISt3mapSt6vectorS5_blmdSaNS9_14adl_serializerESC_IhSaIhEEvEEESt10_Select1stISH_ESt4lessIvESaISH_EE29_M_get_insert_hint_unique_posESt23_Rb_tree_const_iteratorISH_ERS7_
FNDA:1324,_ZNSt13_Rb_tree_nodeISt4pairIKNSt7__cxx1112basic_stringIcSt11char_traitsIcESaIcEEEN8nlohmann16json_abi_v3_11_310basic_jsonISt3mapSt6vectorS6_blmdSaNS9_14adl_serializerESC_IhSaIhEEvEEEE9_M_valptrEv
FNDA:248,_ZNSt8_Rb_treeINSt7__cxx1112basic_stringIcSt11char_traitsIcESaIcEEESt4pairIKS5_N8nlohmann16json_abi_v3_11_310basic_jsonISt3mapSt6vectorS5_blmdSaNS9_14adl_serializerESC_IhSaIhEEvEEESt10_Select1stISH_ESt4lessIvESaISH_EE14_M_insert_nodeEPSt18_Rb_tree_node_baseSP_PSt13_Rb_tree_nodeISH_E
FNDA:2056,_ZNKSt13_Rb_tree_nodeISt4pairIKNSt7__cxx1112basic_stringIcSt11char_traitsIcESaIcEEEN8nlohmann16json_abi_v3_11_310basic_jsonISt3mapSt6vectorS6_blmdSaNS9_14adl_serializerESC_IhSaIhEEvEEEE9_M_valptrEv
FNDA:116,_ZNSt8_Rb_treeINSt7__cxx1112basic_stringIcSt11char_traitsIcESaIcEEESt4pairIKS5_N8nlohmann16json_abi_v3_11_310basic_jsonISt3mapSt6vectorS5_blmdSaNS9_14adl_serializerESC_IhSaIhEEvEEESt10_Select1stISH_ESt4lessIvESaISH_EE17_M_emplace_uniqueIJS5_DnEEES6_ISt17_Rb_tree_iteratorISH_EbEDpOT_
FNDA:0,_ZNSt8_Rb_treeINSt7__cxx1112basic_stringIcSt11char_traitsIcESaIcEEESt4pairIKS5_N8nlohmann16json_abi_v3_11_310basic_jsonISt3mapSt6vectorS5_blmdSaNS9_14adl_serializerESC_IhSaIhEEvEEESt10_Select1stISH_ESt4lessIvESaISH_EE17_M_emplace_uniqueIJS5_SG_EEES6_ISt17_Rb_tree_iteratorISH_EbEDpOT_
FNDA:240,_ZNSt8_Rb_treeINSt7__cxx1112basic_stringIcSt11char_traitsIcESaIcEEESt4pairIKS5_N8nlohmann16json_abi_v3_11_310basic_jsonISt3mapSt6vectorS5_blmdSaNS9_14adl_serializerESC_IhSaIhEEvEEESt10_Select1stISH_ESt4lessIvESaISH_EE22_M_emplace_hint_uniqueIJRKSt21piecewise_construct_tSt5tupleIJRS7_EESS_IJEEEEESt17_Rb_tree_iteratorISH_ESt23_Rb_tree_const_iteratorISH_EDpOT_
FNDA:0,_ZNSt8_Rb_treeINSt7__cxx1112basic_stringIcSt11char_traitsIcESaIcEEESt4pairIKS5_N8nlohmann16json_abi_v3_11_310basic_jsonISt3mapSt6vectorS5_blmdSaNS9_14adl_serializerESC_IhSaIhEEvEEESt10_Select1stISH_ESt4lessIvESaISH_EE12_M_erase_auxESt23_Rb_tree_const_iteratorISH_E
FNDA:8,_ZNSt8_Rb_treeINSt7__cxx1112basic_stringIcSt11char_traitsIcESaIcEEESt4pairIKS5_N8nlohmann16json_abi_v3_11_310basic_jsonISt3mapSt6vectorS5_blmdSaNS9_14adl_serializerESC_IhSaIhEEvEEESt10_Select1stISH_ESt4lessIvESaISH_EE4findERS7_
FNDA:16,_ZNSt17_Rb_tree_iteratorISt4pairIKNSt7__cxx1112basic_stringIcSt11char_traitsIcESaIcEEEN8nlohmann16json_abi_v3_11_310basic_jsonISt3mapSt6vectorS6_blmdSaNS9_14adl_serializerESC_IhSaIhEEvEEEEC2Ev
FNDA:1830,_ZNSt17_Rb_tree_iteratorISt4pairIKNSt7__cxx1112basic_stringIcSt11char_traitsIcESaIcEEEN8nlohmann16json_abi_v3_11_310basic_jsonISt3mapSt6vectorS6_blmdSaNS9_14adl_serializerESC_IhSaIhEEvEEEEC2EPSt18_Rb_tree_node_base
FNDA:488,_ZNKSt17_Rb_tree_iteratorISt4pairIKNSt7__cxx1112basic_stringIcSt11char_traitsIcESaIcEEEN8nlohmann16json_abi_v3_11_310basic_jsonISt3mapSt6vectorS6_blmdSaNS9_14adl_serializerESC_IhSaIhEEvEEEEdeEv
FNDA:124,_ZNKSt17_Rb_tree_iteratorISt4pairIKNSt7__cxx1112basic_stringIcSt11char_traitsIcESaIcEEEN8nlohmann16json_abi_v3_11_310basic_jsonISt3mapSt6vectorS6_blmdSaNS9_14adl_serializerESC_IhSaIhEEvEEEEptEv
FNDA:248,_ZNSt17_Rb_tree_iteratorISt4pairIKNSt7__cxx1112basic_stringIcSt11char_traitsIcESaIcEEEN8nlohmann16json_abi_v3_11_310basic_jsonISt3mapSt6vectorS6_blmdSaNS9_14adl_serializerESC_IhSaIhEEvEEEEppEv
FNDA:74,_ZNSt17_Rb_tree_iteratorISt4pairIKNSt7__cxx1112basic_stringIcSt11char_traitsIcESaIcEEEN8nlohmann16json_abi_v3_11_310basic_jsonISt3mapSt6vectorS6_blmdSaNS9_14adl_serializerESC_IhSaIhEEvEEEEmmEv
FNDA:390,_ZSteqRKSt17_Rb_tree_iteratorISt4pairIKNSt7__cxx1112basic_stringIcSt11char_traitsIcESaIcEEEN8nlohmann16json_abi_v3_11_310basic_jsonISt3mapSt6vectorS6_blmdSaNS9_14adl_serializerESC_IhSaIhEEvEEEESK_
FNDA:458,_ZStneRKSt17_Rb_tree_iteratorISt4pairIKNSt7__cxx1112basic_stringIcSt11char_traitsIcESaIcEEEN8nlohmann16json_abi_v3_11_310basic_jsonISt3mapSt6vectorS6_blmdSaNS9_14adl_serializerESC_IhSaIhEEvEEEESK_
FNDA:214,_ZNSt23_Rb_tree_const_iteratorISt4pairIKNSt7__cxx1112basic_stringIcSt11char_traitsIcESaIcEEEN8nlohmann16json_abi_v3_11_310basic_jsonISt3mapSt6vectorS6_blmdSaNS9_14adl_serializerESC_IhSaIhEEvEEEEC2EPKSt18_Rb_tree_node_base
FNDA:240,_ZNSt23_Rb_tree_const_iteratorISt4pairIKNSt7__cxx1112basic_stringIcSt11char_traitsIcESaIcEEEN8nlohmann16json_abi_v3_11_310basic_jsonISt3mapSt6vectorS6_blmdSaNS9_14adl_serializerESC_IhSaIhEEvEEEEC2ERKSt17_Rb_tree_iteratorISH_E
FNDA:308,_ZNKSt23_Rb_tree_const_iteratorISt4pairIKNSt7__cxx1112basic_stringIcSt11char_traitsIcESaIcEEEN8nlohmann16json_abi_v3_11_310basic_jsonISt3mapSt6vectorS6_blmdSaNS9_14adl_serializerESC_IhSaIhEEvEEEE13_M_const_castEv
FNDA:0,_ZNKSt23_Rb_tree_const_iteratorISt4pairIKNSt7__cxx1112basic_stringIcSt11char_traitsIcESaIcEEEN8nlohmann16json_abi_v3_11_310basic_jsonISt3mapSt6vectorS6_blmdSaNS9_14adl_serializerESC_IhSaIhEEvEEEEdeEv
FNDA:184,_ZNKSt23_Rb_tree_const_iteratorISt4pairIKNSt7__cxx1112basic_stringIcSt11char_traitsIcESaIcEEEN8nlohmann16json_abi_v3_11_310basic_jsonISt3mapSt6vectorS6_blmdSaNS9_14adl_serializerESC_IhSaIhEEvEEEEptEv
FNDA:92,_ZNSt23_Rb_tree_const_iteratorISt4pairIKNSt7__cxx1112basic_stringIcSt11char_traitsIcESaIcEEEN8nlohmann16json_abi_v3_11_310basic_jsonISt3mapSt6vectorS6_blmdSaNS9_14adl_serializerESC_IhSaIhEEvEEEEppEv
FNDA:0,_ZNSt23_Rb_tree_const_iteratorISt4pairIKNSt7__cxx1112basic_stringIcSt11char_traitsIcESaIcEEEN8nlohmann16json_abi_v3_11_310basic_jsonISt3mapSt6vectorS6_blmdSaNS9_14adl_serializerESC_IhSaIhEEvEEEEmmEv
FNDA:24,_ZSteqRKSt23_Rb_tree_const_iteratorISt4pairIKNSt7__cxx1112basic_stringIcSt11char_traitsIcESaIcEEEN8nlohmann16json_abi_v3_11_310basic_jsonISt3mapSt6vectorS6_blmdSaNS9_14adl_serializerESC_IhSaIhEEvEEEESK_
FNDA:92,_ZStneRKSt23_Rb_tree_const_iteratorISt4pairIKNSt7__cxx1112basic_stringIcSt11char_traitsIcESaIcEEEN8nlohmann16json_abi_v3_11_310basic_jsonISt3mapSt6vectorS6_blmdSaNS9_14adl_serializerESC_IhSaIhEEvEEEESK_
FNDA:0,_ZNSt8_Rb_treeINSt7__cxx1112basic_stringIcSt11char_traitsIcESaIcEEESt4pairIKS5_N8nlohmann16json_abi_v3_11_310basic_jsonISt3mapSt6vectorS5_blmdSaNS9_14adl_serializerESC_IhSaIhEEvEEESt10_Select1stISH_ESt4lessIvESaISH_EE11_Alloc_nodeC2ERSN_
FNDA:0,_ZNKSt8_Rb_treeINSt7__cxx1112basic_stringIcSt11char_traitsIcESaIcEEESt4pairIKS5_N8nlohmann16json_abi_v3_11_310basic_jsonISt3mapSt6vectorS5_blmdSaNS9_14adl_serializerESC_IhSaIhEEvEEESt10_Select1stISH_ESt4lessIvESaISH_EE11_Alloc_nodeclIRKSH_EEPSt13_Rb_tree_nodeISH_EOT_
FNDA:1424,_ZNSt8_Rb_treeINSt7__cxx1112basic_stringIcSt11char_traitsIcESaIcEEESt4pairIKS5_N8nlohmann16json_abi_v3_11_310basic_jsonISt3mapSt6vectorS5_blmdSaNS9_14adl_serializerESC_IhSaIhEEvEEESt10_Select1stISH_ESt4lessIvESaISH_EE21_M_get_Node_allocatorEv
FNDA:0,_ZNKSt8_Rb_treeINSt7__cxx1112basic_stringIcSt11char_traitsIcESaIcEEESt4pairIKS5_N8nlohmann16json_abi_v3_11_310basic_jsonISt3mapSt6vectorS5_blmdSaNS9_14adl_serializerESC_IhSaIhEEvEEESt10_Select1stISH_ESt4lessIvESaISH_EE21_M_get_Node_allocatorEv
FNDA:356,_ZNSt8_Rb_treeINSt7__cxx1112basic_stringIcSt11char_traitsIcESaIcEEESt4pairIKS5_N8nlohmann16json_abi_v3_11_310basic_jsonISt3mapSt6vectorS5_blmdSaNS9_14adl_serializerESC_IhSaIhEEvEEESt10_Select1stISH_ESt4lessIvESaISH_EE11_M_get_nodeEv
FNDA:356,_ZNSt8_Rb_treeINSt7__cxx1112basic_stringIcSt11char_traitsIcESaIcEEESt4pairIKS5_N8nlohmann16json_abi_v3_11_310basic_jsonISt3mapSt6vectorS5_blmdSaNS9_14adl_serializerESC_IhSaIhEEvEEESt10_Select1stISH_ESt4lessIvESaISH_EE11_M_put_nodeEPSt13_Rb_tree_nodeISH_E
FNDA:0,_ZNSt8_Rb_treeINSt7__cxx1112basic_stringIcSt11char_traitsIcESaIcEEESt4pairIKS5_N8nlohmann16json_abi_v3_11_310basic_jsonISt3mapSt6vectorS5_blmdSaNS9_14adl_serializerESC_IhSaIhEEvEEESt10_Select1stISH_ESt4lessIvESaISH_EE17_M_construct_nodeIJRKSH_EEEvPSt13_Rb_tree_nodeISH_EDpOT_
FNDA:240,_ZNSt8_Rb_treeINSt7__cxx1112basic_stringIcSt11char_traitsIcESaIcEEESt4pairIKS5_N8nlohmann16json_abi_v3_11_310basic_jsonISt3mapSt6vectorS5_blmdSaNS9_14adl_serializerESC_IhSaIhEEvEEESt10_Select1stISH_ESt4lessIvESaISH_EE17_M_construct_nodeIJRKSt21piecewise_construct_tSt5tupleIJRS7_EESS_IJEEEEEvPSt13_Rb_tree_nodeISH_EDpOT_
FNDA:116,_ZNSt8_Rb_treeINSt7__cxx1112basic_stringIcSt11char_traitsIcESaIcEEESt4pairIKS5_N8nlohmann16json_abi_v3_11_310basic_jsonISt3mapSt6vectorS5_blmdSaNS9_14adl_serializerESC_IhSaIhEEvEEESt10_Select1stISH_ESt4lessIvESaISH_EE17_M_construct_nodeIJS5_DnEEEvPSt13_Rb_tree_nodeISH_EDpOT_
FNDA:0,_ZNSt8_Rb_treeINSt7__cxx1112basic_stringIcSt11char_traitsIcESaIcEEESt4pairIKS5_N8nlohmann16json_abi_v3_11_310basic_jsonISt3mapSt6vectorS5_blmdSaNS9_14adl_serializerESC_IhSaIhEEvEEESt10_Select1stISH_ESt4lessIvESaISH_EE17_M_construct_nodeIJS5_SG_EEEvPSt13_Rb_tree_nodeISH_EDpOT_
FNDA:0,_ZNSt8_Rb_treeINSt7__cxx1112basic_stringIcSt11char_traitsIcESaIcEEESt4pairIKS5_N8nlohmann16json_abi_v3_11_310basic_jsonISt3mapSt6vectorS5_blmdSaNS9_14adl_serializerESC_IhSaIhEEvEEESt10_Select1stISH_ESt4lessIvESaISH_EE14_M_create_nodeIJRKSH_EEEPSt13_Rb_tree_nodeISH_EDpOT_
FNDA:240,_ZNSt8_Rb_treeINSt7__cxx1112basic_stringIcSt11char_traitsIcESaIcEEESt4pairIKS5_N8nlohmann16json_abi_v3_11_310basic_jsonISt3mapSt6vectorS5_blmdSaNS9_14adl_serializerESC_IhSaIhEEvEEESt10_Select1stISH_ESt4lessIvESaISH_EE14_M_create_nodeIJRKSt21piecewise_construct_tSt5tupleIJRS7_EESS_IJEEEEEPSt13_Rb_tree_nodeISH_EDpOT_
FNDA:116,_ZNSt8_Rb_treeINSt7__cxx1112basic_stringIcSt11char_traitsIcESaIcEEESt4pairIKS5_N8nlohmann16json_abi_v3_11_310basic_jsonISt3mapSt6vectorS5_blmdSaNS9_14adl_serializerESC_IhSaIhEEvEEESt10_Select1stISH_ESt4lessIvESaISH_EE14_M_create_nodeIJS5_DnEEEPSt13_Rb_tree_nodeISH_EDpOT_
FNDA:0,_ZNSt8_Rb_treeINSt7__cxx1112basic_stringIcSt11char_traitsIcESaIcEEESt4pairIKS5_N8nlohmann16json_abi_v3_11_310basic_jsonISt3mapSt6vectorS5_blmdSaNS9_14adl_serializerESC_IhSaIhEEvEEESt10_Select1stISH_ESt4lessIvESaISH_EE14_M_create_nodeIJS5_SG_EEEPSt13_Rb_tree_nodeISH_EDpOT_
FNDA:356,_ZNSt8_Rb_treeINSt7__cxx1112basic_stringIcSt11char_traitsIcESaIcEEESt4pairIKS5_N8nlohmann16json_abi_v3_11_310basic_jsonISt3mapSt6vectorS5_blmdSaNS9_14adl_serializerESC_IhSaIhEEvEEESt10_Select1stISH_ESt4lessIvESaISH_EE15_M_destroy_nodeEPSt13_Rb_tree_nodeISH_E
FNDA:356,_ZNSt8_Rb_treeINSt7__cxx1112basic_stringIcSt11char_traitsIcESaIcEEESt4pairIKS5_N8nlohmann16json_abi_v3_11_310basic_jsonISt3mapSt6vectorS5_blmdSaNS9_14adl_serializerESC_IhSaIhEEvEEESt10_Select1stISH_ESt4lessIvESaISH_EE12_M_drop_nodeEPSt13_Rb_tree_nodeISH_E
FNDA:0,_ZNSt8_Rb_treeINSt7__cxx1112basic_stringIcSt11char_traitsIcESaIcEEESt4pairIKS5_N8nlohmann16json_abi_v3_11_310basic_jsonISt3mapSt6vectorS5_blmdSaNS9_14adl_serializerESC_IhSaIhEEvEEESt10_Select1stISH_ESt4lessIvESaISH_EE13_M_clone_nodeILb0ENSN_11_Alloc_nodeEEEPSt13_Rb_tree_nodeISH_ESS_RT0_
FNDA:68,_ZNSt8_Rb_treeINSt7__cxx1112basic_stringIcSt11char_traitsIcESaIcEEESt4pairIKS5_N8nlohmann16json_abi_v3_11_310basic_jsonISt3mapSt6vectorS5_blmdSaNS9_14adl_serializerESC_IhSaIhEEvEEESt10_Select1stISH_ESt4lessIvESaISH_EE13_Rb_tree_implISL_Lb1EEC2Ev
FNDA:0,_ZNSt8_Rb_treeINSt7__cxx1112basic_stringIcSt11char_traitsIcESaIcEEESt4pairIKS5_N8nlohmann16json_abi_v3_11_310basic_jsonISt3mapSt6vectorS5_blmdSaNS9_14adl_serializerESC_IhSaIhEEvEEESt10_Select1stISH_ESt4lessIvESaISH_EE13_Rb_tree_implISL_Lb1EEC2ERKSP_
FNDA:0,_ZNSt8_Rb_treeINSt7__cxx1112basic_stringIcSt11char_traitsIcESaIcEEESt4pairIKS5_N8nlohmann16json_abi_v3_11_310basic_jsonISt3mapSt6vectorS5_blmdSaNS9_14adl_serializerESC_IhSaIhEEvEEESt10_Select1stISH_ESt4lessIvESaISH_EE7_M_rootEv
FNDA:0,_ZNKSt8_Rb_treeINSt7__cxx1112basic_stringIcSt11char_traitsIcESaIcEEESt4pairIKS5_N8nlohmann16json_abi_v3_11_310basic_jsonISt3mapSt6vectorS5_blmdSaNS9_14adl_serializerESC_IhSaIhEEvEEESt10_Select1stISH_ESt4lessIvESaISH_EE7_M_rootEv
FNDA:0,_ZNSt8_Rb_treeINSt7__cxx1112basic_stringIcSt11char_traitsIcESaIcEEESt4pairIKS5_N8nlohmann16json_abi_v3_11_310basic_jsonISt3mapSt6vectorS5_blmdSaNS9_14adl_serializerESC_IhSaIhEEvEEESt10_Select1stISH_ESt4lessIvESaISH_EE11_M_leftmostEv
FNDA:344,_ZNSt8_Rb_treeINSt7__cxx1112basic_stringIcSt11char_traitsIcESaIcEEESt4pairIKS5_N8nlohmann16json_abi_v3_11_310basic_jsonISt3mapSt6vectorS5_blmdSaNS9_14adl_serializerESC_IhSaIhEEvEEESt10_Select1stISH_ESt4lessIvESaISH_EE12_M_rightmostEv
FNDA:566,_ZNKSt8_Rb_treeINSt7__cxx1112basic_stringIcSt11char_traitsIcESaIcEEESt4pairIKS5_N8nlohmann16json_abi_v3_11_310basic_jsonISt3mapSt6vectorS5_blmdSaNS9_14adl_serializerESC_IhSaIhEEvEEESt10_Select1stISH_ESt4lessIvESaISH_EE9_M_mbeginEv
FNDA:566,_ZNSt8_Rb_treeINSt7__cxx1112basic_stringIcSt11char_traitsIcESaIcEEESt4pairIKS5_N8nlohmann16json_abi_v3_11_310basic_jsonISt3mapSt6vectorS5_blmdSaNS9_14adl_serializerESC_IhSaIhEEvEEESt10_Select1stISH_ESt4lessIvESaISH_EE8_M_beginEv
FNDA:68,_ZNKSt8_Rb_treeINSt7__cxx1112basic_stringIcSt11char_traitsIcESaIcEEESt4pairIKS5_N8nlohmann16json_abi_v3_11_310basic_jsonISt3mapSt6vectorS5_blmdSaNS9_14adl_serializerESC_IhSaIhEEvEEESt10_Select1stISH_ESt4lessIvESaISH_EE8_M_beginEv
FNDA:920,_ZNSt8_Rb_treeINSt7__cxx1112basic_stringIcSt11char_traitsIcESaIcEEESt4pairIKS5_N8nlohmann16json_abi_v3_11_310basic_jsonISt3mapSt6vectorS5_blmdSaNS9_14adl_serializerESC_IhSaIhEEvEEESt10_Select1stISH_ESt4lessIvESaISH_EE6_M_endEv
FNDA:68,_ZNKSt8_Rb_treeINSt7__cxx1112basic_stringIcSt11char_traitsIcESaIcEEESt4pairIKS5_N8nlohmann16json_abi_v3_11_310basic_jsonISt3mapSt6vectorS5_blmdSaNS9_14adl_serializerESC_IhSaIhEEvEEESt10_Select1stISH_ESt4lessIvESaISH_EE6_M_endEv
FNDA:1872,_ZNSt8_Rb_treeINSt7__cxx1112basic_stringIcSt11char_traitsIcESaIcEEESt4pairIKS5_N8nlohmann16json_abi_v3_11_310basic_jsonISt3mapSt6vectorS5_blmdSaNS9_14adl_serializerESC_IhSaIhEEvEEESt10_Select1stISH_ESt4lessIvESaISH_EE6_S_keyEPKSt13_Rb_tree_nodeISH_E
FNDA:374,_ZNSt8_Rb_treeINSt7__cxx1112basic_stringIcSt11char_traitsIcESaIcEEESt4pairIKS5_N8nlohmann16json_abi_v3_11_310basic_jsonISt3mapSt6vectorS5_blmdSaNS9_14adl_serializerESC_IhSaIhEEvEEESt10_Select1stISH_ESt4lessIvESaISH_EE7_S_leftEPSt18_Rb_tree_node_base
FNDA:66,_ZNSt8_Rb_treeINSt7__cxx1112basic_stringIcSt11char_traitsIcESaIcEEESt4pairIKS5_N8nlohmann16json_abi_v3_11_310basic_jsonISt3mapSt6vectorS5_blmdSaNS9_14adl_serializerESC_IhSaIhEEvEEESt10_Select1stISH_ESt4lessIvESaISH_EE7_S_leftEPKSt18_Rb_tree_node_base
FNDA:784,_ZNSt8_Rb_treeINSt7__cxx1112basic_stringIcSt11char_traitsIcESaIcEEESt4pairIKS5_N8nlohmann16json_abi_v3_11_310basic_jsonISt3mapSt6vectorS5_blmdSaNS9_14adl_serializerESC_IhSaIhEEvEEESt10_Select1stISH_ESt4lessIvESaISH_EE8_S_rightEPSt18_Rb_tree_node_base
FNDA:74,_ZNSt8_Rb_treeINSt7__cxx1112basic_stringIcSt11char_traitsIcESaIcEEESt4pairIKS5_N8nlohmann16json_abi_v3_11_310basic_jsonISt3mapSt6vectorS5_blmdSaNS9_14adl_serializerESC_IhSaIhEEvEEESt10_Select1stISH_ESt4lessIvESaISH_EE8_S_rightEPKSt18_Rb_tree_node_base
FNDA:534,_ZNSt8_Rb_treeINSt7__cxx1112basic_stringIcSt11char_traitsIcESaIcEEESt4pairIKS5_N8nlohmann16json_abi_v3_11_310basic_jsonISt3mapSt6vectorS5_blmdSaNS9_14adl_serializerESC_IhSaIhEEvEEESt10_Select1stISH_ESt4lessIvESaISH_EE6_S_keyEPKSt18_Rb_tree_node_base
FNDA:0,_ZNSt8_Rb_treeINSt7__cxx1112basic_stringIcSt11char_traitsIcESaIcEEESt4pairIKS5_N8nlohmann16json_abi_v3_11_310basic_jsonISt3mapSt6vectorS5_blmdSaNS9_14adl_serializerESC_IhSaIhEEvEEESt10_Select1stISH_ESt4lessIvESaISH_EE10_S_minimumEPSt18_Rb_tree_node_base
FNDA:0,_ZNSt8_Rb_treeINSt7__cxx1112basic_stringIcSt11char_traitsIcESaIcEEESt4pairIKS5_N8nlohmann16json_abi_v3_11_310basic_jsonISt3mapSt6vectorS5_blmdSaNS9_14adl_serializerESC_IhSaIhEEvEEESt10_Select1stISH_ESt4lessIvESaISH_EE10_S_maximumEPSt18_Rb_tree_node_base
FNDA:0,_ZNSt8_Rb_treeINSt7__cxx1112basic_stringIcSt11char_traitsIcESaIcEEESt4pairIKS5_N8nlohmann16json_abi_v3_11_310basic_jsonISt3mapSt6vectorS5_blmdSaNS9_14adl_serializerESC_IhSaIhEEvEEESt10_Select1stISH_ESt4lessIvESaISH_EE7_M_copyILb0ENSN_11_Alloc_nodeEEEPSt13_Rb_tree_nodeISH_ERKSN_RT0_
FNDA:0,_ZNSt8_Rb_treeINSt7__cxx1112basic_stringIcSt11char_traitsIcESaIcEEESt4pairIKS5_N8nlohmann16json_abi_v3_11_310basic_jsonISt3mapSt6vectorS5_blmdSaNS9_14adl_serializerESC_IhSaIhEEvEEESt10_Select1stISH_ESt4lessIvESaISH_EE7_M_copyERKSN_
FNDA:68,_ZNSt8_Rb_treeINSt7__cxx1112basic_stringIcSt11char_traitsIcESaIcEEESt4pairIKS5_N8nlohmann16json_abi_v3_11_310basic_jsonISt3mapSt6vectorS5_blmdSaNS9_14adl_serializerESC_IhSaIhEEvEEESt10_Select1stISH_ESt4lessIvESaISH_EEC2Ev
FNDA:0,_ZNSt8_Rb_treeINSt7__cxx1112basic_stringIcSt11char_traitsIcESaIcEEESt4pairIKS5_N8nlohmann16json_abi_v3_11_310basic_jsonISt3mapSt6vectorS5_blmdSaNS9_14adl_serializerESC_IhSaIhEEvEEESt10_Select1stISH_ESt4lessIvESaISH_EEC2ERKSN_
FNDA:68,_ZNSt8_Rb_treeINSt7__cxx1112basic_stringIcSt11char_traitsIcESaIcEEESt4pairIKS5_N8nlohmann16json_abi_v3_11_310basic_jsonISt3mapSt6vectorS5_blmdSaNS9_14adl_serializerESC_IhSaIhEEvEEESt10_Select1stISH_ESt4lessIvESaISH_EED2Ev
FNDA:0,_ZNKSt8_Rb_treeINSt7__cxx1112basic_stringIcSt11char_traitsIcESaIcEEESt4pairIKS5_N8nlohmann16json_abi_v3_11_310basic_jsonISt3mapSt6vectorS5_blmdSaNS9_14adl_serializerESC_IhSaIhEEvEEESt10_Select1stISH_ESt4lessIvESaISH_EE8key_compEv
FNDA:276,_ZNSt8_Rb_treeINSt7__cxx1112basic_stringIcSt11char_traitsIcESaIcEEESt4pairIKS5_N8nlohmann16json_abi_v3_11_310basic_jsonISt3mapSt6vectorS5_blmdSaNS9_14adl_serializerESC_IhSaIhEEvEEESt10_Select1stISH_ESt4lessIvESaISH_EE5beginEv
FNF:113
FNH:83
DA:112,0
DA:114,0
DA:115,0
DA:126,0
DA:128,0
DA:129,0
DA:146,68
DA:150,68
DA:152,0
DA:154,0
DA:173,78
DA:174,78
DA:175,78
DA:176,78
DA:177,78
DA:206,144
DA:208,144
DA:209,144
DA:210,144
DA:211,144
DA:212,144
DA:234,1324
DA:235,1324
DA:238,2056
DA:239,2056
DA:269,16
DA:270,16
DA:273,1830
DA:274,1830
DA:277,488
DA:278,488
DA:281,124
DA:282,124
DA:285,248
DA:287,248
DA:288,248
DA:300,74
DA:302,74
DA:303,74
DA:315,390
DA:316,390
DA:320,458
DA:321,458
DA:347,214
DA:348,214
DA:350,240
DA:351,240
DA:354,308
DA:355,308
DA:358,0
DA:359,0
DA:362,184
DA:363,184
DA:366,92
DA:368,92
DA:369,92
DA:381,0
DA:383,0
DA:384,0
DA:396,24
DA:397,24
DA:401,92
DA:402,92
DA:525,0
DA:526,0
DA:530,0
DA:531,0
DA:549,1424
DA:550,1424
DA:553,0
DA:554,0
DA:562,356
DA:563,712
DA:566,356
DA:567,356
DA:592,356
DA:596,356
DA:597,356
DA:601,0
DA:603,0
DA:604,0
DA:605,0
DA:607,356
DA:611,356
DA:613,356
DA:614,356
DA:615,356
DA:620,356
DA:625,356
DA:626,356
DA:628,356
DA:631,356
DA:633,356
DA:634,356
DA:635,356
DA:639,0
DA:647,0
DA:648,0
DA:649,0
DA:650,0
DA:651,0
DA:669,68
DA:673,68
DA:674,68
DA:676,0
DA:678,0
DA:679,0
DA:680,0
DA:712,0
DA:713,0
DA:716,0
DA:717,0
DA:720,0
DA:721,0
DA:728,344
DA:729,344
DA:736,566
DA:737,566
DA:740,566
DA:741,566
DA:744,68
DA:747,68
DA:751,920
DA:752,920
DA:755,68
DA:756,68
DA:759,1872
DA:777,1872
DA:781,374
DA:782,374
DA:785,66
DA:786,66
DA:789,784
DA:790,784
DA:793,74
DA:794,74
DA:797,534
DA:798,534
DA:801,0
DA:802,0
DA:809,0
DA:810,0
DA:889,0
DA:892,0
DA:893,0
DA:894,0
DA:895,0
DA:896,0
DA:900,0
DA:902,0
DA:903,0
DA:930,68
DA:937,0
DA:938,0
DA:940,0
DA:941,0
DA:942,0
DA:985,68
DA:986,68
DA:993,0
DA:994,0
DA:997,276
DA:998,276
DA:1001,24
DA:1002,24
DA:1005,458
DA:1006,458
DA:1009,122
DA:1010,122
DA:1029,24
DA:1030,24
DA:1033,400
DA:1034,400
DA:1037,0
DA:1038,0
DA:1205,0
DA:1207,0
DA:1208,0
DA:1209,0
DA:1210,0
DA:1211,0
DA:1253,66
DA:1255,66
DA:1256,66
DA:1257,66
DA:1270,240
DA:1271,240
DA:1295,68
DA:1297,68
DA:1298,68
DA:1304,68
DA:1306,68
DA:1307,68
DA:1308,6
DA:1309,68
DA:1333,68
DA:1335,68
DA:1336,68
DA:1337,208
DA:1338,140
DA:1340,66
DA:1341,66
DA:1344,74
DA:1345,68
DA:1605,0
DA:1607,0
DA:1608,0
DA:1635,356
DA:1636,356
DA:1637,356
DA:1638,356
DA:1640,356
DA:1642,356
DA:1643,108
DA:1644,356
DA:1651,356
DA:1652,356
DA:1655,248
DA:1657,248
DA:1658,248
DA:1659,248
DA:1892,0
DA:1896,0
DA:1897,0
DA:1901,0
DA:1902,0
DA:1903,0
DA:1904,0
DA:1905,0
DA:1907,0
DA:1909,0
DA:1910,0
DA:1911,0
DA:1912,0
DA:1913,0
DA:1915,0
DA:1916,0
DA:1919,0
DA:1921,0
DA:1922,0
DA:1924,0
DA:1930,382
DA:1934,630
DA:1936,248
DA:1937,248
DA:1938,248
DA:1939,248
DA:1941,382
DA:1947,248
DA:1951,588
DA:1952,340
DA:1953,8
DA:1955,332
DA:1956,248
DA:2108,184
DA:2112,184
DA:2113,184
DA:2114,184
DA:2115,506
DA:2117,322
DA:2118,322
DA:2119,322
DA:2121,184
DA:2122,184
DA:2124,142
DA:2125,68
DA:2127,74
DA:2129,116
DA:2130,8
DA:2131,108
DA:2210,240
DA:2214,240
DA:2218,240
DA:2220,240
DA:2221,240
DA:2222,172
DA:2224,68
DA:2226,0
DA:2229,0
DA:2230,0
DA:2231,0
DA:2232,0
DA:2234,0
DA:2235,0
DA:2237,0
DA:2240,0
DA:2242,0
DA:2245,0
DA:2246,0
DA:2247,0
DA:2248,0
DA:2250,0
DA:2251,0
DA:2253,0
DA:2256,0
DA:2260,0
DA:2377,248
DA:2381,248
DA:2382,496
DA:2385,248
DA:2386,248
DA:2387,248
DA:2388,248
DA:2430,116
DA:2434,116
DA:2435,116
DA:2436,116
DA:2437,8
DA:2438,108
DA:2439,116
DA:2458,240
DA:2462,240
DA:2463,240
DA:2464,240
DA:2465,240
DA:2466,0
DA:2467,240
DA:2489,0
DA:2494,0
DA:2495,0
DA:2496,0
DA:2497,0
DA:2498,0
DA:2529,8
DA:2532,8
DA:2533,16
DA:2534,8
DA:2535,24
LF:328
LH:212
end_of_record
TN:
SF:/usr/include/c++/13/bits/stl_uninitialized.h
FN:1069,1079,_ZSt19__relocate_object_aIN8nlohmann16json_abi_v3_11_310basic_jsonISt3mapSt6vectorNSt7__cxx1112basic_stringIcSt11char_traitsIcESaIcEEEblmdSaNS1_14adl_serializerES4_IhSaIhEEvEESE_SaISE_EEvPT_PT0_RT1_
FN:1069,1079,_ZSt19__relocate_object_aINSt7__cxx1112basic_stringIcSt11char_traitsIcESaIcEEES5_SaIS5_EEvPT_PT0_RT1_
FN:1091,1108,_ZSt14__relocate_a_1IPN8nlohmann16json_abi_v3_11_310basic_jsonISt3mapSt6vectorNSt7__cxx1112basic_stringIcSt11char_traitsIcESaIcEEEblmdSaNS1_14adl_serializerES4_IhSaIhEEvEESF_SaISE_EET0_T_SI_SH_RT1_
FN:1091,1108,_ZSt14__relocate_a_1IPNSt7__cxx1112basic_stringIcSt11char_traitsIcESaIcEEES6_SaIS5_EET0_T_S9_S8_RT1_
FN:1114,1134,_ZSt14__relocate_a_1IPN8nlohmann16json_abi_v3_11_310basic_jsonISt3mapSt6vectorNSt7__cxx1112basic_stringIcSt11char_traitsIcESaIcEEEblmdSaNS1_14adl_serializerES4_IhSaIhEEvEESF_ENSt9enable_ifIXsrSt24__is_bitwise_relocatableIT_vE5valueEPSI_E4typeESK_SK_SK_RSaIT0_E
FN:1114,1134,_ZSt14__relocate_a_1IccENSt9enable_ifIXsrSt24__is_bitwise_relocatableIT_vE5valueEPS2_E4typeES4_S4_S4_RSaIT0_E
FN:113,128,_ZSt16__do_uninit_copyIN9__gnu_cxx17__normal_iteratorIPKN8nlohmann16json_abi_v3_11_310basic_jsonISt3mapSt6vectorNSt7__cxx1112basic_stringIcSt11char_traitsIcESaIcEEEblmdSaNS3_14adl_serializerES6_IhSaIhEEvEES6_ISG_SaISG_EEEEPSG_ET0_T_SO_SN_
FN:113,128,_ZSt16__do_uninit_copyIPKN8nlohmann16json_abi_v3_11_36detail8json_refINS1_10basic_jsonISt3mapSt6vectorNSt7__cxx1112basic_stringIcSt11char_traitsIcESaIcEEEblmdSaNS1_14adl_serializerES6_IhSaIhEEvEEEEPSG_ET0_T_SM_SL_
FN:113,128,_ZSt16__do_uninit_copyIPKPKcPNSt7__cxx1112basic_stringIcSt11char_traitsIcESaIcEEEET0_T_SC_SB_
FN:113,128,_ZSt16__do_uninit_copyISt13move_iteratorIPN8nlohmann16json_abi_v3_11_310basic_jsonISt3mapSt6vectorNSt7__cxx1112basic_stringIcSt11char_traitsIcESaIcEEEblmdSaNS2_14adl_serializerES5_IhSaIhEEvEEESG_ET0_T_SJ_SI_
FN:113,128,_ZSt16__do_uninit_copyISt13move_iteratorIPNSt7__cxx1112basic_stringIcSt11char_traitsIcESaIcEEEES7_ET0_T_SA_S9_
FN:1141,1150,_ZSt12__relocate_aIPN8nlohmann16json_abi_v3_11_310basic_jsonISt3mapSt6vectorNSt7__cxx1112basic_stringIcSt11char_traitsIcESaIcEEEblmdSaNS1_14adl_serializerES4_IhSaIhEEvEESF_SaISE_EET0_T_SI_SH_RT1_
FN:1141,1150,_ZSt12__relocate_aIPNSt7__cxx1112basic_stringIcSt11char_traitsIcESaIcEEES6_SaIS5_EET0_T_S9_S8_RT1_
FN:1141,1150,_ZSt12__relocate_aIPPN8nlohmann16json_abi_v3_11_310basic_jsonISt3mapSt6vectorNSt7__cxx1112basic_stringIcSt11char_traitsIcESaIcEEEblmdSaNS1_14adl_serializerES4_IhSaIhEEvEESG_SaISF_EET0_T_SJ_SI_RT1_
FN:1141,1150,_ZSt12__relocate_aIPcS0_SaIcEET0_T_S3_S2_RT1_
FN:135,137,_ZNSt20__uninitialized_copyILb0EE13__uninit_copyIN9__gnu_cxx17__normal_iteratorIPKN8nlohmann16json_abi_v3_11_310basic_jsonISt3mapSt6vectorNSt7__cxx1112basic_stringIcSt11char_traitsIcESaIcEEEblmdSaNS5_14adl_serializerES8_IhSaIhEEvEES8_ISI_SaISI_EEEEPSI_EET0_T_SQ_SP_
FN:135,137,_ZNSt20__uninitialized_copyILb0EE13__uninit_copyIPKN8nlohmann16json_abi_v3_11_36detail8json_refINS3_10basic_jsonISt3mapSt6vectorNSt7__cxx1112basic_stringIcSt11char_traitsIcESaIcEEEblmdSaNS3_14adl_serializerES8_IhSaIhEEvEEEEPSI_EET0_T_SO_SN_
FN:135,137,_ZNSt20__uninitialized_copyILb0EE13__uninit_copyIPKPKcPNSt7__cxx1112basic_stringIcSt11char_traitsIcESaIcEEEEET0_T_SE_SD_
FN:135,137,_ZNSt20__uninitialized_copyILb0EE13__uninit_copyISt13move_iteratorIPN8nlohmann16json_abi_v3_11_310basic_jsonISt3mapSt6vectorNSt7__cxx1112basic_stringIcSt11char_traitsIcESaIcEEEblmdSaNS4_14adl_serializerES7_IhSaIhEEvEEESI_EET0_T_SL_SK_
FN:135,137,_ZNSt20__uninitialized_copyILb0EE13__uninit_copyISt13move_iteratorIPNSt7__cxx1112basic_stringIcSt11char_traitsIcESaIcEEEES9_EET0_T_SC_SB_
FN:145,147,_ZNSt20__uninitialized_copyILb1EE13__uninit_copyIN9__gnu_cxx17__normal_iteratorIPKhSt6vectorIhSaIhEEEEPhEET0_T_SC_SB_
FN:145,147,_ZNSt20__uninitialized_copyILb1EE13__uninit_copyISt13move_iteratorIPPN8nlohmann16json_abi_v3_11_310basic_jsonISt3mapSt6vectorNSt7__cxx1112basic_stringIcSt11char_traitsIcESaIcEEEblmdSaNS4_14adl_serializerES7_IhSaIhEEvEEESJ_EET0_T_SM_SL_
FN:145,147,_ZNSt20__uninitialized_copyILb1EE13__uninit_copyISt13move_iteratorIPcES3_EET0_T_S6_S5_
FN:163,186,_ZSt18uninitialized_copyIN9__gnu_cxx17__normal_iteratorIPKN8nlohmann16json_abi_v3_11_310basic_jsonISt3mapSt6vectorNSt7__cxx1112basic_stringIcSt11char_traitsIcESaIcEEEblmdSaNS3_14adl_serializerES6_IhSaIhEEvEES6_ISG_SaISG_EEEEPSG_ET0_T_SO_SN_
FN:163,186,_ZSt18uninitialized_copyIN9__gnu_cxx17__normal_iteratorIPKhSt6vectorIhSaIhEEEEPhET0_T_SA_S9_
FN:163,186,_ZSt18uninitialized_copyIPKN8nlohmann16json_abi_v3_11_36detail8json_refINS1_10basic_jsonISt3mapSt6vectorNSt7__cxx1112basic_stringIcSt11char_traitsIcESaIcEEEblmdSaNS1_14adl_serializerES6_IhSaIhEEvEEEEPSG_ET0_T_SM_SL_
FN:163,186,_ZSt18uninitialized_copyIPKPKcPNSt7__cxx1112basic_stringIcSt11char_traitsIcESaIcEEEET0_T_SC_SB_
FN:163,186,_ZSt18uninitialized_copyISt13move_iteratorIPN8nlohmann16json_abi_v3_11_310basic_jsonISt3mapSt6vectorNSt7__cxx1112basic_stringIcSt11char_traitsIcESaIcEEEblmdSaNS2_14adl_serializerES5_IhSaIhEEvEEESG_ET0_T_SJ_SI_
FN:163,186,_ZSt18uninitialized_copyISt13move_iteratorIPNSt7__cxx1112basic_stringIcSt11char_traitsIcESaIcEEEES7_ET0_T_SA_S9_
FN:163,186,_ZSt18uninitialized_copyISt13move_iteratorIPPN8nlohmann16json_abi_v3_11_310basic_jsonISt3mapSt6vectorNSt7__cxx1112basic_stringIcSt11char_traitsIcESaIcEEEblmdSaNS2_14adl_serializerES5_IhSaIhEEvEEESH_ET0_T_SK_SJ_
FN:163,186,_ZSt18uninitialized_copyISt13move_iteratorIPcES1_ET0_T_S4_S3_
FN:366,374,_ZSt22__uninitialized_copy_aIN9__gnu_cxx17__normal_iteratorIPKN8nlohmann16json_abi_v3_11_310basic_jsonISt3mapSt6vectorNSt7__cxx1112basic_stringIcSt11char_traitsIcESaIcEEEblmdSaNS3_14adl_serializerES6_IhSaIhEEvEES6_ISG_SaISG_EEEEPSG_SG_ET0_T_SO_SN_RSaIT1_E
FN:366,374,_ZSt22__uninitialized_copy_aIN9__gnu_cxx17__normal_iteratorIPKhSt6vectorIhSaIhEEEEPhhET0_T_SA_S9_RSaIT1_E
FN:366,374,_ZSt22__uninitialized_copy_aIPKN8nlohmann16json_abi_v3_11_36detail8json_refINS1_10basic_jsonISt3mapSt6vectorNSt7__cxx1112basic_stringIcSt11char_traitsIcESaIcEEEblmdSaNS1_14adl_serializerES6_IhSaIhEEvEEEEPSG_SG_ET0_T_SM_SL_RSaIT1_E
FN:366,374,_ZSt22__uninitialized_copy_aIPKPKcPNSt7__cxx1112basic_stringIcSt11char_traitsIcESaIcEEES9_ET0_T_SC_SB_RSaIT1_E
FN:366,374,_ZSt22__uninitialized_copy_aISt13move_iteratorIPN8nlohmann16json_abi_v3_11_310basic_jsonISt3mapSt6vectorNSt7__cxx1112basic_stringIcSt11char_traitsIcESaIcEEEblmdSaNS2_14adl_serializerES5_IhSaIhEEvEEESG_SF_ET0_T_SJ_SI_RSaIT1_E
FN:366,374,_ZSt22__uninitialized_copy_aISt13move_iteratorIPNSt7__cxx1112basic_stringIcSt11char_traitsIcESaIcEEEES7_S6_ET0_T_SA_S9_RSaIT1_E
FN:366,374,_ZSt22__uninitialized_copy_aISt13move_iteratorIPPN8nlohmann16json_abi_v3_11_310basic_jsonISt3mapSt6vectorNSt7__cxx1112basic_stringIcSt11char_traitsIcESaIcEEEblmdSaNS2_14adl_serializerES5_IhSaIhEEvEEESH_SG_ET0_T_SK_SJ_RSaIT1_E
FN:366,374,_ZSt22__uninitialized_copy_aISt13move_iteratorIPcES1_cET0_T_S4_S3_RSaIT1_E
FN:393,401,_ZSt34__uninitialized_move_if_noexcept_aIPN8nlohmann16json_abi_v3_11_310basic_jsonISt3mapSt6vectorNSt7__cxx1112basic_stringIcSt11char_traitsIcESaIcEEEblmdSaNS1_14adl_serializerES4_IhSaIhEEvEESF_SaISE_EET0_T_SI_SH_RT1_
FN:393,401,_ZSt34__uninitialized_move_if_noexcept_aIPNSt7__cxx1112basic_stringIcSt11char_traitsIcESaIcEEES6_SaIS5_EET0_T_S9_S8_RT1_
FN:393,401,_ZSt34__uninitialized_move_if_noexcept_aIPPN8nlohmann16json_abi_v3_11_310basic_jsonISt3mapSt6vectorNSt7__cxx1112basic_stringIcSt11char_traitsIcESaIcEEEblmdSaNS1_14adl_serializerES4_IhSaIhEEvEESG_SaISF_EET0_T_SJ_SI_RT1_
FN:393,401,_ZSt34__uninitialized_move_if_noexcept_aIPcS0_SaIcEET0_T_S3_S2_RT1_
FN:637,651,_ZNSt27__uninitialized_default_n_1ILb0EE18__uninit_default_nIPN8nlohmann16json_abi_v3_11_310basic_jsonISt3mapSt6vectorNSt7__cxx1112basic_stringIcSt11char_traitsIcESaIcEEEblmdSaNS3_14adl_serializerES6_IhSaIhEEvEEmEET_SI_T0_
FN:696,713,_ZSt25__uninitialized_default_nIPN8nlohmann16json_abi_v3_11_310basic_jsonISt3mapSt6vectorNSt7__cxx1112basic_stringIcSt11char_traitsIcESaIcEEEblmdSaNS1_14adl_serializerES4_IhSaIhEEvEEmET_SG_T0_
FN:777,779,_ZSt27__uninitialized_default_n_aIPN8nlohmann16json_abi_v3_11_310basic_jsonISt3mapSt6vectorNSt7__cxx1112basic_stringIcSt11char_traitsIcESaIcEEEblmdSaNS1_14adl_serializerES4_IhSaIhEEvEEmSE_ET_SG_T0_RSaIT1_E
FNDA:76,_ZSt19__relocate_object_aIN8nlohmann16json_abi_v3_11_310basic_jsonISt3mapSt6vectorNSt7__cxx1112basic_stringIcSt11char_traitsIcESaIcEEEblmdSaNS1_14adl_serializerES4_IhSaIhEEvEESE_SaISE_EEvPT_PT0_RT1_
FNDA:2189,_ZSt19__relocate_object_aINSt7__cxx1112basic_stringIcSt11char_traitsIcESaIcEEES5_SaIS5_EEvPT_PT0_RT1_
FNDA:106,_ZSt14__relocate_a_1IPN8nlohmann16json_abi_v3_11_310basic_jsonISt3mapSt6vectorNSt7__cxx1112basic_stringIcSt11char_traitsIcESaIcEEEblmdSaNS1_14adl_serializerES4_IhSaIhEEvEESF_SaISE_EET0_T_SI_SH_RT1_
FNDA:638,_ZSt14__relocate_a_1IPNSt7__cxx1112basic_stringIcSt11char_traitsIcESaIcEEES6_SaIS5_EET0_T_S9_S8_RT1_
FNDA:76,_ZSt14__relocate_a_1IPN8nlohmann16json_abi_v3_11_310basic_jsonISt3mapSt6vectorNSt7__cxx1112basic_stringIcSt11char_traitsIcESaIcEEEblmdSaNS1_14adl_serializerES4_IhSaIhEEvEESF_ENSt9enable_ifIXsrSt24__is_bitwise_relocatableIT_vE5valueEPSI_E4typeESK_SK_SK_RSaIT0_E
FNDA:188,_ZSt14__relocate_a_1IccENSt9enable_ifIXsrSt24__is_bitwise_relocatableIT_vE5valueEPS2_E4typeES4_S4_S4_RSaIT0_E
FNDA:0,_ZSt16__do_uninit_copyIN9__gnu_cxx17__normal_iteratorIPKN8nlohmann16json_abi_v3_11_310basic_jsonISt3mapSt6vectorNSt7__cxx1112basic_stringIcSt11char_traitsIcESaIcEEEblmdSaNS3_14adl_serializerES6_IhSaIhEEvEES6_ISG_SaISG_EEEEPSG_ET0_T_SO_SN_
FNDA:0,_ZSt16__do_uninit_copyIPKN8nlohmann16json_abi_v3_11_36detail8json_refINS1_10basic_jsonISt3mapSt6vectorNSt7__cxx1112basic_stringIcSt11char_traitsIcESaIcEEEblmdSaNS1_14adl_serializerES6_IhSaIhEEvEEEEPSG_ET0_T_SM_SL_
FNDA:10,_ZSt16__do_uninit_copyIPKPKcPNSt7__cxx1112basic_stringIcSt11char_traitsIcESaIcEEEET0_T_SC_SB_
FNDA:0,_ZSt16__do_uninit_copyISt13move_iteratorIPN8nlohmann16json_abi_v3_11_310basic_jsonISt3mapSt6vectorNSt7__cxx1112basic_stringIcSt11char_traitsIcESaIcEEEblmdSaNS2_14adl_serializerES5_IhSaIhEEvEEESG_ET0_T_SJ_SI_
FNDA:0,_ZSt16__do_uninit_copyISt13move_iteratorIPNSt7__cxx1112basic_stringIcSt11char_traitsIcESaIcEEEES7_ET0_T_SA_S9_
FNDA:106,_ZSt12__relocate_aIPN8nlohmann16json_abi_v3_11_310basic_jsonISt3mapSt6vectorNSt7__cxx1112basic_stringIcSt11char_traitsIcESaIcEEEblmdSaNS1_14adl_serializerES4_IhSaIhEEvEESF_SaISE_EET0_T_SI_SH_RT1_
FNDA:638,_ZSt12__relocate_aIPNSt7__cxx1112basic_stringIcSt11char_traitsIcESaIcEEES6_SaIS5_EET0_T_S9_S8_RT1_
FNDA:76,_ZSt12__relocate_aIPPN8nlohmann16json_abi_v3_11_310basic_jsonISt3mapSt6vectorNSt7__cxx1112basic_stringIcSt11char_traitsIcESaIcEEEblmdSaNS1_14adl_serializerES4_IhSaIhEEvEESG_SaISF_EET0_T_SJ_SI_RT1_
FNDA:188,_ZSt12__relocate_aIPcS0_SaIcEET0_T_S3_S2_RT1_
FNDA:0,_ZNSt20__uninitialized_copyILb0EE13__uninit_copyIN9__gnu_cxx17__normal_iteratorIPKN8nlohmann16json_abi_v3_11_310basic_jsonISt3mapSt6vectorNSt7__cxx1112basic_stringIcSt11char_traitsIcESaIcEEEblmdSaNS5_14adl_serializerES8_IhSaIhEEvEES8_ISI_SaISI_EEEEPSI_EET0_T_SQ_SP_
FNDA:0,_ZNSt20__uninitialized_copyILb0EE13__uninit_copyIPKN8nlohmann16json_abi_v3_11_36detail8json_refINS3_10basic_jsonISt3mapSt6vectorNSt7__cxx1112basic_stringIcSt11char_traitsIcESaIcEEEblmdSaNS3_14adl_serializerES8_IhSaIhEEvEEEEPSI_EET0_T_SO_SN_
FNDA:10,_ZNSt20__uninitialized_copyILb0EE13__uninit_copyIPKPKcPNSt7__cxx1112basic_stringIcSt11char_traitsIcESaIcEEEEET0_T_SE_SD_
FNDA:0,_ZNSt20__uninitialized_copyILb0EE13__uninit_copyISt13move_iteratorIPN8nlohmann16json_abi_v3_11_310basic_jsonISt3mapSt6vectorNSt7__cxx1112basic_stringIcSt11char_traitsIcESaIcEEEblmdSaNS4_14adl_serializerES7_IhSaIhEEvEEESI_EET0_T_SL_SK_
FNDA:0,_ZNSt20__uninitialized_copyILb0EE13__uninit_copyISt13move_iteratorIPNSt7__cxx1112basic_stringIcSt11char_traitsIcESaIcEEEES9_EET0_T_SC_SB_
FNDA:0,_ZNSt20__uninitialized_copyILb1EE13__uninit_copyIN9__gnu_cxx17__normal_iteratorIPKhSt6vectorIhSaIhEEEEPhEET0_T_SC_SB_
FNDA:0,_ZNSt20__uninitialized_copyILb1EE13__uninit_copyISt13move_iteratorIPPN8nlohmann16json_abi_v3_11_310basic_jsonISt3mapSt6vectorNSt7__cxx1112basic_stringIcSt11char_traitsIcESaIcEEEblmdSaNS4_14adl_serializerES7_IhSaIhEEvEEESJ_EET0_T_SM_SL_
FNDA:0,_ZNSt20__uninitialized_copyILb1EE13__uninit_copyISt13move_iteratorIPcES3_EET0_T_S6_S5_
FNDA:0,_ZSt18uninitialized_copyIN9__gnu_cxx17__normal_iteratorIPKN8nlohmann16json_abi_v3_11_310basic_jsonISt3mapSt6vectorNSt7__cxx1112basic_stringIcSt11char_traitsIcESaIcEEEblmdSaNS3_14adl_serializerES6_IhSaIhEEvEES6_ISG_SaISG_EEEEPSG_ET0_T_SO_SN_
FNDA:0,_ZSt18uninitialized_copyIN9__gnu_cxx17__normal_iteratorIPKhSt6vectorIhSaIhEEEEPhET0_T_SA_S9_
FNDA:0,_ZSt18uninitialized_copyIPKN8nlohmann16json_abi_v3_11_36detail8json_refINS1_10basic_jsonISt3mapSt6vectorNSt7__cxx1112basic_stringIcSt11char_traitsIcESaIcEEEblmdSaNS1_14adl_serializerES6_IhSaIhEEvEEEEPSG_ET0_T_SM_SL_
FNDA:10,_ZSt18uninitialized_copyIPKPKcPNSt7__cxx1112basic_stringIcSt11char_traitsIcESaIcEEEET0_T_SC_SB_
FNDA:0,_ZSt18uninitialized_copyISt13move_iteratorIPN8nlohmann16json_abi_v3_11_310basic_jsonISt3mapSt6vectorNSt7__cxx1112basic_stringIcSt11char_traitsIcESaIcEEEblmdSaNS2_14adl_serializerES5_IhSaIhEEvEEESG_ET0_T_SJ_SI_
FNDA:0,_ZSt18uninitialized_copyISt13move_iteratorIPNSt7__cxx1112basic_stringIcSt11char_traitsIcESaIcEEEES7_ET0_T_SA_S9_
FNDA:0,_ZSt18uninitialized_copyISt13move_iteratorIPPN8nlohmann16json_abi_v3_11_310basic_jsonISt3mapSt6vectorNSt7__cxx1112basic_stringIcSt11char_traitsIcESaIcEEEblmdSaNS2_14adl_serializerES5_IhSaIhEEvEEESH_ET0_T_SK_SJ_
FNDA:0,_ZSt18uninitialized_copyISt13move_iteratorIPcES1_ET0_T_S4_S3_
FNDA:0,_ZSt22__uninitialized_copy_aIN9__gnu_cxx17__normal_iteratorIPKN8nlohmann16json_abi_v3_11_310basic_jsonISt3mapSt6vectorNSt7__cxx1112basic_stringIcSt11char_traitsIcESaIcEEEblmdSaNS3_14adl_serializerES6_IhSaIhEEvEES6_ISG_SaISG_EEEEPSG_SG_ET0_T_SO_SN_RSaIT1_E
FNDA:0,_ZSt22__uninitialized_copy_aIN9__gnu_cxx17__normal_iteratorIPKhSt6vectorIhSaIhEEEEPhhET0_T_SA_S9_RSaIT1_E
FNDA:0,_ZSt22__uninitialized_copy_aIPKN8nlohmann16json_abi_v3_11_36detail8json_refINS1_10basic_jsonISt3mapSt6vectorNSt7__cxx1112basic_stringIcSt11char_traitsIcESaIcEEEblmdSaNS1_14adl_serializerES6_IhSaIhEEvEEEEPSG_SG_ET0_T_SM_SL_RSaIT1_E
FNDA:10,_ZSt22__uninitialized_copy_aIPKPKcPNSt7__cxx1112basic_stringIcSt11char_traitsIcESaIcEEES9_ET0_T_SC_SB_RSaIT1_E
FNDA:0,_ZSt22__uninitialized_copy_aISt13move_iteratorIPN8nlohmann16json_abi_v3_11_310basic_jsonISt3mapSt6vectorNSt7__cxx1112basic_stringIcSt11char_traitsIcESaIcEEEblmdSaNS2_14adl_serializerES5_IhSaIhEEvEEESG_SF_ET0_T_SJ_SI_RSaIT1_E
FNDA:0,_ZSt22__uninitialized_copy_aISt13move_iteratorIPNSt7__cxx1112basic_stringIcSt11char_traitsIcESaIcEEEES7_S6_ET0_T_SA_S9_RSaIT1_E
FNDA:0,_ZSt22__uninitialized_copy_aISt13move_iteratorIPPN8nlohmann16json_abi_v3_11_310basic_jsonISt3mapSt6vectorNSt7__cxx1112basic_stringIcSt11char_traitsIcESaIcEEEblmdSaNS2_14adl_serializerES5_IhSaIhEEvEEESH_SG_ET0_T_SK_SJ_RSaIT1_E
FNDA:0,_ZSt22__uninitialized_copy_aISt13move_iteratorIPcES1_cET0_T_S4_S3_RSaIT1_E
FNDA:0,_ZSt34__uninitialized_move_if_noexcept_aIPN8nlohmann16json_abi_v3_11_310basic_jsonISt3mapSt6vectorNSt7__cxx1112basic_stringIcSt11char_traitsIcESaIcEEEblmdSaNS1_14adl_serializerES4_IhSaIhEEvEESF_SaISE_EET0_T_SI_SH_RT1_
FNDA:0,_ZSt34__uninitialized_move_if_noexcept_aIPNSt7__cxx1112basic_stringIcSt11char_traitsIcESaIcEEES6_SaIS5_EET0_T_S9_S8_RT1_
FNDA:0,_ZSt34__uninitialized_move_if_noexcept_aIPPN8nlohmann16json_abi_v3_11_310basic_jsonISt3mapSt6vectorNSt7__cxx1112basic_stringIcSt11char_traitsIcESaIcEEEblmdSaNS1_14adl_serializerES4_IhSaIhEEvEESG_SaISF_EET0_T_SJ_SI_RT1_
FNDA:0,_ZSt34__uninitialized_move_if_noexcept_aIPcS0_SaIcEET0_T_S3_S2_RT1_
FNDA:0,_ZNSt27__uninitialized_default_n_1ILb0EE18__uninit_default_nIPN8nlohmann16json_abi_v3_11_310basic_jsonISt3mapSt6vectorNSt7__cxx1112basic_stringIcSt11char_traitsIcESaIcEEEblmdSaNS3_14adl_serializerES6_IhSaIhEEvEEmEET_SI_T0_
FNDA:0,_ZSt25__uninitialized_default_nIPN8nlohmann16json_abi_v3_11_310basic_jsonISt3mapSt6vectorNSt7__cxx1112basic_stringIcSt11char_traitsIcESaIcEEEblmdSaNS1_14adl_serializerES4_IhSaIhEEvEEmET_SG_T0_
FNDA:0,_ZSt27__uninitialized_default_n_aIPN8nlohmann16json_abi_v3_11_310basic_jsonISt3mapSt6vectorNSt7__cxx1112basic_stringIcSt11char_traitsIcESaIcEEEblmdSaNS1_14adl_serializerES4_IhSaIhEEvEEmSE_ET_SG_T0_RSaIT1_E
FNF:46
FNH:14
DA:113,10
DA:116,10
DA:119,40
DA:120,30
DA:121,10
DA:123,0
DA:125,0
DA:126,0
DA:135,10
DA:137,10
DA:145,0
DA:147,0
DA:163,10
DA:174,10
DA:181,10
DA:185,10
DA:366,10
DA:373,10
DA:393,0
DA:399,0
DA:400,0
DA:637,0
DA:639,0
DA:642,0
DA:643,0
DA:644,0
DA:696,0
DA:707,0
DA:712,0
DA:777,0
DA:779,0
DA:1069,2265
DA:1077,2265
DA:1078,2265
DA:1079,2265
DA:1091,744
DA:1103,744
DA:1104,3009
DA:1105,2265
DA:1107,744
DA:1114,264
DA:1118,264
DA:1119,264
DA:1131,104
DA:1133,264
DA:1141,1008
DA:1147,1008
DA:1149,1008
LF:48
LH:30
end_of_record
TN:
SF:/usr/include/c++/13/bits/stl_vector.h
FN:1013,1019,_ZNSt6vectorIN8nlohmann16json_abi_v3_11_310basic_jsonISt3mapS_NSt7__cxx1112basic_stringIcSt11char_traitsIcESaIcEEEblmdSaNS1_14adl_serializerES_IhSaIhEEvEESaISD_EE6resizeEm
FN:1078,1080,_ZNKSt6vectorIN8nlohmann16json_abi_v3_11_310basic_jsonISt3mapS_NSt7__cxx1112basic_stringIcSt11char_traitsIcESaIcEEEblmdSaNS1_14adl_serializerES_IhSaIhEEvEESaISD_EE8capacityEv
FN:1088,1089,_ZNKSt6vectorIN8nlohmann16json_abi_v3_11_310basic_jsonISt3mapS_NSt7__cxx1112basic_stringIcSt11char_traitsIcESaIcEEEblmdSaNS1_14adl_serializerES_IhSaIhEEvEESaISD_EE5emptyEv
FN:1088,1089,_ZNKSt6vectorINSt7__cxx1112basic_stringIcSt11char_traitsIcESaIcEEESaIS5_EE5emptyEv
FN:1088,1089,_ZNKSt6vectorIPN8nlohmann16json_abi_v3_11_310basic_jsonISt3mapS_NSt7__cxx1112basic_stringIcSt11char_traitsIcESaIcEEEblmdSaNS1_14adl_serializerES_IhSaIhEEvEESaISE_EE5emptyEv
FN:1088,1089,_ZNKSt6vectorIcSaIcEE5emptyEv
FN:1088,1089,_ZNKSt6vectorIhSaIhEE5emptyEv
FN:1126,1130,_ZNSt6vectorIN8nlohmann16json_abi_v3_11_310basic_jsonISt3mapS_NSt7__cxx1112basic_stringIcSt11char_traitsIcESaIcEEEblmdSaNS1_14adl_serializerES_IhSaIhEEvEESaISD_EEixEm
FN:1126,1130,_ZNSt6vectorINSt7__cxx1112basic_stringIcSt11char_traitsIcESaIcEEESaIS5_EEixEm
FN:1145,1149,_ZNKSt6vectorINSt7__cxx1112basic_stringIcSt11char_traitsIcESaIcEEESaIS5_EEixEm
FN:1209,1213,_ZNSt6vectorINSt7__cxx1112basic_stringIcSt11char_traitsIcESaIcEEESaIS5_EE5frontEv
FN:1233,1237,_ZNSt6vectorIN8nlohmann16json_abi_v3_11_310basic_jsonISt3mapS_NSt7__cxx1112basic_stringIcSt11char_traitsIcESaIcEEEblmdSaNS1_14adl_serializerES_IhSaIhEEvEESaISD_EE4backEv
FN:1233,1237,_ZNSt6vectorINSt7__cxx1112basic_stringIcSt11char_traitsIcESaIcEEESaIS5_EE4backEv
FN:1233,1237,_ZNSt6vectorIPN8nlohmann16json_abi_v3_11_310basic_jsonISt3mapS_NSt7__cxx1112basic_stringIcSt11char_traitsIcESaIcEEEblmdSaNS1_14adl_serializerES_IhSaIhEEvEESaISE_EE4backEv
FN:1233,1237,_ZNSt6vectorIhSaIhEE4backEv
FN:1281,1293,_ZNSt6vectorIN8nlohmann16json_abi_v3_11_310basic_jsonISt3mapS_NSt7__cxx1112basic_stringIcSt11char_traitsIcESaIcEEEblmdSaNS1_14adl_serializerES_IhSaIhEEvEESaISD_EE9push_backERKSD_
FN:1281,1293,_ZNSt6vectorINSt7__cxx1112basic_stringIcSt11char_traitsIcESaIcEEESaIS5_EE9push_backERKS5_
FN:1281,1293,_ZNSt6vectorIPN8nlohmann16json_abi_v3_11_310basic_jsonISt3mapS_NSt7__cxx1112basic_stringIcSt11char_traitsIcESaIcEEEblmdSaNS1_14adl_serializerES_IhSaIhEEvEESaISE_EE9push_backERKSE_
FN:1298,1299,_ZNSt6vectorIN8nlohmann16json_abi_v3_11_310basic_jsonISt3mapS_NSt7__cxx1112basic_stringIcSt11char_traitsIcESaIcEEEblmdSaNS1_14adl_serializerES_IhSaIhEEvEESaISD_EE9push_backEOSD_
FN:1298,1299,_ZNSt6vectorINSt7__cxx1112basic_stringIcSt11char_traitsIcESaIcEEESaIS5_EE9push_backEOS5_
FN:1298,1299,_ZNSt6vectorIPN8nlohmann16json_abi_v3_11_310basic_jsonISt3mapS_NSt7__cxx1112basic_stringIcSt11char_traitsIcESaIcEEEblmdSaNS1_14adl_serializerES_IhSaIhEEvEESaISE_EE9push_backEOSE_
FN:1298,1299,_ZNSt6vectorIcSaIcEE9push_backEOc
FN:1322,1328,_ZNSt6vectorIN8nlohmann16json_abi_v3_11_310basic_jsonISt3mapS_NSt7__cxx1112basic_stringIcSt11char_traitsIcESaIcEEEblmdSaNS1_14adl_serializerES_IhSaIhEEvEESaISD_EE8pop_backEv
FN:1322,1328,_ZNSt6vectorIPN8nlohmann16json_abi_v3_11_310basic_jsonISt3mapS_NSt7__cxx1112basic_stringIcSt11char_traitsIcESaIcEEEblmdSaNS1_14adl_serializerES_IhSaIhEEvEESaISE_EE8pop_backEv
FN:1322,1328,_ZNSt6vectorIcSaIcEE8pop_backEv
FN:137,143,_ZNSt12_Vector_baseIN8nlohmann16json_abi_v3_11_310basic_jsonISt3mapSt6vectorNSt7__cxx1112basic_stringIcSt11char_traitsIcESaIcEEEblmdSaNS1_14adl_serializerES4_IhSaIhEEvEESaISE_EE12_Vector_implC2Ev
FN:137,143,_ZNSt12_Vector_baseINSt7__cxx1112basic_stringIcSt11char_traitsIcESaIcEEESaIS5_EE12_Vector_implC2Ev
FN:137,143,_ZNSt12_Vector_baseIPN8nlohmann16json_abi_v3_11_310basic_jsonISt3mapSt6vectorNSt7__cxx1112basic_stringIcSt11char_traitsIcESaIcEEEblmdSaNS1_14adl_serializerES4_IhSaIhEEvEESaISF_EE12_Vector_implC2Ev
FN:137,143,_ZNSt12_Vector_baseIcSaIcEE12_Vector_implC2Ev
FN:137,143,_ZNSt12_Vector_baseIhSaIhEE12_Vector_implC2Ev
FN:146,148,_ZNSt12_Vector_baseIN8nlohmann16json_abi_v3_11_310basic_jsonISt3mapSt6vectorNSt7__cxx1112basic_stringIcSt11char_traitsIcESaIcEEEblmdSaNS1_14adl_serializerES4_IhSaIhEEvEESaISE_EE12_Vector_implC2ERKSF_
FN:146,148,_ZNSt12_Vector_baseINSt7__cxx1112basic_stringIcSt11char_traitsIcESaIcEEESaIS5_EE12_Vector_implC2ERKS6_
FN:146,148,_ZNSt12_Vector_baseIhSaIhEE12_Vector_implC2ERKS0_
FN:1534,1535,_ZNSt6vectorIN8nlohmann16json_abi_v3_11_310basic_jsonISt3mapS_NSt7__cxx1112basic_stringIcSt11char_traitsIcESaIcEEEblmdSaNS1_14adl_serializerES_IhSaIhEEvEESaISD_EE5eraseEN9__gnu_cxx17__normal_iteratorIPKSD_SF_EE
FN:1605,1606,_ZNSt6vectorIN8nlohmann16json_abi_v3_11_310basic_jsonISt3mapS_NSt7__cxx1112basic_stringIcSt11char_traitsIcESaIcEEEblmdSaNS1_14adl_serializerES_IhSaIhEEvEESaISD_EE5clearEv
FN:1605,1606,_ZNSt6vectorIcSaIcEE5clearEv
FN:1616,1631,_ZNSt6vectorIN8nlohmann16json_abi_v3_11_310basic_jsonISt3mapS_NSt7__cxx1112basic_stringIcSt11char_traitsIcESaIcEEEblmdSaNS1_14adl_serializerES_IhSaIhEEvEESaISD_EE20_M_allocate_and_copyISt13move_iteratorIPSD_EEESI_mT_SK_
FN:1687,1698,_ZNSt6vectorIN8nlohmann16json_abi_v3_11_310basic_jsonISt3mapS_NSt7__cxx1112basic_stringIcSt11char_traitsIcESaIcEEEblmdSaNS1_14adl_serializerES_IhSaIhEEvEESaISD_EE19_M_range_initializeIPKNS1_6detail8json_refISD_EEEEvT_SM_St20forward_iterator_tag
FN:1687,1698,_ZNSt6vectorINSt7__cxx1112basic_stringIcSt11char_traitsIcESaIcEEESaIS5_EE19_M_range_initializeIPKPKcEEvT_SD_St20forward_iterator_tag
FN:1896,1903,_ZNKSt6vectorIN8nlohmann16json_abi_v3_11_310basic_jsonISt3mapS_NSt7__cxx1112basic_stringIcSt11char_traitsIcESaIcEEEblmdSaNS1_14adl_serializerES_IhSaIhEEvEESaISD_EE12_M_check_lenEmPKc
FN:1896,1903,_ZNKSt6vectorINSt7__cxx1112basic_stringIcSt11char_traitsIcESaIcEEESaIS5_EE12_M_check_lenEmPKc
FN:1896,1903,_ZNKSt6vectorIPN8nlohmann16json_abi_v3_11_310basic_jsonISt3mapS_NSt7__cxx1112basic_stringIcSt11char_traitsIcESaIcEEEblmdSaNS1_14adl_serializerES_IhSaIhEEvEESaISE_EE12_M_check_lenEmPKc
FN:1896,1903,_ZNKSt6vectorIcSaIcEE12_M_check_lenEmPKc
FN:1907,1913,_ZNSt6vectorIN8nlohmann16json_abi_v3_11_310basic_jsonISt3mapS_NSt7__cxx1112basic_stringIcSt11char_traitsIcESaIcEEEblmdSaNS1_14adl_serializerES_IhSaIhEEvEESaISD_EE17_S_check_init_lenEmRKSE_
FN:1907,1913,_ZNSt6vectorINSt7__cxx1112basic_stringIcSt11char_traitsIcESaIcEEESaIS5_EE17_S_check_init_lenEmRKS6_
FN:1916,1925,_ZNSt6vectorIN8nlohmann16json_abi_v3_11_310basic_jsonISt3mapS_NSt7__cxx1112basic_stringIcSt11char_traitsIcESaIcEEEblmdSaNS1_14adl_serializerES_IhSaIhEEvEESaISD_EE11_S_max_sizeERKSE_
FN:1916,1925,_ZNSt6vectorINSt7__cxx1112basic_stringIcSt11char_traitsIcESaIcEEESaIS5_EE11_S_max_sizeERKS6_
FN:1916,1925,_ZNSt6vectorIPN8nlohmann16json_abi_v3_11_310basic_jsonISt3mapS_NSt7__cxx1112basic_stringIcSt11char_traitsIcESaIcEEEblmdSaNS1_14adl_serializerES_IhSaIhEEvEESaISE_EE11_S_max_sizeERKSF_
FN:1916,1925,_ZNSt6vectorIcSaIcEE11_S_max_sizeERKS0_
FN:1933,1942,_ZNSt6vectorIN8nlohmann16json_abi_v3_11_310basic_jsonISt3mapS_NSt7__cxx1112basic_stringIcSt11char_traitsIcESaIcEEEblmdSaNS1_14adl_serializerES_IhSaIhEEvEESaISD_EE15_M_erase_at_endEPSD_
FN:1933,1942,_ZNSt6vectorIcSaIcEE15_M_erase_at_endEPc
FN:2040,2042,_ZSteqIN8nlohmann16json_abi_v3_11_310basic_jsonISt3mapSt6vectorNSt7__cxx1112basic_stringIcSt11char_traitsIcESaIcEEEblmdSaNS1_14adl_serializerES4_IhSaIhEEvEESaISE_EEbRKS4_IT_T0_ESK_
FN:2040,2042,_ZSteqIhSaIhEEbRKSt6vectorIT_T0_ES6_
FN:301,302,_ZNSt12_Vector_baseIN8nlohmann16json_abi_v3_11_310basic_jsonISt3mapSt6vectorNSt7__cxx1112basic_stringIcSt11char_traitsIcESaIcEEEblmdSaNS1_14adl_serializerES4_IhSaIhEEvEESaISE_EE19_M_get_Tp_allocatorEv
FN:301,302,_ZNSt12_Vector_baseINSt7__cxx1112basic_stringIcSt11char_traitsIcESaIcEEESaIS5_EE19_M_get_Tp_allocatorEv
FN:301,302,_ZNSt12_Vector_baseIPN8nlohmann16json_abi_v3_11_310basic_jsonISt3mapSt6vectorNSt7__cxx1112basic_stringIcSt11char_traitsIcESaIcEEEblmdSaNS1_14adl_serializerES4_IhSaIhEEvEESaISF_EE19_M_get_Tp_allocatorEv
FN:301,302,_ZNSt12_Vector_baseIcSaIcEE19_M_get_Tp_allocatorEv
FN:301,302,_ZNSt12_Vector_baseIhSaIhEE19_M_get_Tp_allocatorEv
FN:306,307,_ZNKSt12_Vector_baseIN8nlohmann16json_abi_v3_11_310basic_jsonISt3mapSt6vectorNSt7__cxx1112basic_stringIcSt11char_traitsIcESaIcEEEblmdSaNS1_14adl_serializerES4_IhSaIhEEvEESaISE_EE19_M_get_Tp_allocatorEv
FN:306,307,_ZNKSt12_Vector_baseINSt7__cxx1112basic_stringIcSt11char_traitsIcESaIcEEESaIS5_EE19_M_get_Tp_allocatorEv
FN:306,307,_ZNKSt12_Vector_baseIPN8nlohmann16json_abi_v3_11_310basic_jsonISt3mapSt6vectorNSt7__cxx1112basic_stringIcSt11char_traitsIcESaIcEEEblmdSaNS1_14adl_serializerES4_IhSaIhEEvEESaISF_EE19_M_get_Tp_allocatorEv
FN:306,307,_ZNKSt12_Vector_baseIcSaIcEE19_M_get_Tp_allocatorEv
FN:306,307,_ZNKSt12_Vector_baseIhSaIhEE19_M_get_Tp_allocatorEv
FN:315,315,_ZNSt12_Vector_baseIN8nlohmann16json_abi_v3_11_310basic_jsonISt3mapSt6vectorNSt7__cxx1112basic_stringIcSt11char_traitsIcESaIcEEEblmdSaNS1_14adl_serializerES4_IhSaIhEEvEESaISE_EEC2Ev
FN:315,315,_ZNSt12_Vector_baseINSt7__cxx1112basic_stringIcSt11char_traitsIcESaIcEEESaIS5_EEC2Ev
FN:315,315,_ZNSt12_Vector_baseIPN8nlohmann16json_abi_v3_11_310basic_jsonISt3mapSt6vectorNSt7__cxx1112basic_stringIcSt11char_traitsIcESaIcEEEblmdSaNS1_14adl_serializerES4_IhSaIhEEvEESaISF_EEC2Ev
FN:315,315,_ZNSt12_Vector_baseIcSaIcEEC2Ev
FN:315,315,_ZNSt12_Vector_baseIhSaIhEEC2Ev
FN:321,322,_ZNSt12_Vector_baseIN8nlohmann16json_abi_v3_11_310basic_jsonISt3mapSt6vectorNSt7__cxx1112basic_stringIcSt11char_traitsIcESaIcEEEblmdSaNS1_14adl_serializerES4_IhSaIhEEvEESaISE_EEC2ERKSF_
FN:321,322,_ZNSt12_Vector_baseINSt7__cxx1112basic_stringIcSt11char_traitsIcESaIcEEESaIS5_EEC2ERKS6_
FN:333,335,_ZNSt12_Vector_baseIN8nlohmann16json_abi_v3_11_310basic_jsonISt3mapSt6vectorNSt7__cxx1112basic_stringIcSt11char_traitsIcESaIcEEEblmdSaNS1_14adl_serializerES4_IhSaIhEEvEESaISE_EEC2EmRKSF_
FN:333,335,_ZNSt12_Vector_baseIhSaIhEEC2EmRKS0_
FN:367,371,_ZNSt12_Vector_baseIN8nlohmann16json_abi_v3_11_310basic_jsonISt3mapSt6vectorNSt7__cxx1112basic_stringIcSt11char_traitsIcESaIcEEEblmdSaNS1_14adl_serializerES4_IhSaIhEEvEESaISE_EED2Ev
FN:367,371,_ZNSt12_Vector_baseINSt7__cxx1112basic_stringIcSt11char_traitsIcESaIcEEESaIS5_EED2Ev
FN:367,371,_ZNSt12_Vector_baseIPN8nlohmann16json_abi_v3_11_310basic_jsonISt3mapSt6vectorNSt7__cxx1112basic_stringIcSt11char_traitsIcESaIcEEEblmdSaNS1_14adl_serializerES4_IhSaIhEEvEESaISF_EED2Ev
FN:367,371,_ZNSt12_Vector_baseIcSaIcEED2Ev
FN:367,371,_ZNSt12_Vector_baseIhSaIhEED2Ev
FN:378,382,_ZNSt12_Vector_baseIN8nlohmann16json_abi_v3_11_310basic_jsonISt3mapSt6vectorNSt7__cxx1112basic_stringIcSt11char_traitsIcESaIcEEEblmdSaNS1_14adl_serializerES4_IhSaIhEEvEESaISE_EE11_M_allocateEm
FN:378,382,_ZNSt12_Vector_baseINSt7__cxx1112basic_stringIcSt11char_traitsIcESaIcEEESaIS5_EE11_M_allocateEm
FN:378,382,_ZNSt12_Vector_baseIPN8nlohmann16json_abi_v3_11_310basic_jsonISt3mapSt6vectorNSt7__cxx1112basic_stringIcSt11char_traitsIcESaIcEEEblmdSaNS1_14adl_serializerES4_IhSaIhEEvEESaISF_EE11_M_allocateEm
FN:378,382,_ZNSt12_Vector_baseIcSaIcEE11_M_allocateEm
FN:378,382,_ZNSt12_Vector_baseIhSaIhEE11_M_allocateEm
FN:386,391,_ZNSt12_Vector_baseIN8nlohmann16json_abi_v3_11_310basic_jsonISt3mapSt6vectorNSt7__cxx1112basic_stringIcSt11char_traitsIcESaIcEEEblmdSaNS1_14adl_serializerES4_IhSaIhEEvEESaISE_EE13_M_deallocateEPSE_m
FN:386,391,_ZNSt12_Vector_baseINSt7__cxx1112basic_stringIcSt11char_traitsIcESaIcEEESaIS5_EE13_M_deallocateEPS5_m
FN:386,391,_ZNSt12_Vector_baseIPN8nlohmann16json_abi_v3_11_310basic_jsonISt3mapSt6vectorNSt7__cxx1112basic_stringIcSt11char_traitsIcESaIcEEEblmdSaNS1_14adl_serializerES4_IhSaIhEEvEESaISF_EE13_M_deallocateEPSF_m
FN:386,391,_ZNSt12_Vector_baseIcSaIcEE13_M_deallocateEPcm
FN:386,391,_ZNSt12_Vector_baseIhSaIhEE13_M_deallocateEPhm
FN:396,401,_ZNSt12_Vector_baseIN8nlohmann16json_abi_v3_11_310basic_jsonISt3mapSt6vectorNSt7__cxx1112basic_stringIcSt11char_traitsIcESaIcEEEblmdSaNS1_14adl_serializerES4_IhSaIhEEvEESaISE_EE17_M_create_storageEm
FN:396,401,_ZNSt12_Vector_baseIhSaIhEE17_M_create_storageEm
FN:470,476,_ZNSt6vectorIN8nlohmann16json_abi_v3_11_310basic_jsonISt3mapS_NSt7__cxx1112basic_stringIcSt11char_traitsIcESaIcEEEblmdSaNS1_14adl_serializerES_IhSaIhEEvEESaISD_EE19_S_nothrow_relocateESt17integral_constantIbLb1EE
FN:470,476,_ZNSt6vectorINSt7__cxx1112basic_stringIcSt11char_traitsIcESaIcEEESaIS5_EE19_S_nothrow_relocateESt17integral_constantIbLb1EE
FN:470,476,_ZNSt6vectorIPN8nlohmann16json_abi_v3_11_310basic_jsonISt3mapS_NSt7__cxx1112basic_stringIcSt11char_traitsIcESaIcEEEblmdSaNS1_14adl_serializerES_IhSaIhEEvEESaISE_EE19_S_nothrow_relocateESt17integral_constantIbLb1EE
FN:470,476,_ZNSt6vectorIcSaIcEE19_S_nothrow_relocateESt17integral_constantIbLb1EE
FN:483,489,_ZNSt6vectorIN8nlohmann16json_abi_v3_11_310basic_jsonISt3mapS_NSt7__cxx1112basic_stringIcSt11char_traitsIcESaIcEEEblmdSaNS1_14adl_serializerES_IhSaIhEEvEESaISD_EE15_S_use_relocateEv
FN:483,489,_ZNSt6vectorINSt7__cxx1112basic_stringIcSt11char_traitsIcESaIcEEESaIS5_EE15_S_use_relocateEv
FN:483,489,_ZNSt6vectorIPN8nlohmann16json_abi_v3_11_310basic_jsonISt3mapS_NSt7__cxx1112basic_stringIcSt11char_traitsIcESaIcEEEblmdSaNS1_14adl_serializerES_IhSaIhEEvEESaISE_EE15_S_use_relocateEv
FN:483,489,_ZNSt6vectorIcSaIcEE15_S_use_relocateEv
FN:492,496,_ZNSt6vectorIN8nlohmann16json_abi_v3_11_310basic_jsonISt3mapS_NSt7__cxx1112basic_stringIcSt11char_traitsIcESaIcEEEblmdSaNS1_14adl_serializerES_IhSaIhEEvEESaISD_EE14_S_do_relocateEPSD_SG_SG_RSE_St17integral_constantIbLb1EE
FN:492,496,_ZNSt6vectorINSt7__cxx1112basic_stringIcSt11char_traitsIcESaIcEEESaIS5_EE14_S_do_relocateEPS5_S8_S8_RS6_St17integral_constantIbLb1EE
FN:492,496,_ZNSt6vectorIPN8nlohmann16json_abi_v3_11_310basic_jsonISt3mapS_NSt7__cxx1112basic_stringIcSt11char_traitsIcESaIcEEEblmdSaNS1_14adl_serializerES_IhSaIhEEvEESaISE_EE14_S_do_relocateEPSE_SH_SH_RSF_St17integral_constantIbLb1EE
FN:492,496,_ZNSt6vectorIcSaIcEE14_S_do_relocateEPcS2_S2_RS0_St17integral_constantIbLb1EE
FN:504,514,_ZNSt6vectorIN8nlohmann16json_abi_v3_11_310basic_jsonISt3mapS_NSt7__cxx1112basic_stringIcSt11char_traitsIcESaIcEEEblmdSaNS1_14adl_serializerES_IhSaIhEEvEESaISD_EE11_S_relocateEPSD_SG_SG_RSE_
FN:504,514,_ZNSt6vectorINSt7__cxx1112basic_stringIcSt11char_traitsIcESaIcEEESaIS5_EE11_S_relocateEPS5_S8_S8_RS6_
FN:504,514,_ZNSt6vectorIPN8nlohmann16json_abi_v3_11_310basic_jsonISt3mapS_NSt7__cxx1112basic_stringIcSt11char_traitsIcESaIcEEEblmdSaNS1_14adl_serializerES_IhSaIhEEvEESaISE_EE11_S_relocateEPSE_SH_SH_RSF_
FN:504,514,_ZNSt6vectorIcSaIcEE11_S_relocateEPcS2_S2_RS0_
FN:531,531,_ZNSt6vectorIN8nlohmann16json_abi_v3_11_310basic_jsonISt3mapS_NSt7__cxx1112basic_stringIcSt11char_traitsIcESaIcEEEblmdSaNS1_14adl_serializerES_IhSaIhEEvEESaISD_EEC2Ev
FN:531,531,_ZNSt6vectorINSt7__cxx1112basic_stringIcSt11char_traitsIcESaIcEEESaIS5_EEC2Ev
FN:531,531,_ZNSt6vectorIPN8nlohmann16json_abi_v3_11_310basic_jsonISt3mapS_NSt7__cxx1112basic_stringIcSt11char_traitsIcESaIcEEEblmdSaNS1_14adl_serializerES_IhSaIhEEvEESaISE_EEC2Ev
FN:531,531,_ZNSt6vectorIcSaIcEEC2Ev
FN:531,531,_ZNSt6vectorIhSaIhEEC2Ev
FN:601,609,_ZNSt6vectorIN8nlohmann16json_abi_v3_11_310basic_jsonISt3mapS_NSt7__cxx1112basic_stringIcSt11char_traitsIcESaIcEEEblmdSaNS1_14adl_serializerES_IhSaIhEEvEESaISD_EEC2ERKSF_
FN:601,609,_ZNSt6vectorIhSaIhEEC2ERKS1_
FN:707,713,_ZNSt6vectorIN8nlohmann16json_abi_v3_11_310basic_jsonISt3mapS_NSt7__cxx1112basic_stringIcSt11char_traitsIcESaIcEEEblmdSaNS1_14adl_serializerES_IhSaIhEEvEESaISD_EEC2IPKNS1_6detail8json_refISD_EEvEET_SM_RKSE_
FN:707,713,_ZNSt6vectorINSt7__cxx1112basic_stringIcSt11char_traitsIcESaIcEEESaIS5_EEC2IPKPKcvEET_SD_RKS6_
FN:733,738,_ZNSt6vectorIN8nlohmann16json_abi_v3_11_310basic_jsonISt3mapS_NSt7__cxx1112basic_stringIcSt11char_traitsIcESaIcEEEblmdSaNS1_14adl_serializerES_IhSaIhEEvEESaISD_EED2Ev
FN:733,738,_ZNSt6vectorINSt7__cxx1112basic_stringIcSt11char_traitsIcESaIcEEESaIS5_EED2Ev
FN:733,738,_ZNSt6vectorIPN8nlohmann16json_abi_v3_11_310basic_jsonISt3mapS_NSt7__cxx1112basic_stringIcSt11char_traitsIcESaIcEEEblmdSaNS1_14adl_serializerES_IhSaIhEEvEESaISE_EED2Ev
FN:733,738,_ZNSt6vectorIcSaIcEED2Ev
FN:733,738,_ZNSt6vectorIhSaIhEED2Ev
FN:873,874,_ZNSt6vectorIN8nlohmann16json_abi_v3_11_310basic_jsonISt3mapS_NSt7__cxx1112basic_stringIcSt11char_traitsIcESaIcEEEblmdSaNS1_14adl_serializerES_IhSaIhEEvEESaISD_EE5beginEv
FN:873,874,_ZNSt6vectorINSt7__cxx1112basic_stringIcSt11char_traitsIcESaIcEEESaIS5_EE5beginEv
FN:873,874,_ZNSt6vectorIPN8nlohmann16json_abi_v3_11_310basic_jsonISt3mapS_NSt7__cxx1112basic_stringIcSt11char_traitsIcESaIcEEEblmdSaNS1_14adl_serializerES_IhSaIhEEvEESaISE_EE5beginEv
FN:873,874,_ZNSt6vectorIcSaIcEE5beginEv
FN:883,884,_ZNKSt6vectorIN8nlohmann16json_abi_v3_11_310basic_jsonISt3mapS_NSt7__cxx1112basic_stringIcSt11char_traitsIcESaIcEEEblmdSaNS1_14adl_serializerES_IhSaIhEEvEESaISD_EE5beginEv
FN:883,884,_ZNKSt6vectorINSt7__cxx1112basic_stringIcSt11char_traitsIcESaIcEEESaIS5_EE5beginEv
FN:883,884,_ZNKSt6vectorIPN8nlohmann16json_abi_v3_11_310basic_jsonISt3mapS_NSt7__cxx1112basic_stringIcSt11char_traitsIcESaIcEEEblmdSaNS1_14adl_serializerES_IhSaIhEEvEESaISE_EE5beginEv
FN:883,884,_ZNKSt6vectorIcSaIcEE5beginEv
FN:883,884,_ZNKSt6vectorIhSaIhEE5beginEv
FN:893,894,_ZNSt6vectorIN8nlohmann16json_abi_v3_11_310basic_jsonISt3mapS_NSt7__cxx1112basic_stringIcSt11char_traitsIcESaIcEEEblmdSaNS1_14adl_serializerES_IhSaIhEEvEESaISD_EE3endEv
FN:893,894,_ZNSt6vectorINSt7__cxx1112basic_stringIcSt11char_traitsIcESaIcEEESaIS5_EE3endEv
FN:893,894,_ZNSt6vectorIPN8nlohmann16json_abi_v3_11_310basic_jsonISt3mapS_NSt7__cxx1112basic_stringIcSt11char_traitsIcESaIcEEEblmdSaNS1_14adl_serializerES_IhSaIhEEvEESaISE_EE3endEv
FN:893,894,_ZNSt6vectorIcSaIcEE3endEv
FN:893,894,_ZNSt6vectorIhSaIhEE3endEv
FN:903,904,_ZNKSt6vectorIN8nlohmann16json_abi_v3_11_310basic_jsonISt3mapS_NSt7__cxx1112basic_stringIcSt11char_traitsIcESaIcEEEblmdSaNS1_14adl_serializerES_IhSaIhEEvEESaISD_EE3endEv
FN:903,904,_ZNKSt6vectorINSt7__cxx1112basic_stringIcSt11char_traitsIcESaIcEEESaIS5_EE3endEv
FN:903,904,_ZNKSt6vectorIPN8nlohmann16json_abi_v3_11_310basic_jsonISt3mapS_NSt7__cxx1112basic_stringIcSt11char_traitsIcESaIcEEEblmdSaNS1_14adl_serializerES_IhSaIhEEvEESaISE_EE3endEv
FN:903,904,_ZNKSt6vectorIcSaIcEE3endEv
FN:903,904,_ZNKSt6vectorIhSaIhEE3endEv
FN:954,955,_ZNKSt6vectorIN8nlohmann16json_abi_v3_11_310basic_jsonISt3mapS_NSt7__cxx1112basic_stringIcSt11char_traitsIcESaIcEEEblmdSaNS1_14adl_serializerES_IhSaIhEEvEESaISD_EE6cbeginEv
FN:954,955,_ZNKSt6vectorIhSaIhEE6cbeginEv
FN:964,965,_ZNKSt6vectorIN8nlohmann16json_abi_v3_11_310basic_jsonISt3mapS_NSt7__cxx1112basic_stringIcSt11char_traitsIcESaIcEEEblmdSaNS1_14adl_serializerES_IhSaIhEEvEESaISD_EE4cendEv
FN:964,965,_ZNKSt6vectorIhSaIhEE4cendEv
FN:99,101,_ZNSt12_Vector_baseIN8nlohmann16json_abi_v3_11_310basic_jsonISt3mapSt6vectorNSt7__cxx1112basic_stringIcSt11char_traitsIcESaIcEEEblmdSaNS1_14adl_serializerES4_IhSaIhEEvEESaISE_EE17_Vector_impl_dataC2Ev
FN:99,101,_ZNSt12_Vector_baseINSt7__cxx1112basic_stringIcSt11char_traitsIcESaIcEEESaIS5_EE17_Vector_impl_dataC2Ev
FN:99,101,_ZNSt12_Vector_baseIPN8nlohmann16json_abi_v3_11_310basic_jsonISt3mapSt6vectorNSt7__cxx1112basic_stringIcSt11char_traitsIcESaIcEEEblmdSaNS1_14adl_serializerES4_IhSaIhEEvEESaISF_EE17_Vector_impl_dataC2Ev
FN:99,101,_ZNSt12_Vector_baseIcSaIcEE17_Vector_impl_dataC2Ev
FN:99,101,_ZNSt12_Vector_baseIhSaIhEE17_Vector_impl_dataC2Ev
FN:992,993,_ZNKSt6vectorIN8nlohmann16json_abi_v3_11_310basic_jsonISt3mapS_NSt7__cxx1112basic_stringIcSt11char_traitsIcESaIcEEEblmdSaNS1_14adl_serializerES_IhSaIhEEvEESaISD_EE4sizeEv
FN:992,993,_ZNKSt6vectorINSt7__cxx1112basic_stringIcSt11char_traitsIcESaIcEEESaIS5_EE4sizeEv
FN:992,993,_ZNKSt6vectorIPN8nlohmann16json_abi_v3_11_310basic_jsonISt3mapS_NSt7__cxx1112basic_stringIcSt11char_traitsIcESaIcEEEblmdSaNS1_14adl_serializerES_IhSaIhEEvEESaISE_EE4sizeEv
FN:992,993,_ZNKSt6vectorIcSaIcEE4sizeEv
FN:992,993,_ZNKSt6vectorIhSaIhEE4sizeEv
FN:998,999,_ZNKSt6vectorIN8nlohmann16json_abi_v3_11_310basic_jsonISt3mapS_NSt7__cxx1112basic_stringIcSt11char_traitsIcESaIcEEEblmdSaNS1_14adl_serializerES_IhSaIhEEvEESaISD_EE8max_sizeEv
FN:998,999,_ZNKSt6vectorINSt7__cxx1112basic_stringIcSt11char_traitsIcESaIcEEESaIS5_EE8max_sizeEv
FN:998,999,_ZNKSt6vectorIPN8nlohmann16json_abi_v3_11_310basic_jsonISt3mapS_NSt7__cxx1112basic_stringIcSt11char_traitsIcESaIcEEEblmdSaNS1_14adl_serializerES_IhSaIhEEvEESaISE_EE8max_sizeEv
FN:998,999,_ZNKSt6vectorIcSaIcEE8max_sizeEv
FNDA:0,_ZNSt6vectorIN8nlohmann16json_abi_v3_11_310basic_jsonISt3mapS_NSt7__cxx1112basic_stringIcSt11char_traitsIcESaIcEEEblmdSaNS1_14adl_serializerES_IhSaIhEEvEESaISD_EE6resizeEm
FNDA:80,_ZNKSt6vectorIN8nlohmann16json_abi_v3_11_310basic_jsonISt3mapS_NSt7__cxx1112basic_stringIcSt11char_traitsIcESaIcEEEblmdSaNS1_14adl_serializerES_IhSaIhEEvEESaISD_EE8capacityEv
FNDA:360,_ZNKSt6vectorIN8nlohmann16json_abi_v3_11_310basic_jsonISt3mapS_NSt7__cxx1112basic_stringIcSt11char_traitsIcESaIcEEEblmdSaNS1_14adl_serializerES_IhSaIhEEvEESaISD_EE5emptyEv
FNDA:12,_ZNKSt6vectorINSt7__cxx1112basic_stringIcSt11char_traitsIcESaIcEEESaIS5_EE5emptyEv
FNDA:596,_ZNKSt6vectorIPN8nlohmann16json_abi_v3_11_310basic_jsonISt3mapS_NSt7__cxx1112basic_stringIcSt11char_traitsIcESaIcEEEblmdSaNS1_14adl_serializerES_IhSaIhEEvEESaISE_EE5emptyEv
FNDA:150,_ZNKSt6vectorIcSaIcEE5emptyEv
FNDA:0,_ZNKSt6vectorIhSaIhEE5emptyEv
FNDA:14,_ZNSt6vectorIN8nlohmann16json_abi_v3_11_310basic_jsonISt3mapS_NSt7__cxx1112basic_stringIcSt11char_traitsIcESaIcEEEblmdSaNS1_14adl_serializerES_IhSaIhEEvEESaISD_EEixEm
FNDA:1602,_ZNSt6vectorINSt7__cxx1112basic_stringIcSt11char_traitsIcESaIcEEESaIS5_EEixEm
FNDA:10,_ZNKSt6vectorINSt7__cxx1112basic_stringIcSt11char_traitsIcESaIcEEESaIS5_EEixEm
FNDA:17,_ZNSt6vectorINSt7__cxx1112basic_stringIcSt11char_traitsIcESaIcEEESaIS5_EE5frontEv
FNDA:300,_ZNSt6vectorIN8nlohmann16json_abi_v3_11_310basic_jsonISt3mapS_NSt7__cxx1112basic_stringIcSt11char_traitsIcESaIcEEEblmdSaNS1_14adl_serializerES_IhSaIhEEvEESaISD_EE4backEv
FNDA:2,_ZNSt6vectorINSt7__cxx1112basic_stringIcSt11char_traitsIcESaIcEEESaIS5_EE4backEv
FNDA:1692,_ZNSt6vectorIPN8nlohmann16json_abi_v3_11_310basic_jsonISt3mapS_NSt7__cxx1112basic_stringIcSt11char_traitsIcESaIcEEEblmdSaNS1_14adl_serializerES_IhSaIhEEvEESaISE_EE4backEv
FNDA:0,_ZNSt6vectorIhSaIhEE4backEv
FNDA:0,_ZNSt6vectorIN8nlohmann16json_abi_v3_11_310basic_jsonISt3mapS_NSt7__cxx1112basic_stringIcSt11char_traitsIcESaIcEEEblmdSaNS1_14adl_serializerES_IhSaIhEEvEESaISD_EE9push_backERKSD_
FNDA:1676,_ZNSt6vectorINSt7__cxx1112basic_stringIcSt11char_traitsIcESaIcEEESaIS5_EE9push_backERKS5_
FNDA:0,_ZNSt6vectorIPN8nlohmann16json_abi_v3_11_310basic_jsonISt3mapS_NSt7__cxx1112basic_stringIcSt11char_traitsIcESaIcEEEblmdSaNS1_14adl_serializerES_IhSaIhEEvEESaISE_EE9push_backERKSE_
FNDA:272,_ZNSt6vectorIN8nlohmann16json_abi_v3_11_310basic_jsonISt3mapS_NSt7__cxx1112basic_stringIcSt11char_traitsIcESaIcEEEblmdSaNS1_14adl_serializerES_IhSaIhEEvEESaISD_EE9push_backEOSD_
FNDA:97,_ZNSt6vectorINSt7__cxx1112basic_stringIcSt11char_traitsIcESaIcEEESaIS5_EE9push_backEOS5_
FNDA:80,_ZNSt6vectorIPN8nlohmann16json_abi_v3_11_310basic_jsonISt3mapS_NSt7__cxx1112basic_stringIcSt11char_traitsIcESaIcEEEblmdSaNS1_14adl_serializerES_IhSaIhEEvEESaISE_EE9push_backEOSE_
FNDA:8696,_ZNSt6vectorIcSaIcEE9push_backEOc
FNDA:272,_ZNSt6vectorIN8nlohmann16json_abi_v3_11_310basic_jsonISt3mapS_NSt7__cxx1112basic_stringIcSt11char_traitsIcESaIcEEEblmdSaNS1_14adl_serializerES_IhSaIhEEvEESaISD_EE8pop_backEv
FNDA:78,_ZNSt6vectorIPN8nlohmann16json_abi_v3_11_310basic_jsonISt3mapS_NSt7__cxx1112basic_stringIcSt11char_traitsIcESaIcEEEblmdSaNS1_14adl_serializerES_IhSaIhEEvEESaISE_EE8pop_backEv
FNDA:150,_ZNSt6vectorIcSaIcEE8pop_backEv
FNDA:92,_ZNSt12_Vector_baseIN8nlohmann16json_abi_v3_11_310basic_jsonISt3mapSt6vectorNSt7__cxx1112basic_stringIcSt11char_traitsIcESaIcEEEblmdSaNS1_14adl_serializerES4_IhSaIhEEvEESaISE_EE12_Vector_implC2Ev
FNDA:121,_ZNSt12_Vector_baseINSt7__cxx1112basic_stringIcSt11char_traitsIcESaIcEEESaIS5_EE12_Vector_implC2Ev
FNDA:14,_ZNSt12_Vector_baseIPN8nlohmann16json_abi_v3_11_310basic_jsonISt3mapSt6vectorNSt7__cxx1112basic_stringIcSt11char_traitsIcESaIcEEEblmdSaNS1_14adl_serializerES4_IhSaIhEEvEESaISF_EE12_Vector_implC2Ev
FNDA:14,_ZNSt12_Vector_baseIcSaIcEE12_Vector_implC2Ev
FNDA:0,_ZNSt12_Vector_baseIhSaIhEE12_Vector_implC2Ev
FNDA:0,_ZNSt12_Vector_baseIN8nlohmann16json_abi_v3_11_310basic_jsonISt3mapSt6vectorNSt7__cxx1112basic_stringIcSt11char_traitsIcESaIcEEEblmdSaNS1_14adl_serializerES4_IhSaIhEEvEESaISE_EE12_Vector_implC2ERKSF_
FNDA:25,_ZNSt12_Vector_baseINSt7__cxx1112basic_stringIcSt11char_traitsIcESaIcEEESaIS5_EE12_Vector_implC2ERKS6_
FNDA:0,_ZNSt12_Vector_baseIhSaIhEE12_Vector_implC2ERKS0_
FNDA:0,_ZNSt6vectorIN8nlohmann16json_abi_v3_11_310basic_jsonISt3mapS_NSt7__cxx1112basic_stringIcSt11char_traitsIcESaIcEEEblmdSaNS1_14adl_serializerES_IhSaIhEEvEESaISD_EE5eraseEN9__gnu_cxx17__normal_iteratorIPKSD_SF_EE
FNDA:0,_ZNSt6vectorIN8nlohmann16json_abi_v3_11_310basic_jsonISt3mapS_NSt7__cxx1112basic_stringIcSt11char_traitsIcESaIcEEEblmdSaNS1_14adl_serializerES_IhSaIhEEvEESaISD_EE5clearEv
FNDA:418,_ZNSt6vectorIcSaIcEE5clearEv
FNDA:0,_ZNSt6vectorIN8nlohmann16json_abi_v3_11_310basic_jsonISt3mapS_NSt7__cxx1112basic_stringIcSt11char_traitsIcESaIcEEEblmdSaNS1_14adl_serializerES_IhSaIhEEvEESaISD_EE20_M_allocate_and_copyISt13move_iteratorIPSD_EEESI_mT_SK_
FNDA:0,_ZNSt6vectorIN8nlohmann16json_abi_v3_11_310basic_jsonISt3mapS_NSt7__cxx1112basic_stringIcSt11char_traitsIcESaIcEEEblmdSaNS1_14adl_serializerES_IhSaIhEEvEESaISD_EE19_M_range_initializeIPKNS1_6detail8json_refISD_EEEEvT_SM_St20forward_iterator_tag
FNDA:10,_ZNSt6vectorINSt7__cxx1112basic_stringIcSt11char_traitsIcESaIcEEESaIS5_EE19_M_range_initializeIPKPKcEEvT_SD_St20forward_iterator_tag
FNDA:46,_ZNKSt6vectorIN8nlohmann16json_abi_v3_11_310basic_jsonISt3mapS_NSt7__cxx1112basic_stringIcSt11char_traitsIcESaIcEEEblmdSaNS1_14adl_serializerES_IhSaIhEEvEESaISD_EE12_M_check_lenEmPKc
FNDA:311,_ZNKSt6vectorINSt7__cxx1112basic_stringIcSt11char_traitsIcESaIcEEESaIS5_EE12_M_check_lenEmPKc
FNDA:38,_ZNKSt6vectorIPN8nlohmann16json_abi_v3_11_310basic_jsonISt3mapS_NSt7__cxx1112basic_stringIcSt11char_traitsIcESaIcEEEblmdSaNS1_14adl_serializerES_IhSaIhEEvEESaISE_EE12_M_check_lenEmPKc
FNDA:94,_ZNKSt6vectorIcSaIcEE12_M_check_lenEmPKc
FNDA:0,_ZNSt6vectorIN8nlohmann16json_abi_v3_11_310basic_jsonISt3mapS_NSt7__cxx1112basic_stringIcSt11char_traitsIcESaIcEEEblmdSaNS1_14adl_serializerES_IhSaIhEEvEESaISD_EE17_S_check_init_lenEmRKSE_
FNDA:10,_ZNSt6vectorINSt7__cxx1112basic_stringIcSt11char_traitsIcESaIcEEESaIS5_EE17_S_check_init_lenEmRKS6_
FNDA:172,_ZNSt6vectorIN8nlohmann16json_abi_v3_11_310basic_jsonISt3mapS_NSt7__cxx1112basic_stringIcSt11char_traitsIcESaIcEEEblmdSaNS1_14adl_serializerES_IhSaIhEEvEESaISD_EE11_S_max_sizeERKSE_
FNDA:648,_ZNSt6vectorINSt7__cxx1112basic_stringIcSt11char_traitsIcESaIcEEESaIS5_EE11_S_max_sizeERKS6_
FNDA:76,_ZNSt6vectorIPN8nlohmann16json_abi_v3_11_310basic_jsonISt3mapS_NSt7__cxx1112basic_stringIcSt11char_traitsIcESaIcEEEblmdSaNS1_14adl_serializerES_IhSaIhEEvEESaISE_EE11_S_max_sizeERKSF_
FNDA:188,_ZNSt6vectorIcSaIcEE11_S_max_sizeERKS0_
FNDA:0,_ZNSt6vectorIN8nlohmann16json_abi_v3_11_310basic_jsonISt3mapS_NSt7__cxx1112basic_stringIcSt11char_traitsIcESaIcEEEblmdSaNS1_14adl_serializerES_IhSaIhEEvEESaISD_EE15_M_erase_at_endEPSD_
FNDA:418,_ZNSt6vectorIcSaIcEE15_M_erase_at_endEPc
FNDA:0,_ZSteqIN8nlohmann16json_abi_v3_11_310basic_jsonISt3mapSt6vectorNSt7__cxx1112basic_stringIcSt11char_traitsIcESaIcEEEblmdSaNS1_14adl_serializerES4_IhSaIhEEvEESaISE_EEbRKS4_IT_T0_ESK_
FNDA:0,_ZSteqIhSaIhEEbRKSt6vectorIT_T0_ES6_
FNDA:198,_ZNSt12_Vector_baseIN8nlohmann16json_abi_v3_11_310basic_jsonISt3mapSt6vectorNSt7__cxx1112basic_stringIcSt11char_traitsIcESaIcEEEblmdSaNS1_14adl_serializerES4_IhSaIhEEvEESaISE_EE19_M_get_Tp_allocatorEv
FNDA:866,_ZNSt12_Vector_baseINSt7__cxx1112basic_stringIcSt11char_traitsIcESaIcEEESaIS5_EE19_M_get_Tp_allocatorEv
FNDA:90,_ZNSt12_Vector_baseIPN8nlohmann16json_abi_v3_11_310basic_jsonISt3mapSt6vectorNSt7__cxx1112basic_stringIcSt11char_traitsIcESaIcEEEblmdSaNS1_14adl_serializerES4_IhSaIhEEvEESaISF_EE19_M_get_Tp_allocatorEv
FNDA:620,_ZNSt12_Vector_baseIcSaIcEE19_M_get_Tp_allocatorEv
FNDA:0,_ZNSt12_Vector_baseIhSaIhEE19_M_get_Tp_allocatorEv
FNDA:172,_ZNKSt12_Vector_baseIN8nlohmann16json_abi_v3_11_310basic_jsonISt3mapSt6vectorNSt7__cxx1112basic_stringIcSt11char_traitsIcESaIcEEEblmdSaNS1_14adl_serializerES4_IhSaIhEEvEESaISE_EE19_M_get_Tp_allocatorEv
FNDA:653,_ZNKSt12_Vector_baseINSt7__cxx1112basic_stringIcSt11char_traitsIcESaIcEEESaIS5_EE19_M_get_Tp_allocatorEv
FNDA:76,_ZNKSt12_Vector_baseIPN8nlohmann16json_abi_v3_11_310basic_jsonISt3mapSt6vectorNSt7__cxx1112basic_stringIcSt11char_traitsIcESaIcEEEblmdSaNS1_14adl_serializerES4_IhSaIhEEvEESaISF_EE19_M_get_Tp_allocatorEv
FNDA:188,_ZNKSt12_Vector_baseIcSaIcEE19_M_get_Tp_allocatorEv
FNDA:0,_ZNKSt12_Vector_baseIhSaIhEE19_M_get_Tp_allocatorEv
FNDA:92,_ZNSt12_Vector_baseIN8nlohmann16json_abi_v3_11_310basic_jsonISt3mapSt6vectorNSt7__cxx1112basic_stringIcSt11char_traitsIcESaIcEEEblmdSaNS1_14adl_serializerES4_IhSaIhEEvEESaISE_EEC2Ev
FNDA:121,_ZNSt12_Vector_baseINSt7__cxx1112basic_stringIcSt11char_traitsIcESaIcEEESaIS5_EEC2Ev
FNDA:14,_ZNSt12_Vector_baseIPN8nlohmann16json_abi_v3_11_310basic_jsonISt3mapSt6vectorNSt7__cxx1112basic_stringIcSt11char_traitsIcESaIcEEEblmdSaNS1_14adl_serializerES4_IhSaIhEEvEESaISF_EEC2Ev
FNDA:14,_ZNSt12_Vector_baseIcSaIcEEC2Ev
FNDA:0,_ZNSt12_Vector_baseIhSaIhEEC2Ev
FNDA:0,_ZNSt12_Vector_baseIN8nlohmann16json_abi_v3_11_310basic_jsonISt3mapSt6vectorNSt7__cxx1112basic_stringIcSt11char_traitsIcESaIcEEEblmdSaNS1_14adl_serializerES4_IhSaIhEEvEESaISE_EEC2ERKSF_
FNDA:15,_ZNSt12_Vector_baseINSt7__cxx1112basic_stringIcSt11char_traitsIcESaIcEEESaIS5_EEC2ERKS6_
FNDA:0,_ZNSt12_Vector_baseIN8nlohmann16json_abi_v3_11_310basic_jsonISt3mapSt6vectorNSt7__cxx1112basic_stringIcSt11char_traitsIcESaIcEEEblmdSaNS1_14adl_serializerES4_IhSaIhEEvEESaISE_EEC2EmRKSF_
FNDA:0,_ZNSt12_Vector_baseIhSaIhEEC2EmRKS0_
FNDA:92,_ZNSt12_Vector_baseIN8nlohmann16json_abi_v3_11_310basic_jsonISt3mapSt6vectorNSt7__cxx1112basic_stringIcSt11char_traitsIcESaIcEEEblmdSaNS1_14adl_serializerES4_IhSaIhEEvEESaISE_EED2Ev
FNDA:146,_ZNSt12_Vector_baseINSt7__cxx1112basic_stringIcSt11char_traitsIcESaIcEEESaIS5_EED2Ev
FNDA:14,_ZNSt12_Vector_baseIPN8nlohmann16json_abi_v3_11_310basic_jsonISt3mapSt6vectorNSt7__cxx1112basic_stringIcSt11char_traitsIcESaIcEEEblmdSaNS1_14adl_serializerES4_IhSaIhEEvEESaISF_EED2Ev
FNDA:14,_ZNSt12_Vector_baseIcSaIcEED2Ev
FNDA:0,_ZNSt12_Vector_baseIhSaIhEED2Ev
FNDA:60,_ZNSt12_Vector_baseIN8nlohmann16json_abi_v3_11_310basic_jsonISt3mapSt6vectorNSt7__cxx1112basic_stringIcSt11char_traitsIcESaIcEEEblmdSaNS1_14adl_serializerES4_IhSaIhEEvEESaISE_EE11_M_allocateEm
FNDA:347,_ZNSt12_Vector_baseINSt7__cxx1112basic_stringIcSt11char_traitsIcESaIcEEESaIS5_EE11_M_allocateEm
FNDA:38,_ZNSt12_Vector_baseIPN8nlohmann16json_abi_v3_11_310basic_jsonISt3mapSt6vectorNSt7__cxx1112basic_stringIcSt11char_traitsIcESaIcEEEblmdSaNS1_14adl_serializerES4_IhSaIhEEvEESaISF_EE11_M_allocateEm
FNDA:94,_ZNSt12_Vector_baseIcSaIcEE11_M_allocateEm
FNDA:0,_ZNSt12_Vector_baseIhSaIhEE11_M_allocateEm
FNDA:152,_ZNSt12_Vector_baseIN8nlohmann16json_abi_v3_11_310basic_jsonISt3mapSt6vectorNSt7__cxx1112basic_stringIcSt11char_traitsIcESaIcEEEblmdSaNS1_14adl_serializerES4_IhSaIhEEvEESaISE_EE13_M_deallocateEPSE_m
FNDA:473,_ZNSt12_Vector_baseINSt7__cxx1112basic_stringIcSt11char_traitsIcESaIcEEESaIS5_EE13_M_deallocateEPS5_m
FNDA:52,_ZNSt12_Vector_baseIPN8nlohmann16json_abi_v3_11_310basic_jsonISt3mapSt6vectorNSt7__cxx1112basic_stringIcSt11char_traitsIcESaIcEEEblmdSaNS1_14adl_serializerES4_IhSaIhEEvEESaISF_EE13_M_deallocateEPSF_m
FNDA:108,_ZNSt12_Vector_baseIcSaIcEE13_M_deallocateEPcm
FNDA:0,_ZNSt12_Vector_baseIhSaIhEE13_M_deallocateEPhm
FNDA:0,_ZNSt12_Vector_baseIN8nlohmann16json_abi_v3_11_310basic_jsonISt3mapSt6vectorNSt7__cxx1112basic_stringIcSt11char_traitsIcESaIcEEEblmdSaNS1_14adl_serializerES4_IhSaIhEEvEESaISE_EE17_M_create_storageEm
FNDA:0,_ZNSt12_Vector_baseIhSaIhEE17_M_create_storageEm
FNDA:106,_ZNSt6vectorIN8nlohmann16json_abi_v3_11_310basic_jsonISt3mapS_NSt7__cxx1112basic_stringIcSt11char_traitsIcESaIcEEEblmdSaNS1_14adl_serializerES_IhSaIhEEvEESaISD_EE19_S_nothrow_relocateESt17integral_constantIbLb1EE
FNDA:638,_ZNSt6vectorINSt7__cxx1112basic_stringIcSt11char_traitsIcESaIcEEESaIS5_EE19_S_nothrow_relocateESt17integral_constantIbLb1EE
FNDA:76,_ZNSt6vectorIPN8nlohmann16json_abi_v3_11_310basic_jsonISt3mapS_NSt7__cxx1112basic_stringIcSt11char_traitsIcESaIcEEEblmdSaNS1_14adl_serializerES_IhSaIhEEvEESaISE_EE19_S_nothrow_relocateESt17integral_constantIbLb1EE
FNDA:188,_ZNSt6vectorIcSaIcEE19_S_nothrow_relocateESt17integral_constantIbLb1EE
FNDA:106,_ZNSt6vectorIN8nlohmann16json_abi_v3_11_310basic_jsonISt3mapS_NSt7__cxx1112basic_stringIcSt11char_traitsIcESaIcEEEblmdSaNS1_14adl_serializerES_IhSaIhEEvEESaISD_EE15_S_use_relocateEv
FNDA:638,_ZNSt6vectorINSt7__cxx1112basic_stringIcSt11char_traitsIcESaIcEEESaIS5_EE15_S_use_relocateEv
FNDA:76,_ZNSt6vectorIPN8nlohmann16json_abi_v3_11_310basic_jsonISt3mapS_NSt7__cxx1112basic_stringIcSt11char_traitsIcESaIcEEEblmdSaNS1_14adl_serializerES_IhSaIhEEvEESaISE_EE15_S_use_relocateEv
FNDA:188,_ZNSt6vectorIcSaIcEE15_S_use_relocateEv
FNDA:106,_ZNSt6vectorIN8nlohmann16json_abi_v3_11_310basic_jsonISt3mapS_NSt7__cxx1112basic_stringIcSt11char_traitsIcESaIcEEEblmdSaNS1_14adl_serializerES_IhSaIhEEvEESaISD_EE14_S_do_relocateEPSD_SG_SG_RSE_St17integral_constantIbLb1EE
FNDA:638,_ZNSt6vectorINSt7__cxx1112basic_stringIcSt11char_traitsIcESaIcEEESaIS5_EE14_S_do_relocateEPS5_S8_S8_RS6_St17integral_constantIbLb1EE
FNDA:76,_ZNSt6vectorIPN8nlohmann16json_abi_v3_11_310basic_jsonISt3mapS_NSt7__cxx1112basic_stringIcSt11char_traitsIcESaIcEEEblmdSaNS1_14adl_serializerES_IhSaIhEEvEESaISE_EE14_S_do_relocateEPSE_SH_SH_RSF_St17integral_constantIbLb1EE
FNDA:188,_ZNSt6vectorIcSaIcEE14_S_do_relocateEPcS2_S2_RS0_St17integral_constantIbLb1EE
FNDA:106,_ZNSt6vectorIN8nlohmann16json_abi_v3_11_310basic_jsonISt3mapS_NSt7__cxx1112basic_stringIcSt11char_traitsIcESaIcEEEblmdSaNS1_14adl_serializerES_IhSaIhEEvEESaISD_EE11_S_relocateEPSD_SG_SG_RSE_
FNDA:638,_ZNSt6vectorINSt7__cxx1112basic_stringIcSt11char_traitsIcESaIcEEESaIS5_EE11_S_relocateEPS5_S8_S8_RS6_
FNDA:76,_ZNSt6vectorIPN8nlohmann16json_abi_v3_11_310basic_jsonISt3mapS_NSt7__cxx1112basic_stringIcSt11char_traitsIcESaIcEEEblmdSaNS1_14adl_serializerES_IhSaIhEEvEESaISE_EE11_S_relocateEPSE_SH_SH_RSF_
FNDA:188,_ZNSt6vectorIcSaIcEE11_S_relocateEPcS2_S2_RS0_
FNDA:92,_ZNSt6vectorIN8nlohmann16json_abi_v3_11_310basic_jsonISt3mapS_NSt7__cxx1112basic_stringIcSt11char_traitsIcESaIcEEEblmdSaNS1_14adl_serializerES_IhSaIhEEvEESaISD_EEC2Ev
FNDA:121,_ZNSt6vectorINSt7__cxx1112basic_stringIcSt11char_traitsIcESaIcEEESaIS5_EEC2Ev
FNDA:14,_ZNSt6vectorIPN8nlohmann16json_abi_v3_11_310basic_jsonISt3mapS_NSt7__cxx1112basic_stringIcSt11char_traitsIcESaIcEEEblmdSaNS1_14adl_serializerES_IhSaIhEEvEESaISE_EEC2Ev
FNDA:14,_ZNSt6vectorIcSaIcEEC2Ev
FNDA:0,_ZNSt6vectorIhSaIhEEC2Ev
FNDA:0,_ZNSt6vectorIN8nlohmann16json_abi_v3_11_310basic_jsonISt3mapS_NSt7__cxx1112basic_stringIcSt11char_traitsIcESaIcEEEblmdSaNS1_14adl_serializerES_IhSaIhEEvEESaISD_EEC2ERKSF_
FNDA:0,_ZNSt6vectorIhSaIhEEC2ERKS1_
FNDA:0,_ZNSt6vectorIN8nlohmann16json_abi_v3_11_310basic_jsonISt3mapS_NSt7__cxx1112basic_stringIcSt11char_traitsIcESaIcEEEblmdSaNS1_14adl_serializerES_IhSaIhEEvEESaISD_EEC2IPKNS1_6detail8json_refISD_EEvEET_SM_RKSE_
FNDA:10,_ZNSt6vectorINSt7__cxx1112basic_stringIcSt11char_traitsIcESaIcEEESaIS5_EEC2IPKPKcvEET_SD_RKS6_
FNDA:92,_ZNSt6vectorIN8nlohmann16json_abi_v3_11_310basic_jsonISt3mapS_NSt7__cxx1112basic_stringIcSt11char_traitsIcESaIcEEEblmdSaNS1_14adl_serializerES_IhSaIhEEvEESaISD_EED2Ev
FNDA:146,_ZNSt6vectorINSt7__cxx1112basic_stringIcSt11char_traitsIcESaIcEEESaIS5_EED2Ev
FNDA:14,_ZNSt6vectorIPN8nlohmann16json_abi_v3_11_310basic_jsonISt3mapS_NSt7__cxx1112basic_stringIcSt11char_traitsIcESaIcEEEblmdSaNS1_14adl_serializerES_IhSaIhEEvEESaISE_EED2Ev
FNDA:14,_ZNSt6vectorIcSaIcEED2Ev
FNDA:0,_ZNSt6vectorIhSaIhEED2Ev
FNDA:66,_ZNSt6vectorIN8nlohmann16json_abi_v3_11_310basic_jsonISt3mapS_NSt7__cxx1112basic_stringIcSt11char_traitsIcESaIcEEEblmdSaNS1_14adl_serializerES_IhSaIhEEvEESaISD_EE5beginEv
FNDA:406,_ZNSt6vectorINSt7__cxx1112basic_stringIcSt11char_traitsIcESaIcEEESaIS5_EE5beginEv
FNDA:38,_ZNSt6vectorIPN8nlohmann16json_abi_v3_11_310basic_jsonISt3mapS_NSt7__cxx1112basic_stringIcSt11char_traitsIcESaIcEEEblmdSaNS1_14adl_serializerES_IhSaIhEEvEESaISE_EE5beginEv
FNDA:94,_ZNSt6vectorIcSaIcEE5beginEv
FNDA:360,_ZNKSt6vectorIN8nlohmann16json_abi_v3_11_310basic_jsonISt3mapS_NSt7__cxx1112basic_stringIcSt11char_traitsIcESaIcEEEblmdSaNS1_14adl_serializerES_IhSaIhEEvEESaISD_EE5beginEv
FNDA:160,_ZNKSt6vectorINSt7__cxx1112basic_stringIcSt11char_traitsIcESaIcEEESaIS5_EE5beginEv
FNDA:596,_ZNKSt6vectorIPN8nlohmann16json_abi_v3_11_310basic_jsonISt3mapS_NSt7__cxx1112basic_stringIcSt11char_traitsIcESaIcEEEblmdSaNS1_14adl_serializerES_IhSaIhEEvEESaISE_EE5beginEv
FNDA:154,_ZNKSt6vectorIcSaIcEE5beginEv
FNDA:0,_ZNKSt6vectorIhSaIhEE5beginEv
FNDA:382,_ZNSt6vectorIN8nlohmann16json_abi_v3_11_310basic_jsonISt3mapS_NSt7__cxx1112basic_stringIcSt11char_traitsIcESaIcEEEblmdSaNS1_14adl_serializerES_IhSaIhEEvEESaISD_EE3endEv
FNDA:359,_ZNSt6vectorINSt7__cxx1112basic_stringIcSt11char_traitsIcESaIcEEESaIS5_EE3endEv
FNDA:1730,_ZNSt6vectorIPN8nlohmann16json_abi_v3_11_310basic_jsonISt3mapS_NSt7__cxx1112basic_stringIcSt11char_traitsIcESaIcEEEblmdSaNS1_14adl_serializerES_IhSaIhEEvEESaISE_EE3endEv
FNDA:94,_ZNSt6vectorIcSaIcEE3endEv
FNDA:0,_ZNSt6vectorIhSaIhEE3endEv
FNDA:360,_ZNKSt6vectorIN8nlohmann16json_abi_v3_11_310basic_jsonISt3mapS_NSt7__cxx1112basic_stringIcSt11char_traitsIcESaIcEEEblmdSaNS1_14adl_serializerES_IhSaIhEEvEESaISD_EE3endEv
FNDA:160,_ZNKSt6vectorINSt7__cxx1112basic_stringIcSt11char_traitsIcESaIcEEESaIS5_EE3endEv
FNDA:596,_ZNKSt6vectorIPN8nlohmann16json_abi_v3_11_310basic_jsonISt3mapS_NSt7__cxx1112basic_stringIcSt11char_traitsIcESaIcEEEblmdSaNS1_14adl_serializerES_IhSaIhEEvEESaISE_EE3endEv
FNDA:154,_ZNKSt6vectorIcSaIcEE3endEv
FNDA:0,_ZNKSt6vectorIhSaIhEE3endEv
FNDA:4,_ZNKSt6vectorIN8nlohmann16json_abi_v3_11_310basic_jsonISt3mapS_NSt7__cxx1112basic_stringIcSt11char_traitsIcESaIcEEEblmdSaNS1_14adl_serializerES_IhSaIhEEvEESaISD_EE6cbeginEv
FNDA:0,_ZNKSt6vectorIhSaIhEE6cbeginEv
FNDA:8,_ZNKSt6vectorIN8nlohmann16json_abi_v3_11_310basic_jsonISt3mapS_NSt7__cxx1112basic_stringIcSt11char_traitsIcESaIcEEEblmdSaNS1_14adl_serializerES_IhSaIhEEvEESaISD_EE4cendEv
FNDA:0,_ZNKSt6vectorIhSaIhEE4cendEv
FNDA:92,_ZNSt12_Vector_baseIN8nlohmann16json_abi_v3_11_310basic_jsonISt3mapSt6vectorNSt7__cxx1112basic_stringIcSt11char_traitsIcESaIcEEEblmdSaNS1_14adl_serializerES4_IhSaIhEEvEESaISE_EE17_Vector_impl_dataC2Ev
FNDA:177,_ZNSt12_Vector_baseINSt7__cxx1112basic_stringIcSt11char_traitsIcESaIcEEESaIS5_EE17_Vector_impl_dataC2Ev
FNDA:14,_ZNSt12_Vector_baseIPN8nlohmann16json_abi_v3_11_310basic_jsonISt3mapSt6vectorNSt7__cxx1112basic_stringIcSt11char_traitsIcESaIcEEEblmdSaNS1_14adl_serializerES4_IhSaIhEEvEESaISF_EE17_Vector_impl_dataC2Ev
FNDA:14,_ZNSt12_Vector_baseIcSaIcEE17_Vector_impl_dataC2Ev
FNDA:0,_ZNSt12_Vector_baseIhSaIhEE17_Vector_impl_dataC2Ev
FNDA:216,_ZNKSt6vectorIN8nlohmann16json_abi_v3_11_310basic_jsonISt3mapS_NSt7__cxx1112basic_stringIcSt11char_traitsIcESaIcEEEblmdSaNS1_14adl_serializerES_IhSaIhEEvEESaISD_EE4sizeEv
FNDA:4351,_ZNKSt6vectorINSt7__cxx1112basic_stringIcSt11char_traitsIcESaIcEEESaIS5_EE4sizeEv
FNDA:152,_ZNKSt6vectorIPN8nlohmann16json_abi_v3_11_310basic_jsonISt3mapS_NSt7__cxx1112basic_stringIcSt11char_traitsIcESaIcEEEblmdSaNS1_14adl_serializerES_IhSaIhEEvEESaISE_EE4sizeEv
FNDA:376,_ZNKSt6vectorIcSaIcEE4sizeEv
FNDA:0,_ZNKSt6vectorIhSaIhEE4sizeEv
FNDA:172,_ZNKSt6vectorIN8nlohmann16json_abi_v3_11_310basic_jsonISt3mapS_NSt7__cxx1112basic_stringIcSt11char_traitsIcESaIcEEEblmdSaNS1_14adl_serializerES_IhSaIhEEvEESaISD_EE8max_sizeEv
FNDA:638,_ZNKSt6vectorINSt7__cxx1112basic_stringIcSt11char_traitsIcESaIcEEESaIS5_EE8max_sizeEv
FNDA:76,_ZNKSt6vectorIPN8nlohmann16json_abi_v3_11_310basic_jsonISt3mapS_NSt7__cxx1112basic_stringIcSt11char_traitsIcESaIcEEEblmdSaNS1_14adl_serializerES_IhSaIhEEvEESaISE_EE8max_sizeEv
FNDA:188,_ZNKSt6vectorIcSaIcEE8max_sizeEv
FNF:156
FNH:117
DA:99,297
DA:100,297
DA:101,297
DA:137,241
DA:142,241
DA:143,241
DA:146,25
DA:147,25
DA:148,25
DA:301,1774
DA:302,1774
DA:306,1089
DA:307,1089
DA:315,241
DA:321,15
DA:322,15
DA:333,0
DA:334,0
DA:335,0
DA:367,266
DA:369,266
DA:370,266
DA:371,266
DA:378,539
DA:381,1073
DA:386,785
DA:389,785
DA:390,534
DA:391,785
DA:396,0
DA:398,0
DA:399,0
DA:400,0
DA:401,0
DA:470,1008
DA:475,1008
DA:483,1008
DA:488,1008
DA:492,1008
DA:495,1008
DA:504,1008
DA:512,1008
DA:531,241
DA:601,0
DA:603,0
DA:605,0
DA:606,0
DA:608,0
DA:609,0
DA:707,10
DA:709,10
DA:711,10
DA:712,10
DA:713,10
DA:733,266
DA:735,266
DA:736,266
DA:738,266
DA:873,604
DA:874,604
DA:883,1270
DA:884,1270
DA:893,2565
DA:894,2565
DA:903,1270
DA:904,1270
DA:954,4
DA:955,4
DA:964,8
DA:965,8
DA:992,5095
DA:993,5095
DA:998,1074
DA:999,1074
DA:1013,0
DA:1015,0
DA:1016,0
DA:1017,0
DA:1018,0
DA:1019,0
DA:1078,80
DA:1079,80
DA:1080,80
DA:1088,1118
DA:1089,1118
DA:1126,1616
DA:1129,1616
DA:1145,10
DA:1148,10
DA:1209,17
DA:1212,17
DA:1233,1994
DA:1236,1994
DA:1281,1676
DA:1283,1676
DA:1286,1402
DA:1288,1402
DA:1292,274
DA:1293,1676
DA:1298,9145
DA:1299,9145
DA:1322,500
DA:1325,500
DA:1326,500
DA:1328,500
DA:1534,0
DA:1535,0
DA:1605,418
DA:1606,418
DA:1616,0
DA:1619,0
DA:1622,0
DA:1623,0
DA:1624,0
DA:1626,0
DA:1628,0
DA:1629,0
DA:1687,10
DA:1690,10
DA:1692,10
DA:1693,10
DA:1694,10
DA:1695,10
DA:1697,10
DA:1698,10
DA:1896,489
DA:1898,489
DA:1899,0
DA:1901,489
DA:1902,489
DA:1907,10
DA:1909,10
DA:1910,0
DA:1912,10
DA:1916,1084
DA:1921,1084
DA:1923,1084
DA:1924,1084
DA:1933,418
DA:1935,418
DA:1937,418
DA:1938,418
DA:1939,418
DA:1942,418
DA:2040,0
DA:2041,0
DA:2042,0
LF:147
LH:112
end_of_record
TN:
SF:/usr/include/c++/13/bits/streambuf_iterator.h
FN:288,289,_ZNSt19ostreambuf_iteratorIcSt11char_traitsIcEEC2EPSt15basic_streambufIcS1_E
FN:320,321,_ZNKSt19ostreambuf_iteratorIcSt11char_traitsIcEE6failedEv
FNDA:18,_ZNSt19ostreambuf_iteratorIcSt11char_traitsIcEEC2EPSt15basic_streambufIcS1_E
FNDA:18,_ZNKSt19ostreambuf_iteratorIcSt11char_traitsIcEE6failedEv
FNF:2
FNH:2
DA:288,18
DA:289,18
DA:320,18
DA:321,18
LF:4
LH:4
end_of_record
TN:
SF:/usr/include/c++/13/bits/unique_ptr.h
FN:1069,1070,_ZSt11make_uniqueI10CSVHandlerJEENSt8__detail9_MakeUniqIT_E15__single_objectEDpOT0_
FN:1069,1070,_ZSt11make_uniqueI11JSONHandlerJEENSt8__detail9_MakeUniqIT_E15__single_objectEDpOT0_
FN:1069,1070,_ZSt11make_uniqueI17CSVHandlerFactoryJEENSt8__detail9_MakeUniqIT_E15__single_objectEDpOT0_
FN:1069,1070,_ZSt11make_uniqueI18JSONHandlerFactoryJEENSt8__detail9_MakeUniqIT_E15__single_objectEDpOT0_
FN:174,174,_ZNSt15__uniq_ptr_implINSt7__cxx1112basic_stringIcSt11char_traitsIcESaIcEEESt14default_deleteIS5_EEC2Ev
FN:176,176,_ZNSt15__uniq_ptr_implI10CSVHandlerSt14default_deleteIS0_EEC2EPS0_
FN:176,176,_ZNSt15__uniq_ptr_implI11JSONHandlerSt14default_deleteIS0_EEC2EPS0_
FN:176,176,_ZNSt15__uniq_ptr_implI17CSVHandlerFactorySt14default_deleteIS0_EEC2EPS0_
FN:176,176,_ZNSt15__uniq_ptr_implI18JSONHandlerFactorySt14default_deleteIS0_EEC2EPS0_
FN:180,181,_ZNSt15__uniq_ptr_implI11FileHandlerSt14default_deleteIS0_EEC2IS1_I10CSVHandlerEEEPS0_OT_
FN:180,181,_ZNSt15__uniq_ptr_implI11FileHandlerSt14default_deleteIS0_EEC2IS1_I11JSONHandlerEEEPS0_OT_
FN:180,181,_ZNSt15__uniq_ptr_implI18FileHandlerFactorySt14default_deleteIS0_EEC2IS1_I17CSVHandlerFactoryEEEPS0_OT_
FN:180,181,_ZNSt15__uniq_ptr_implI18FileHandlerFactorySt14default_deleteIS0_EEC2IS1_I18JSONHandlerFactoryEEEPS0_OT_
FN:180,181,_ZNSt15__uniq_ptr_implIN8nlohmann16json_abi_v3_11_327byte_container_with_subtypeISt6vectorIhSaIhEEEEZNS1_10basic_jsonISt3mapS3_NSt7__cxx1112basic_stringIcSt11char_traitsIcESaIcEEEblmdSaNS1_14adl_serializerES5_vE6createIS6_JEEEPT_DpOT0_EUlPS6_E_EC2IRKSO_EESN_OSI_
