TN:
SF:/home/fares/Desktop/NeuroClues/include/CSVHandlerFactory.h
FN:6,8,_ZNK17CSVHandlerFactory13createHandlerEv
FNDA:2,_ZNK17CSVHandlerFactory13createHandlerEv
FNF:1
FNH:1
DA:6,2
DA:7,2
LF:2
LH:2
end_of_record
TN:
SF:/home/fares/Desktop/NeuroClues/include/FileHandler.h
FN:8,8,_ZN11FileHandlerD0Ev
FN:8,8,_ZN11FileHandlerD2Ev
FNDA:0,_ZN11FileHandlerD0Ev
FNDA:28,_ZN11FileHandlerD2Ev
FNF:2
FNH:1
DA:8,28
LF:1
LH:1
end_of_record
TN:
SF:/home/fares/Desktop/NeuroClues/include/FileHandlerFactory.h
FN:11,11,_ZN18FileHandlerFactoryD0Ev
FN:11,11,_ZN18FileHandlerFactoryD2Ev
FNDA:0,_ZN18FileHandlerFactoryD0Ev
FNDA:6,_ZN18FileHandlerFactoryD2Ev
FNF:2
FNH:1
DA:11,6
LF:1
LH:1
end_of_record
TN:
SF:/home/fares/Desktop/NeuroClues/include/JSONHandlerFactory.h
FN:6,8,_ZNK18JSONHandlerFactory13createHandlerEv
FNDA:2,_ZNK18JSONHandlerFactory13createHandlerEv
FNF:1
FNH:1
DA:6,2
DA:7,2
LF:2
LH:2
end_of_record
TN:
SF:/home/fares/Desktop/NeuroClues/src/CSVHandler.cpp
FN:25,90,_ZN10CSVHandler11processDataEv
FN:3,5,_ZNK10CSVHandler7getDataB5cxx11Ev
FN:8,22,_ZN10CSVHandler8readFileERKNSt7__cxx1112basic_stringIcSt11char_traitsIcESaIcEEE
FN:93,103,_ZN10CSVHandler9writeFileERKNSt7__cxx1112basic_stringIcSt11char_traitsIcESaIcEEE
FNDA:10,_ZN10CSVHandler11processDataEv
FNDA:6,_ZNK10CSVHandler7getDataB5cxx11Ev
FNDA:14,_ZN10CSVHandler8readFileERKNSt7__cxx1112basic_stringIcSt11char_traitsIcESaIcEEE
FNDA:4,_ZN10CSVHandler9writeFileERKNSt7__cxx1112basic_stringIcSt11char_traitsIcESaIcEEE
FNF:4
FNH:4
DA:3,6
DA:4,6
DA:8,14
DA:9,14
DA:10,14
DA:11,2
DA:14,12
DA:15,48
DA:16,36
DA:18,12
DA:21,12
DA:22,14
DA:25,10
DA:26,10
DA:29,20
DA:32,10
DA:33,10
DA:34,10
DA:36,480
DA:37,470
DA:41,40
DA:42,30
DA:46,10
DA:47,510
DA:48,500
DA:49,500
DA:51,10
DA:54,10
DA:55,10
DA:56,10
DA:57,10
DA:58,10
DA:61,30
DA:62,20
DA:63,20
DA:66,960
DA:67,940
DA:71,20
DA:72,20
DA:75,20
DA:78,20
DA:79,20
DA:80,20
DA:83,20
DA:84,1020
DA:85,1000
DA:86,1000
DA:88,20
DA:89,20
DA:90,10
DA:93,4
DA:94,4
DA:95,4
DA:96,0
DA:99,16
DA:100,12
DA:102,4
DA:103,4
LF:58
LH:57
end_of_record
TN:
SF:/home/fares/Desktop/NeuroClues/src/FactoryUtils.cpp
FN:13,27,_Z10getFactoryRKNSt7__cxx1112basic_stringIcSt11char_traitsIcESaIcEEE
FN:18,18,_ZZ10getFactoryRKNSt7__cxx1112basic_stringIcSt11char_traitsIcESaIcEEEENKUlhE_clEh
FN:5,11,_Z12getExtensionRKNSt7__cxx1112basic_stringIcSt11char_traitsIcESaIcEEE
FNDA:7,_Z10getFactoryRKNSt7__cxx1112basic_stringIcSt11char_traitsIcESaIcEEE
FNDA:24,_ZZ10getFactoryRKNSt7__cxx1112basic_stringIcSt11char_traitsIcESaIcEEEENKUlhE_clEh
FNDA:16,_Z12getExtensionRKNSt7__cxx1112basic_stringIcSt11char_traitsIcESaIcEEE
FNF:3
FNH:3
DA:5,16
DA:6,16
DA:7,16
DA:8,12
DA:10,8
DA:13,7
DA:14,7
DA:17,7
DA:18,24
DA:20,7
DA:21,3
DA:22,4
DA:23,3
DA:25,1
DA:27,7
LF:15
LH:15
end_of_record
TN:
SF:/home/fares/Desktop/NeuroClues/src/JSONHandler.cpp
FN:23,57,_ZN11JSONHandler11processDataEv
FN:60,67,_ZN11JSONHandler9writeFileERKNSt7__cxx1112basic_stringIcSt11char_traitsIcESaIcEEE
FN:69,75,_ZN11JSONHandler11ensureArrayEv
FN:77,79,_ZNK11JSONHandler11getJsonDataB5cxx11Ev
FN:9,20,_ZN11JSONHandler8readFileERKNSt7__cxx1112basic_stringIcSt11char_traitsIcESaIcEEE
FNDA:8,_ZN11JSONHandler11processDataEv
FNDA:4,_ZN11JSONHandler9writeFileERKNSt7__cxx1112basic_stringIcSt11char_traitsIcESaIcEEE
FNDA:8,_ZN11JSONHandler11ensureArrayEv
FNDA:4,_ZNK11JSONHandler11getJsonDataB5cxx11Ev
FNDA:14,_ZN11JSONHandler8readFileERKNSt7__cxx1112basic_stringIcSt11char_traitsIcESaIcEEE
FNF:5
FNH:5
DA:9,14
DA:10,14
DA:11,14
DA:12,2
DA:16,12
DA:17,2
DA:18,2
DA:19,2
DA:20,14
DA:23,8
DA:24,8
DA:27,8
DA:28,8
DA:31,8
DA:32,8
DA:33,8
DA:36,24
DA:37,16
DA:38,14
DA:40,14
DA:41,6
DA:42,6
DA:43,6
DA:46,14
DA:47,12
DA:48,12
DA:49,12
DA:54,16
DA:55,16
DA:57,8
DA:60,4
DA:61,4
DA:62,4
DA:63,0
DA:65,4
DA:66,4
DA:67,4
DA:69,8
DA:70,8
DA:71,0
DA:72,0
DA:73,0
DA:74,0
DA:75,8
DA:77,4
DA:78,4
LF:46
LH:41
end_of_record
